 aFont

 Timestamp is 518e3877 (Sat May 11 21:54:23 2013)

 Preferred load address is 10000000

 Start         Length     Name                   Class
 0001:00000000 00064d50H .text                   CODE
 0001:00064d50 00001543H .text$x                 CODE
 0001:000662a0 0000094dH .text$yc                CODE
 0001:00066bf0 000004afH .text$yd                CODE
 0002:00000000 00000178H .idata$5                DATA
 0002:00000178 00000004H .CRT$XCA                DATA
 0002:0000017c 00000004H .CRT$XCC                DATA
 0002:00000180 00000054H .CRT$XCU                DATA
 0002:000001d4 00000004H .CRT$XCZ                DATA
 0002:000001d8 00000004H .CRT$XIA                DATA
 0002:000001dc 00000010H .CRT$XIC                DATA
 0002:000001ec 00000004H .CRT$XIZ                DATA
 0002:000001f0 00000004H .CRT$XPA                DATA
 0002:000001f4 00000008H .CRT$XPX                DATA
 0002:000001fc 00000004H .CRT$XPXA               DATA
 0002:00000200 00000004H .CRT$XPZ                DATA
 0002:00000204 00000004H .CRT$XTA                DATA
 0002:00000208 00000004H .CRT$XTZ                DATA
 0002:00000210 000105a0H .rdata                  DATA
 0002:000107b0 0000005cH .rdata$debug            DATA
 0002:0001080c 0000077cH .rdata$r                DATA
 0002:00010f90 00000168H .rdata$sxdata           DATA
 0002:000110f8 00000004H .rtc$IAA                DATA
 0002:000110fc 0000000cH .rtc$IMZ                DATA
 0002:00011108 00000004H .rtc$IZZ                DATA
 0002:0001110c 00000004H .rtc$TAA                DATA
 0002:00011110 0000000cH .rtc$TMZ                DATA
 0002:0001111c 00000004H .rtc$TZZ                DATA
 0002:00011120 0000217cH .xdata$x                DATA
 0002:0001329c 00000028H .idata$2                DATA
 0002:000132c4 00000014H .idata$3                DATA
 0002:000132d8 00000178H .idata$4                DATA
 0002:00013450 000006ceH .idata$6                DATA
 0002:00013b20 0000004bH .edata                  DATA
 0003:00000000 00001530H .data                   DATA
 0003:00001540 00004884H .bss                    DATA
 0004:00000000 00000058H .rsrc$01                DATA
 0004:00000060 00000180H .rsrc$02                DATA

  Address         Publics by Value              Rva+Base       Lib:Object

 0000:00000000       __except_list              00000000     <absolute>
 0000:0000005a       ___safe_se_handler_count   0000005a     <absolute>
 0000:00000000       ___ImageBase               10000000     <linker-defined>
 0001:00000000       ??$?0AAV?$_Tree_iterator@V?$_Tree_val@U?$_Tree_simple_types@U?$pair@$$CBHPAVFontType@@@std@@@std@@@std@@@std@@_N@?$pair@V?$_Tree_iterator@V?$_Tree_val@U?$_Tree_simple_types@U?$pair@$$CBHPAVFontType@@@std@@@std@@@std@@@std@@_N@std@@QAE@AAV?$_Tree_iterator@V?$_Tree_val@U?$_Tree_simple_types@U?$pair@$$CBHPAVFontType@@@std@@@std@@@std@@@1@$$QA_NPAPAX@Z 10001000 f i aFont.obj
 0001:000000a0       ??$?0AAV?$_Tree_iterator@V?$_Tree_val@U?$_Tree_simple_types@U?$pair@$$CBIPAUFunction@@@std@@@std@@@std@@@std@@_N@?$pair@V?$_Tree_iterator@V?$_Tree_val@U?$_Tree_simple_types@U?$pair@$$CBIPAUFunction@@@std@@@std@@@std@@@std@@_N@std@@QAE@AAV?$_Tree_iterator@V?$_Tree_val@U?$_Tree_simple_types@U?$pair@$$CBIPAUFunction@@@std@@@std@@@std@@@1@$$QA_NPAPAX@Z 100010a0 f i aFont.obj
 0001:00000140       ??$?0ABHPAVFontType@@@?$pair@HPAVFontType@@@std@@QAE@ABH$$QAPAVFontType@@PAPAX@Z 10001140 f i aFont.obj
 0001:000001a0       ??$?0HPAVFontType@@@?$pair@$$CBHPAVFontType@@@std@@QAE@$$QAU?$pair@HPAVFontType@@@1@PAPAX@Z 100011a0 f i aFont.obj
 0001:00000200       ??$?0HPAVFontType@@@?$pair@HPAVFontType@@@std@@QAE@$$QAH$$QAPAVFontType@@PAPAX@Z 10001200 f i aFont.obj
 0001:00000260       ??$?0IPAUFunction@@@?$pair@$$CBIPAUFunction@@@std@@QAE@$$QAU?$pair@IPAUFunction@@@1@PAPAX@Z 10001260 f i aFont.obj
 0001:000002c0       ??$?0IPAUFunction@@@?$pair@IPAUFunction@@@std@@QAE@$$QAI$$QAPAUFunction@@PAPAX@Z 100012c0 f i aFont.obj
 0001:00000320       ??$?0U?$_Tree_node@U?$pair@$$CBHPAVFontType@@@std@@PAX@std@@@?$allocator@U_Container_proxy@std@@@std@@QAE@ABV?$allocator@U?$_Tree_node@U?$pair@$$CBHPAVFontType@@@std@@PAX@std@@@1@@Z 10001320 f i aFont.obj
 0001:00000350       ??$?0U?$_Tree_node@U?$pair@$$CBIPAUFunction@@@std@@PAX@std@@@?$allocator@U_Container_proxy@std@@@std@@QAE@ABV?$allocator@U?$_Tree_node@U?$pair@$$CBIPAUFunction@@@std@@PAX@std@@@1@@Z 10001350 f i aFont.obj
 0001:00000380       ??$?0U?$_Tree_node@U?$pair@$$CBIPAX@std@@PAX@std@@@?$allocator@U_Container_proxy@std@@@std@@QAE@ABV?$allocator@U?$_Tree_node@U?$pair@$$CBIPAX@std@@PAX@std@@@1@@Z 10001380 f i aFont.obj
 0001:000003b0       ??$?0U?$_Wrap_alloc@V?$allocator@U?$_Tree_node@U?$pair@$$CBHPAVFontType@@@std@@PAX@std@@@std@@@std@@@?$_Wrap_alloc@V?$allocator@U_Container_proxy@std@@@std@@@std@@QAE@ABU?$_Wrap_alloc@V?$allocator@U?$_Tree_node@U?$pair@$$CBHPAVFontType@@@std@@PAX@std@@@std@@@1@@Z 100013b0 f i aFont.obj
 0001:00000400       ??$?0U?$_Wrap_alloc@V?$allocator@U?$_Tree_node@U?$pair@$$CBIPAUFunction@@@std@@PAX@std@@@std@@@std@@@?$_Wrap_alloc@V?$allocator@U_Container_proxy@std@@@std@@@std@@QAE@ABU?$_Wrap_alloc@V?$allocator@U?$_Tree_node@U?$pair@$$CBIPAUFunction@@@std@@PAX@std@@@std@@@1@@Z 10001400 f i aFont.obj
 0001:00000450       ??$?0U?$_Wrap_alloc@V?$allocator@U?$_Tree_node@U?$pair@$$CBIPAX@std@@PAX@std@@@std@@@std@@@?$_Wrap_alloc@V?$allocator@U_Container_proxy@std@@@std@@@std@@QAE@ABU?$_Wrap_alloc@V?$allocator@U?$_Tree_node@U?$pair@$$CBIPAX@std@@PAX@std@@@std@@@1@@Z 10001450 f i aFont.obj
 0001:000004a0       ??$?0V?$_Tree_iterator@V?$_Tree_val@U?$_Tree_simple_types@U?$pair@$$CBHPAVFontType@@@std@@@std@@@std@@@std@@_N@?$pair@V?$_Tree_iterator@V?$_Tree_val@U?$_Tree_simple_types@U?$pair@$$CBHPAVFontType@@@std@@@std@@@std@@@std@@_N@std@@QAE@$$QAU01@PAPAX@Z 100014a0 f i aFont.obj
 0001:00000540       ??$?0V?$_Tree_iterator@V?$_Tree_val@U?$_Tree_simple_types@U?$pair@$$CBHPAVFontType@@@std@@@std@@@std@@@std@@_N@?$pair@V?$_Tree_iterator@V?$_Tree_val@U?$_Tree_simple_types@U?$pair@$$CBHPAVFontType@@@std@@@std@@@std@@@std@@_N@std@@QAE@$$QAV?$_Tree_iterator@V?$_Tree_val@U?$_Tree_simple_types@U?$pair@$$CBHPAVFontType@@@std@@@std@@@std@@@1@$$QA_NPAPAX@Z 10001540 f i aFont.obj
 0001:000005e0       ??$?0V?$_Tree_iterator@V?$_Tree_val@U?$_Tree_simple_types@U?$pair@$$CBIPAUFunction@@@std@@@std@@@std@@@std@@_N@?$pair@V?$_Tree_iterator@V?$_Tree_val@U?$_Tree_simple_types@U?$pair@$$CBIPAUFunction@@@std@@@std@@@std@@@std@@_N@std@@QAE@$$QAU01@PAPAX@Z 100015e0 f i aFont.obj
 0001:00000680       ??$?0V?$_Tree_iterator@V?$_Tree_val@U?$_Tree_simple_types@U?$pair@$$CBIPAUFunction@@@std@@@std@@@std@@@std@@_N@?$pair@V?$_Tree_iterator@V?$_Tree_val@U?$_Tree_simple_types@U?$pair@$$CBIPAUFunction@@@std@@@std@@@std@@@std@@_N@std@@QAE@$$QAV?$_Tree_iterator@V?$_Tree_val@U?$_Tree_simple_types@U?$pair@$$CBIPAUFunction@@@std@@@std@@@std@@@1@$$QA_NPAPAX@Z 10001680 f i aFont.obj
 0001:00000720       ??$?YH@PackClass@Packet@@QAEIH@Z 10001720 f i aFont.obj
 0001:00000770       ??$?YI@PackClass@Packet@@QAEII@Z 10001770 f i aFont.obj
 0001:000007c0       ??$?YK@PackClass@Packet@@QAEIK@Z 100017c0 f i aFont.obj
 0001:00000810       ??$?YM@PackClass@Packet@@QAEIM@Z 10001810 f i aFont.obj
 0001:00000860       ??$?YPBD@PackClass@Packet@@QAEIPBD@Z 10001860 f i aFont.obj
 0001:000008b0       ??$CRCMaker@PAI@CRC@@YGIPAI@Z 100018b0 f i aFont.obj
 0001:00000e00       ??$CRCMaker@PBD@CRC@@YGIPBD@Z 10001e00 f i aFont.obj
 0001:00001350       ??$GetData@H@PackClass@Packet@@QAEHH@Z 10002350 f i aFont.obj
 0001:000013f0       ??$GetData@M@PackClass@Packet@@QAEMM@Z 100023f0 f i aFont.obj
 0001:00001490       ??$GetDataIndex@H@PackClass@Packet@@QAEHIH@Z 10002490 f i aFont.obj
 0001:000014d0       ??$GetDataIndex@M@PackClass@Packet@@QAEMIM@Z 100024d0 f i aFont.obj
 0001:00001510       ??$_Allocate@D@std@@YGPADIPAD@Z 10002510 f i aFont.obj
 0001:00001580       ??$_Allocate@U?$_Tree_node@U?$pair@$$CBHPAVFontType@@@std@@PAX@std@@@std@@YGPAU?$_Tree_node@U?$pair@$$CBHPAVFontType@@@std@@PAX@0@IPAU10@@Z 10002580 f i aFont.obj
 0001:000015f0       ??$_Allocate@U?$_Tree_node@U?$pair@$$CBIPAUFunction@@@std@@PAX@std@@@std@@YGPAU?$_Tree_node@U?$pair@$$CBIPAUFunction@@@std@@PAX@0@IPAU10@@Z 100025f0 f i aFont.obj
 0001:00001660       ??$_Allocate@U?$_Tree_node@U?$pair@$$CBIPAX@std@@PAX@std@@@std@@YGPAU?$_Tree_node@U?$pair@$$CBIPAX@std@@PAX@0@IPAU10@@Z 10002660 f i aFont.obj
 0001:000016d0       ??$_Allocate@U_Container_proxy@std@@@std@@YGPAU_Container_proxy@0@IPAU10@@Z 100026d0 f i aFont.obj
 0001:00001740       ??$_Buynode@U?$pair@HPAVFontType@@@std@@@?$_Tree_buy@U?$pair@$$CBHPAVFontType@@@std@@V?$allocator@U?$pair@$$CBHPAVFontType@@@std@@@2@@std@@QAEPAU?$_Tree_node@U?$pair@$$CBHPAVFontType@@@std@@PAX@1@$$QAU?$pair@HPAVFontType@@@1@@Z 10002740 f i aFont.obj
 0001:00001860       ??$_Buynode@U?$pair@IPAUFunction@@@std@@@?$_Tree_buy@U?$pair@$$CBIPAUFunction@@@std@@V?$allocator@U?$pair@$$CBIPAUFunction@@@std@@@2@@std@@QAEPAU?$_Tree_node@U?$pair@$$CBIPAUFunction@@@std@@PAX@1@$$QAU?$pair@IPAUFunction@@@1@@Z 10002860 f i aFont.obj
 0001:00001980       ??$_Buynode_if_nil@AAU?$pair@$$CBHPAVFontType@@@std@@@?$_Tree@V?$_Tmap_traits@HPAVFontType@@U?$less@H@std@@V?$allocator@U?$pair@$$CBHPAVFontType@@@std@@@3@$0A@@std@@@std@@IAEPAU?$_Tree_node@U?$pair@$$CBHPAVFontType@@@std@@PAX@1@PAU21@AAU?$pair@$$CBHPAVFontType@@@1@@Z 10002980 f i aFont.obj
 0001:000019b0       ??$_Buynode_if_nil@AAU?$pair@$$CBIPAUFunction@@@std@@@?$_Tree@V?$_Tmap_traits@IPAUFunction@@UFcmp@@V?$allocator@U?$pair@$$CBIPAUFunction@@@std@@@std@@$0A@@std@@@std@@IAEPAU?$_Tree_node@U?$pair@$$CBIPAUFunction@@@std@@PAX@1@PAU21@AAU?$pair@$$CBIPAUFunction@@@1@@Z 100029b0 f i aFont.obj
 0001:000019e0       ??$_Debug_lt_pred@U?$less@H@std@@HH@std@@YG_NU?$less@H@0@ABH1PB_WI@Z 100029e0 f i aFont.obj
 0001:00001a60       ??$_Debug_lt_pred@UFcmp@@II@std@@YG_NUFcmp@@ABI1PB_WI@Z 10002a60 f i aFont.obj
 0001:00001af0       ??$_Debug_pointer@D@std@@YGXPBDPB_WI@Z 10002af0 f i aFont.obj
 0001:00001b40       ??$_Insert_at@AAU?$pair@$$CBHPAVFontType@@@std@@PAU?$_Tree_node@U?$pair@$$CBHPAVFontType@@@std@@PAX@2@@?$_Tree@V?$_Tmap_traits@HPAVFontType@@U?$less@H@std@@V?$allocator@U?$pair@$$CBHPAVFontType@@@std@@@3@$0A@@std@@@std@@IAE?AV?$_Tree_iterator@V?$_Tree_val@U?$_Tree_simple_types@U?$pair@$$CBHPAVFontType@@@std@@@std@@@std@@@1@_NPAU?$_Tree_node@U?$pair@$$CBHPAVFontType@@@std@@PAX@1@AAU?$pair@$$CBHPAVFontType@@@1@1@Z 10002b40 f i aFont.obj
 0001:00001f00       ??$_Insert_at@AAU?$pair@$$CBIPAUFunction@@@std@@PAU?$_Tree_node@U?$pair@$$CBIPAUFunction@@@std@@PAX@2@@?$_Tree@V?$_Tmap_traits@IPAUFunction@@UFcmp@@V?$allocator@U?$pair@$$CBIPAUFunction@@@std@@@std@@$0A@@std@@@std@@IAE?AV?$_Tree_iterator@V?$_Tree_val@U?$_Tree_simple_types@U?$pair@$$CBIPAUFunction@@@std@@@std@@@std@@@1@_NPAU?$_Tree_node@U?$pair@$$CBIPAUFunction@@@std@@PAX@1@AAU?$pair@$$CBIPAUFunction@@@1@1@Z 10002f00 f i aFont.obj
 0001:000022c0       ??$_Insert_hint@AAU?$pair@$$CBHPAVFontType@@@std@@PAU?$_Tree_node@U?$pair@$$CBHPAVFontType@@@std@@PAX@2@@?$_Tree@V?$_Tmap_traits@HPAVFontType@@U?$less@H@std@@V?$allocator@U?$pair@$$CBHPAVFontType@@@std@@@3@$0A@@std@@@std@@IAE?AV?$_Tree_iterator@V?$_Tree_val@U?$_Tree_simple_types@U?$pair@$$CBHPAVFontType@@@std@@@std@@@std@@@1@V?$_Tree_const_iterator@V?$_Tree_val@U?$_Tree_simple_types@U?$pair@$$CBHPAVFontType@@@std@@@std@@@std@@@1@AAU?$pair@$$CBHPAVFontType@@@1@PAU?$_Tree_node@U?$pair@$$CBHPAVFontType@@@std@@PAX@1@@Z 100032c0 f i aFont.obj
 0001:00003500       ??$_Insert_hint@AAU?$pair@$$CBIPAUFunction@@@std@@PAU?$_Tree_node@U?$pair@$$CBIPAUFunction@@@std@@PAX@2@@?$_Tree@V?$_Tmap_traits@IPAUFunction@@UFcmp@@V?$allocator@U?$pair@$$CBIPAUFunction@@@std@@@std@@$0A@@std@@@std@@IAE?AV?$_Tree_iterator@V?$_Tree_val@U?$_Tree_simple_types@U?$pair@$$CBIPAUFunction@@@std@@@std@@@std@@@1@V?$_Tree_const_iterator@V?$_Tree_val@U?$_Tree_simple_types@U?$pair@$$CBIPAUFunction@@@std@@@std@@@std@@@1@AAU?$pair@$$CBIPAUFunction@@@1@PAU?$_Tree_node@U?$pair@$$CBIPAUFunction@@@std@@PAX@1@@Z 10004500 f i aFont.obj
 0001:00004740       ??$_Insert_nohint@AAU?$pair@$$CBHPAVFontType@@@std@@PAU?$_Tree_node@U?$pair@$$CBHPAVFontType@@@std@@PAX@2@@?$_Tree@V?$_Tmap_traits@HPAVFontType@@U?$less@H@std@@V?$allocator@U?$pair@$$CBHPAVFontType@@@std@@@3@$0A@@std@@@std@@IAE?AU?$pair@V?$_Tree_iterator@V?$_Tree_val@U?$_Tree_simple_types@U?$pair@$$CBHPAVFontType@@@std@@@std@@@std@@@std@@_N@1@_NAAU?$pair@$$CBHPAVFontType@@@1@PAU?$_Tree_node@U?$pair@$$CBHPAVFontType@@@std@@PAX@1@@Z 10005740 f i aFont.obj
 0001:00004de0       ??$_Insert_nohint@AAU?$pair@$$CBIPAUFunction@@@std@@PAU?$_Tree_node@U?$pair@$$CBIPAUFunction@@@std@@PAX@2@@?$_Tree@V?$_Tmap_traits@IPAUFunction@@UFcmp@@V?$allocator@U?$pair@$$CBIPAUFunction@@@std@@@std@@$0A@@std@@@std@@IAE?AU?$pair@V?$_Tree_iterator@V?$_Tree_val@U?$_Tree_simple_types@U?$pair@$$CBIPAUFunction@@@std@@@std@@@std@@@std@@_N@1@_NAAU?$pair@$$CBIPAUFunction@@@1@PAU?$_Tree_node@U?$pair@$$CBIPAUFunction@@@std@@PAX@1@@Z 10005de0 f i aFont.obj
 0001:00005480       ??$_Kfn@$$CBHPAVFontType@@@?$_Tmap_traits@HPAVFontType@@U?$less@H@std@@V?$allocator@U?$pair@$$CBHPAVFontType@@@std@@@3@$0A@@std@@SGABHABU?$pair@$$CBHPAVFontType@@@1@@Z 10006480 f i aFont.obj
 0001:000054b0       ??$_Kfn@$$CBIPAUFunction@@@?$_Tmap_traits@IPAUFunction@@UFcmp@@V?$allocator@U?$pair@$$CBIPAUFunction@@@std@@@std@@$0A@@std@@SGABIABU?$pair@$$CBIPAUFunction@@@1@@Z 100064b0 f i aFont.obj
 0001:000054e0       ??$_Move@AAD@std@@YG$$QADAAD@Z 100064e0 f i aFont.obj
 0001:00005510       ??$addressof@D@std@@YGPADAAD@Z 10006510 f i aFont.obj
 0001:00005540       ??$addressof@PAU?$_Tree_node@U?$pair@$$CBHPAVFontType@@@std@@PAX@std@@@std@@YGPAPAU?$_Tree_node@U?$pair@$$CBHPAVFontType@@@std@@PAX@0@AAPAU10@@Z 10006540 f i aFont.obj
 0001:00005570       ??$addressof@PAU?$_Tree_node@U?$pair@$$CBIPAUFunction@@@std@@PAX@std@@@std@@YGPAPAU?$_Tree_node@U?$pair@$$CBIPAUFunction@@@std@@PAX@0@AAPAU10@@Z 10006570 f i aFont.obj
 0001:000055a0       ??$addressof@PAU?$_Tree_node@U?$pair@$$CBIPAX@std@@PAX@std@@@std@@YGPAPAU?$_Tree_node@U?$pair@$$CBIPAX@std@@PAX@0@AAPAU10@@Z 100065a0 f i aFont.obj
 0001:000055d0       ??$addressof@U?$pair@$$CBHPAVFontType@@@std@@@std@@YGPAU?$pair@$$CBHPAVFontType@@@0@AAU10@@Z 100065d0 f i aFont.obj
 0001:00005600       ??$addressof@U?$pair@$$CBIPAUFunction@@@std@@@std@@YGPAU?$pair@$$CBIPAUFunction@@@0@AAU10@@Z 10006600 f i aFont.obj
 0001:00005630       ??$addressof@U?$pair@$$CBIPAX@std@@@std@@YGPAU?$pair@$$CBIPAX@0@AAU10@@Z 10006630 f i aFont.obj
 0001:00005660       ??$construct@PADAAPAD@?$_Wrap_alloc@V?$allocator@D@std@@@std@@QAEXPAPADAAPAD@Z 10006660 f i aFont.obj
 0001:000056b0       ??$construct@PADAAPAD@?$allocator@D@std@@QAEXPAPADAAPAD@Z 100066b0 f i aFont.obj
 0001:00005780       ??$construct@PADAAPAD@?$allocator_traits@V?$allocator@D@std@@@std@@SGXAAV?$allocator@D@1@PAPADAAPAD@Z 10006780 f i aFont.obj
 0001:000057d0       ??$construct@PAU?$_Tree_node@U?$pair@$$CBHPAVFontType@@@std@@PAX@std@@AAPAU12@@?$_Wrap_alloc@V?$allocator@U?$_Tree_node@U?$pair@$$CBHPAVFontType@@@std@@PAX@std@@@std@@@std@@QAEXPAPAU?$_Tree_node@U?$pair@$$CBHPAVFontType@@@std@@PAX@1@AAPAU21@@Z 100067d0 f i aFont.obj
 0001:00005820       ??$construct@PAU?$_Tree_node@U?$pair@$$CBHPAVFontType@@@std@@PAX@std@@AAPAU12@@?$allocator@U?$_Tree_node@U?$pair@$$CBHPAVFontType@@@std@@PAX@std@@@std@@QAEXPAPAU?$_Tree_node@U?$pair@$$CBHPAVFontType@@@std@@PAX@1@AAPAU21@@Z 10006820 f i aFont.obj
 0001:000058f0       ??$construct@PAU?$_Tree_node@U?$pair@$$CBHPAVFontType@@@std@@PAX@std@@AAPAU12@@?$allocator_traits@V?$allocator@U?$_Tree_node@U?$pair@$$CBHPAVFontType@@@std@@PAX@std@@@std@@@std@@SGXAAV?$allocator@U?$_Tree_node@U?$pair@$$CBHPAVFontType@@@std@@PAX@std@@@1@PAPAU?$_Tree_node@U?$pair@$$CBHPAVFontType@@@std@@PAX@1@AAPAU31@@Z 100068f0 f i aFont.obj
 0001:00005940       ??$construct@PAU?$_Tree_node@U?$pair@$$CBIPAUFunction@@@std@@PAX@std@@AAPAU12@@?$_Wrap_alloc@V?$allocator@U?$_Tree_node@U?$pair@$$CBIPAUFunction@@@std@@PAX@std@@@std@@@std@@QAEXPAPAU?$_Tree_node@U?$pair@$$CBIPAUFunction@@@std@@PAX@1@AAPAU21@@Z 10006940 f i aFont.obj
 0001:00005990       ??$construct@PAU?$_Tree_node@U?$pair@$$CBIPAUFunction@@@std@@PAX@std@@AAPAU12@@?$allocator@U?$_Tree_node@U?$pair@$$CBIPAUFunction@@@std@@PAX@std@@@std@@QAEXPAPAU?$_Tree_node@U?$pair@$$CBIPAUFunction@@@std@@PAX@1@AAPAU21@@Z 10006990 f i aFont.obj
 0001:00005a60       ??$construct@PAU?$_Tree_node@U?$pair@$$CBIPAUFunction@@@std@@PAX@std@@AAPAU12@@?$allocator_traits@V?$allocator@U?$_Tree_node@U?$pair@$$CBIPAUFunction@@@std@@PAX@std@@@std@@@std@@SGXAAV?$allocator@U?$_Tree_node@U?$pair@$$CBIPAUFunction@@@std@@PAX@std@@@1@PAPAU?$_Tree_node@U?$pair@$$CBIPAUFunction@@@std@@PAX@1@AAPAU31@@Z 10006a60 f i aFont.obj
 0001:00005ab0       ??$construct@PAU?$_Tree_node@U?$pair@$$CBIPAX@std@@PAX@std@@AAPAU12@@?$_Wrap_alloc@V?$allocator@U?$_Tree_node@U?$pair@$$CBIPAX@std@@PAX@std@@@std@@@std@@QAEXPAPAU?$_Tree_node@U?$pair@$$CBIPAX@std@@PAX@1@AAPAU21@@Z 10006ab0 f i aFont.obj
 0001:00005b00       ??$construct@PAU?$_Tree_node@U?$pair@$$CBIPAX@std@@PAX@std@@AAPAU12@@?$allocator@U?$_Tree_node@U?$pair@$$CBIPAX@std@@PAX@std@@@std@@QAEXPAPAU?$_Tree_node@U?$pair@$$CBIPAX@std@@PAX@1@AAPAU21@@Z 10006b00 f i aFont.obj
 0001:00005bd0       ??$construct@PAU?$_Tree_node@U?$pair@$$CBIPAX@std@@PAX@std@@AAPAU12@@?$allocator_traits@V?$allocator@U?$_Tree_node@U?$pair@$$CBIPAX@std@@PAX@std@@@std@@@std@@SGXAAV?$allocator@U?$_Tree_node@U?$pair@$$CBIPAX@std@@PAX@std@@@1@PAPAU?$_Tree_node@U?$pair@$$CBIPAX@std@@PAX@1@AAPAU31@@Z 10006bd0 f i aFont.obj
 0001:00005c20       ??$construct@U?$pair@$$CBHPAVFontType@@@std@@U?$pair@HPAVFontType@@@2@@?$_Wrap_alloc@V?$allocator@U?$_Tree_node@U?$pair@$$CBHPAVFontType@@@std@@PAX@std@@@std@@@std@@QAEXPAU?$pair@$$CBHPAVFontType@@@1@$$QAU?$pair@HPAVFontType@@@1@@Z 10006c20 f i aFont.obj
 0001:00005c70       ??$construct@U?$pair@$$CBHPAVFontType@@@std@@U?$pair@HPAVFontType@@@2@@?$allocator@U?$_Tree_node@U?$pair@$$CBHPAVFontType@@@std@@PAX@std@@@std@@QAEXPAU?$pair@$$CBHPAVFontType@@@1@$$QAU?$pair@HPAVFontType@@@1@@Z 10006c70 f i aFont.obj
 0001:00005d40       ??$construct@U?$pair@$$CBHPAVFontType@@@std@@U?$pair@HPAVFontType@@@2@@?$allocator_traits@V?$allocator@U?$_Tree_node@U?$pair@$$CBHPAVFontType@@@std@@PAX@std@@@std@@@std@@SGXAAV?$allocator@U?$_Tree_node@U?$pair@$$CBHPAVFontType@@@std@@PAX@std@@@1@PAU?$pair@$$CBHPAVFontType@@@1@$$QAU?$pair@HPAVFontType@@@1@@Z 10006d40 f i aFont.obj
 0001:00005d90       ??$construct@U?$pair@$$CBIPAUFunction@@@std@@U?$pair@IPAUFunction@@@2@@?$_Wrap_alloc@V?$allocator@U?$_Tree_node@U?$pair@$$CBIPAUFunction@@@std@@PAX@std@@@std@@@std@@QAEXPAU?$pair@$$CBIPAUFunction@@@1@$$QAU?$pair@IPAUFunction@@@1@@Z 10006d90 f i aFont.obj
 0001:00005de0       ??$construct@U?$pair@$$CBIPAUFunction@@@std@@U?$pair@IPAUFunction@@@2@@?$allocator@U?$_Tree_node@U?$pair@$$CBIPAUFunction@@@std@@PAX@std@@@std@@QAEXPAU?$pair@$$CBIPAUFunction@@@1@$$QAU?$pair@IPAUFunction@@@1@@Z 10006de0 f i aFont.obj
 0001:00005eb0       ??$construct@U?$pair@$$CBIPAUFunction@@@std@@U?$pair@IPAUFunction@@@2@@?$allocator_traits@V?$allocator@U?$_Tree_node@U?$pair@$$CBIPAUFunction@@@std@@PAX@std@@@std@@@std@@SGXAAV?$allocator@U?$_Tree_node@U?$pair@$$CBIPAUFunction@@@std@@PAX@std@@@1@PAU?$pair@$$CBIPAUFunction@@@1@$$QAU?$pair@IPAUFunction@@@1@@Z 10006eb0 f i aFont.obj
 0001:00005f00       ??$construct@U_Container_proxy@std@@U12@@?$_Wrap_alloc@V?$allocator@U_Container_proxy@std@@@std@@@std@@QAEXPAU_Container_proxy@1@$$QAU21@@Z 10006f00 f i aFont.obj
 0001:00005f50       ??$construct@U_Container_proxy@std@@U12@@?$allocator@U_Container_proxy@std@@@std@@QAEXPAU_Container_proxy@1@$$QAU21@@Z 10006f50 f i aFont.obj
 0001:00006020       ??$construct@U_Container_proxy@std@@U12@@?$allocator_traits@V?$allocator@U_Container_proxy@std@@@std@@@std@@SGXAAV?$allocator@U_Container_proxy@std@@@1@PAU_Container_proxy@1@$$QAU31@@Z 10007020 f i aFont.obj
 0001:00006070       ??$destroy@PAD@?$_Wrap_alloc@V?$allocator@D@std@@@std@@QAEXPAPAD@Z 10007070 f i aFont.obj
 0001:000060c0       ??$destroy@PAD@?$allocator@D@std@@QAEXPAPAD@Z 100070c0 f i aFont.obj
 0001:000060f0       ??$destroy@PAD@?$allocator_traits@V?$allocator@D@std@@@std@@SGXAAV?$allocator@D@1@PAPAD@Z 100070f0 f i aFont.obj
 0001:00006130       ??$destroy@PAU?$_Tree_node@U?$pair@$$CBHPAVFontType@@@std@@PAX@std@@@?$_Wrap_alloc@V?$allocator@U?$_Tree_node@U?$pair@$$CBHPAVFontType@@@std@@PAX@std@@@std@@@std@@QAEXPAPAU?$_Tree_node@U?$pair@$$CBHPAVFontType@@@std@@PAX@1@@Z 10007130 f i aFont.obj
 0001:00006180       ??$destroy@PAU?$_Tree_node@U?$pair@$$CBHPAVFontType@@@std@@PAX@std@@@?$allocator@U?$_Tree_node@U?$pair@$$CBHPAVFontType@@@std@@PAX@std@@@std@@QAEXPAPAU?$_Tree_node@U?$pair@$$CBHPAVFontType@@@std@@PAX@1@@Z 10007180 f i aFont.obj
 0001:000061b0       ??$destroy@PAU?$_Tree_node@U?$pair@$$CBHPAVFontType@@@std@@PAX@std@@@?$allocator_traits@V?$allocator@U?$_Tree_node@U?$pair@$$CBHPAVFontType@@@std@@PAX@std@@@std@@@std@@SGXAAV?$allocator@U?$_Tree_node@U?$pair@$$CBHPAVFontType@@@std@@PAX@std@@@1@PAPAU?$_Tree_node@U?$pair@$$CBHPAVFontType@@@std@@PAX@1@@Z 100071b0 f i aFont.obj
 0001:000061f0       ??$destroy@PAU?$_Tree_node@U?$pair@$$CBIPAUFunction@@@std@@PAX@std@@@?$_Wrap_alloc@V?$allocator@U?$_Tree_node@U?$pair@$$CBIPAUFunction@@@std@@PAX@std@@@std@@@std@@QAEXPAPAU?$_Tree_node@U?$pair@$$CBIPAUFunction@@@std@@PAX@1@@Z 100071f0 f i aFont.obj
 0001:00006240       ??$destroy@PAU?$_Tree_node@U?$pair@$$CBIPAUFunction@@@std@@PAX@std@@@?$allocator@U?$_Tree_node@U?$pair@$$CBIPAUFunction@@@std@@PAX@std@@@std@@QAEXPAPAU?$_Tree_node@U?$pair@$$CBIPAUFunction@@@std@@PAX@1@@Z 10007240 f i aFont.obj
 0001:00006270       ??$destroy@PAU?$_Tree_node@U?$pair@$$CBIPAUFunction@@@std@@PAX@std@@@?$allocator_traits@V?$allocator@U?$_Tree_node@U?$pair@$$CBIPAUFunction@@@std@@PAX@std@@@std@@@std@@SGXAAV?$allocator@U?$_Tree_node@U?$pair@$$CBIPAUFunction@@@std@@PAX@std@@@1@PAPAU?$_Tree_node@U?$pair@$$CBIPAUFunction@@@std@@PAX@1@@Z 10007270 f i aFont.obj
 0001:000062b0       ??$destroy@PAU?$_Tree_node@U?$pair@$$CBIPAX@std@@PAX@std@@@?$_Wrap_alloc@V?$allocator@U?$_Tree_node@U?$pair@$$CBIPAX@std@@PAX@std@@@std@@@std@@QAEXPAPAU?$_Tree_node@U?$pair@$$CBIPAX@std@@PAX@1@@Z 100072b0 f i aFont.obj
 0001:00006300       ??$destroy@PAU?$_Tree_node@U?$pair@$$CBIPAX@std@@PAX@std@@@?$allocator@U?$_Tree_node@U?$pair@$$CBIPAX@std@@PAX@std@@@std@@QAEXPAPAU?$_Tree_node@U?$pair@$$CBIPAX@std@@PAX@1@@Z 10007300 f i aFont.obj
 0001:00006330       ??$destroy@PAU?$_Tree_node@U?$pair@$$CBIPAX@std@@PAX@std@@@?$allocator_traits@V?$allocator@U?$_Tree_node@U?$pair@$$CBIPAX@std@@PAX@std@@@std@@@std@@SGXAAV?$allocator@U?$_Tree_node@U?$pair@$$CBIPAX@std@@PAX@std@@@1@PAPAU?$_Tree_node@U?$pair@$$CBIPAX@std@@PAX@1@@Z 10007330 f i aFont.obj
 0001:00006370       ??$destroy@U?$pair@$$CBHPAVFontType@@@std@@@?$_Wrap_alloc@V?$allocator@U?$_Tree_node@U?$pair@$$CBHPAVFontType@@@std@@PAX@std@@@std@@@std@@QAEXPAU?$pair@$$CBHPAVFontType@@@1@@Z 10007370 f i aFont.obj
 0001:000063c0       ??$destroy@U?$pair@$$CBHPAVFontType@@@std@@@?$allocator@U?$_Tree_node@U?$pair@$$CBHPAVFontType@@@std@@PAX@std@@@std@@QAEXPAU?$pair@$$CBHPAVFontType@@@1@@Z 100073c0 f i aFont.obj
 0001:000063f0       ??$destroy@U?$pair@$$CBHPAVFontType@@@std@@@?$allocator_traits@V?$allocator@U?$_Tree_node@U?$pair@$$CBHPAVFontType@@@std@@PAX@std@@@std@@@std@@SGXAAV?$allocator@U?$_Tree_node@U?$pair@$$CBHPAVFontType@@@std@@PAX@std@@@1@PAU?$pair@$$CBHPAVFontType@@@1@@Z 100073f0 f i aFont.obj
 0001:00006430       ??$destroy@U?$pair@$$CBIPAUFunction@@@std@@@?$_Wrap_alloc@V?$allocator@U?$_Tree_node@U?$pair@$$CBIPAUFunction@@@std@@PAX@std@@@std@@@std@@QAEXPAU?$pair@$$CBIPAUFunction@@@1@@Z 10007430 f i aFont.obj
 0001:00006480       ??$destroy@U?$pair@$$CBIPAUFunction@@@std@@@?$allocator@U?$_Tree_node@U?$pair@$$CBIPAUFunction@@@std@@PAX@std@@@std@@QAEXPAU?$pair@$$CBIPAUFunction@@@1@@Z 10007480 f i aFont.obj
 0001:000064b0       ??$destroy@U?$pair@$$CBIPAUFunction@@@std@@@?$allocator_traits@V?$allocator@U?$_Tree_node@U?$pair@$$CBIPAUFunction@@@std@@PAX@std@@@std@@@std@@SGXAAV?$allocator@U?$_Tree_node@U?$pair@$$CBIPAUFunction@@@std@@PAX@std@@@1@PAU?$pair@$$CBIPAUFunction@@@1@@Z 100074b0 f i aFont.obj
 0001:000064f0       ??$destroy@U?$pair@$$CBIPAX@std@@@?$_Wrap_alloc@V?$allocator@U?$_Tree_node@U?$pair@$$CBIPAX@std@@PAX@std@@@std@@@std@@QAEXPAU?$pair@$$CBIPAX@1@@Z 100074f0 f i aFont.obj
 0001:00006540       ??$destroy@U?$pair@$$CBIPAX@std@@@?$allocator@U?$_Tree_node@U?$pair@$$CBIPAX@std@@PAX@std@@@std@@QAEXPAU?$pair@$$CBIPAX@1@@Z 10007540 f i aFont.obj
 0001:00006570       ??$destroy@U?$pair@$$CBIPAX@std@@@?$allocator_traits@V?$allocator@U?$_Tree_node@U?$pair@$$CBIPAX@std@@PAX@std@@@std@@@std@@SGXAAV?$allocator@U?$_Tree_node@U?$pair@$$CBIPAX@std@@PAX@std@@@1@PAU?$pair@$$CBIPAX@1@@Z 10007570 f i aFont.obj
 0001:000065b0       ??$destroy@U_Container_proxy@std@@@?$_Wrap_alloc@V?$allocator@U_Container_proxy@std@@@std@@@std@@QAEXPAU_Container_proxy@1@@Z 100075b0 f i aFont.obj
 0001:00006600       ??$destroy@U_Container_proxy@std@@@?$allocator@U_Container_proxy@std@@@std@@QAEXPAU_Container_proxy@1@@Z 10007600 f i aFont.obj
 0001:00006630       ??$destroy@U_Container_proxy@std@@@?$allocator_traits@V?$allocator@U_Container_proxy@std@@@std@@@std@@SGXAAV?$allocator@U_Container_proxy@std@@@1@PAU_Container_proxy@1@@Z 10007630 f i aFont.obj
 0001:00006670       ??$forward@AAPAD@std@@YGAAPADAAPAD@Z 10007670 f i aFont.obj
 0001:000066a0       ??$forward@AAPAU?$_Tree_node@U?$pair@$$CBHPAVFontType@@@std@@PAX@std@@@std@@YGAAPAU?$_Tree_node@U?$pair@$$CBHPAVFontType@@@std@@PAX@0@AAPAU10@@Z 100076a0 f i aFont.obj
 0001:000066d0       ??$forward@AAPAU?$_Tree_node@U?$pair@$$CBIPAUFunction@@@std@@PAX@std@@@std@@YGAAPAU?$_Tree_node@U?$pair@$$CBIPAUFunction@@@std@@PAX@0@AAPAU10@@Z 100076d0 f i aFont.obj
 0001:00006700       ??$forward@AAPAU?$_Tree_node@U?$pair@$$CBIPAX@std@@PAX@std@@@std@@YGAAPAU?$_Tree_node@U?$pair@$$CBIPAX@std@@PAX@0@AAPAU10@@Z 10007700 f i aFont.obj
 0001:00006730       ??$forward@AAU?$pair@$$CBHPAVFontType@@@std@@@std@@YGAAU?$pair@$$CBHPAVFontType@@@0@AAU10@@Z 10007730 f i aFont.obj
 0001:00006760       ??$forward@AAU?$pair@$$CBIPAUFunction@@@std@@@std@@YGAAU?$pair@$$CBIPAUFunction@@@0@AAU10@@Z 10007760 f i aFont.obj
 0001:00006790       ??$forward@AAV?$_Tree_iterator@V?$_Tree_val@U?$_Tree_simple_types@U?$pair@$$CBHPAVFontType@@@std@@@std@@@std@@@std@@@std@@YGAAV?$_Tree_iterator@V?$_Tree_val@U?$_Tree_simple_types@U?$pair@$$CBHPAVFontType@@@std@@@std@@@std@@@0@AAV10@@Z 10007790 f i aFont.obj
 0001:000067c0       ??$forward@AAV?$_Tree_iterator@V?$_Tree_val@U?$_Tree_simple_types@U?$pair@$$CBIPAUFunction@@@std@@@std@@@std@@@std@@@std@@YGAAV?$_Tree_iterator@V?$_Tree_val@U?$_Tree_simple_types@U?$pair@$$CBIPAUFunction@@@std@@@std@@@std@@@0@AAV10@@Z 100077c0 f i aFont.obj
 0001:000067f0       ??$forward@ABH@std@@YGABHABH@Z 100077f0 f i aFont.obj
 0001:00006820       ??$forward@H@std@@YG$$QAHAAH@Z 10007820 f i aFont.obj
 0001:00006850       ??$forward@I@std@@YG$$QAIAAI@Z 10007850 f i aFont.obj
 0001:00006880       ??$forward@PAUFunction@@@std@@YG$$QAPAUFunction@@AAPAU1@@Z 10007880 f i aFont.obj
 0001:000068b0       ??$forward@PAVFontType@@@std@@YG$$QAPAVFontType@@AAPAV1@@Z 100078b0 f i aFont.obj
 0001:000068e0       ??$forward@U?$pair@HPAVFontType@@@std@@@std@@YG$$QAU?$pair@HPAVFontType@@@0@AAU10@@Z 100078e0 f i aFont.obj
 0001:00006910       ??$forward@U?$pair@IPAUFunction@@@std@@@std@@YG$$QAU?$pair@IPAUFunction@@@0@AAU10@@Z 10007910 f i aFont.obj
 0001:00006940       ??$forward@U_Container_proxy@std@@@std@@YG$$QAU_Container_proxy@0@AAU10@@Z 10007940 f i aFont.obj
 0001:00006970       ??$forward@V?$_Tree_iterator@V?$_Tree_val@U?$_Tree_simple_types@U?$pair@$$CBHPAVFontType@@@std@@@std@@@std@@@std@@@std@@YG$$QAV?$_Tree_iterator@V?$_Tree_val@U?$_Tree_simple_types@U?$pair@$$CBHPAVFontType@@@std@@@std@@@std@@@0@AAV10@@Z 10007970 f i aFont.obj
 0001:000069a0       ??$forward@V?$_Tree_iterator@V?$_Tree_val@U?$_Tree_simple_types@U?$pair@$$CBIPAUFunction@@@std@@@std@@@std@@@std@@@std@@YG$$QAV?$_Tree_iterator@V?$_Tree_val@U?$_Tree_simple_types@U?$pair@$$CBIPAUFunction@@@std@@@std@@@std@@@0@AAV10@@Z 100079a0 f i aFont.obj
 0001:000069d0       ??$forward@_N@std@@YG$$QA_NAA_N@Z 100079d0 f i aFont.obj
 0001:00006a00       ??$insert@U?$pair@HPAVFontType@@@std@@@?$_Tree@V?$_Tmap_traits@HPAVFontType@@U?$less@H@std@@V?$allocator@U?$pair@$$CBHPAVFontType@@@std@@@3@$0A@@std@@@std@@QAE?AV?$_Tree_iterator@V?$_Tree_val@U?$_Tree_simple_types@U?$pair@$$CBHPAVFontType@@@std@@@std@@@std@@@1@V?$_Tree_const_iterator@V?$_Tree_val@U?$_Tree_simple_types@U?$pair@$$CBHPAVFontType@@@std@@@std@@@std@@@1@$$QAU?$pair@HPAVFontType@@@1@@Z 10007a00 f i aFont.obj
 0001:00006af0       ??$insert@U?$pair@IPAUFunction@@@std@@@?$_Tree@V?$_Tmap_traits@IPAUFunction@@UFcmp@@V?$allocator@U?$pair@$$CBIPAUFunction@@@std@@@std@@$0A@@std@@@std@@QAE?AV?$_Tree_iterator@V?$_Tree_val@U?$_Tree_simple_types@U?$pair@$$CBIPAUFunction@@@std@@@std@@@std@@@1@V?$_Tree_const_iterator@V?$_Tree_val@U?$_Tree_simple_types@U?$pair@$$CBIPAUFunction@@@std@@@std@@@std@@@1@$$QAU?$pair@IPAUFunction@@@1@@Z 10007af0 f i aFont.obj
 0001:00006be0       ??$move@AAH@std@@YG$$QAHAAH@Z 10007be0 f i aFont.obj
 0001:00006c10       ??$move@AAI@std@@YG$$QAIAAI@Z 10007c10 f i aFont.obj
 0001:00006c40       ??$swap@D@std@@YGXAAD0@Z   10007c40 f i aFont.obj
 0001:00006cd0       ??0?$_Iterator012@Ubidirectional_iterator_tag@std@@U?$pair@$$CBHPAVFontType@@@2@HPBU32@ABU32@U_Iterator_base12@2@@std@@QAE@ABU01@@Z 10007cd0 f i aFont.obj
 0001:00006d20       ??0?$_Iterator012@Ubidirectional_iterator_tag@std@@U?$pair@$$CBHPAVFontType@@@2@HPBU32@ABU32@U_Iterator_base12@2@@std@@QAE@XZ 10007d20 f i aFont.obj
 0001:00006d70       ??0?$_Iterator012@Ubidirectional_iterator_tag@std@@U?$pair@$$CBIPAUFunction@@@2@HPBU32@ABU32@U_Iterator_base12@2@@std@@QAE@ABU01@@Z 10007d70 f i aFont.obj
 0001:00006dc0       ??0?$_Iterator012@Ubidirectional_iterator_tag@std@@U?$pair@$$CBIPAUFunction@@@2@HPBU32@ABU32@U_Iterator_base12@2@@std@@QAE@XZ 10007dc0 f i aFont.obj
 0001:00006e10       ??0?$_Iterator012@Ubidirectional_iterator_tag@std@@U?$pair@$$CBIPAX@2@HPBU32@ABU32@U_Iterator_base12@2@@std@@QAE@ABU01@@Z 10007e10 f i aFont.obj
 0001:00006e60       ??0?$_Iterator012@Ubidirectional_iterator_tag@std@@U?$pair@$$CBIPAX@2@HPBU32@ABU32@U_Iterator_base12@2@@std@@QAE@XZ 10007e60 f i aFont.obj
 0001:00006eb0       ??0?$_String_alloc@$0A@U?$_String_base_types@DV?$allocator@D@std@@@std@@@std@@QAE@ABV?$allocator@D@1@@Z 10007eb0 f i aFont.obj
 0001:00006f40       ??0?$_String_val@U?$_Simple_types@D@std@@@std@@QAE@XZ 10007f40 f i aFont.obj
 0001:00006fa0       ??0?$_Tree@V?$_Tmap_traits@HPAVFontType@@U?$less@H@std@@V?$allocator@U?$pair@$$CBHPAVFontType@@@std@@@3@$0A@@std@@@std@@QAE@ABU?$less@H@1@ABV?$allocator@U?$pair@$$CBHPAVFontType@@@std@@@1@@Z 10007fa0 f i aFont.obj
 0001:00006ff0       ??0?$_Tree@V?$_Tmap_traits@IPAUFunction@@UFcmp@@V?$allocator@U?$pair@$$CBIPAUFunction@@@std@@@std@@$0A@@std@@@std@@QAE@ABUFcmp@@ABV?$allocator@U?$pair@$$CBIPAUFunction@@@std@@@1@@Z 10007ff0 f i aFont.obj
 0001:00007040       ??0?$_Tree@V?$_Tmap_traits@IPAXUVcmp@@V?$allocator@U?$pair@$$CBIPAX@std@@@std@@$0A@@std@@@std@@QAE@ABUVcmp@@ABV?$allocator@U?$pair@$$CBIPAX@std@@@1@@Z 10008040 f i aFont.obj
 0001:00007090       ??0?$_Tree_alloc@$0A@U?$_Tree_base_types@U?$pair@$$CBHPAVFontType@@@std@@V?$allocator@U?$pair@$$CBHPAVFontType@@@std@@@2@@std@@@std@@QAE@ABV?$allocator@U?$pair@$$CBHPAVFontType@@@std@@@1@@Z 10008090 f i aFont.obj
 0001:00007160       ??0?$_Tree_alloc@$0A@U?$_Tree_base_types@U?$pair@$$CBIPAUFunction@@@std@@V?$allocator@U?$pair@$$CBIPAUFunction@@@std@@@2@@std@@@std@@QAE@ABV?$allocator@U?$pair@$$CBIPAUFunction@@@std@@@1@@Z 10008160 f i aFont.obj
 0001:00007230       ??0?$_Tree_alloc@$0A@U?$_Tree_base_types@U?$pair@$$CBIPAX@std@@V?$allocator@U?$pair@$$CBIPAX@std@@@2@@std@@@std@@QAE@ABV?$allocator@U?$pair@$$CBIPAX@std@@@1@@Z 10008230 f i aFont.obj
 0001:00007300       ??0?$_Tree_buy@U?$pair@$$CBHPAVFontType@@@std@@V?$allocator@U?$pair@$$CBHPAVFontType@@@std@@@2@@std@@QAE@ABV?$allocator@U?$pair@$$CBHPAVFontType@@@std@@@1@@Z 10008300 f i aFont.obj
 0001:00007350       ??0?$_Tree_buy@U?$pair@$$CBIPAUFunction@@@std@@V?$allocator@U?$pair@$$CBIPAUFunction@@@std@@@2@@std@@QAE@ABV?$allocator@U?$pair@$$CBIPAUFunction@@@std@@@1@@Z 10008350 f i aFont.obj
 0001:000073a0       ??0?$_Tree_buy@U?$pair@$$CBIPAX@std@@V?$allocator@U?$pair@$$CBIPAX@std@@@2@@std@@QAE@ABV?$allocator@U?$pair@$$CBIPAX@std@@@1@@Z 100083a0 f i aFont.obj
 0001:000073f0       ??0?$_Tree_comp@$0A@V?$_Tmap_traits@HPAVFontType@@U?$less@H@std@@V?$allocator@U?$pair@$$CBHPAVFontType@@@std@@@3@$0A@@std@@@std@@QAE@ABU?$less@H@1@ABV?$allocator@U?$pair@$$CBHPAVFontType@@@std@@@1@@Z 100083f0 f i aFont.obj
 0001:00007440       ??0?$_Tree_comp@$0A@V?$_Tmap_traits@IPAUFunction@@UFcmp@@V?$allocator@U?$pair@$$CBIPAUFunction@@@std@@@std@@$0A@@std@@@std@@QAE@ABUFcmp@@ABV?$allocator@U?$pair@$$CBIPAUFunction@@@std@@@1@@Z 10008440 f i aFont.obj
 0001:00007490       ??0?$_Tree_comp@$0A@V?$_Tmap_traits@IPAXUVcmp@@V?$allocator@U?$pair@$$CBIPAX@std@@@std@@$0A@@std@@@std@@QAE@ABUVcmp@@ABV?$allocator@U?$pair@$$CBIPAX@std@@@1@@Z 10008490 f i aFont.obj
 0001:000074e0       ??0?$_Tree_const_iterator@V?$_Tree_val@U?$_Tree_simple_types@U?$pair@$$CBHPAVFontType@@@std@@@std@@@std@@@std@@QAE@ABV01@@Z 100084e0 f i aFont.obj
 0001:00007530       ??0?$_Tree_const_iterator@V?$_Tree_val@U?$_Tree_simple_types@U?$pair@$$CBHPAVFontType@@@std@@@std@@@std@@@std@@QAE@PAU?$_Tree_node@U?$pair@$$CBHPAVFontType@@@std@@PAX@1@PBV?$_Tree_val@U?$_Tree_simple_types@U?$pair@$$CBHPAVFontType@@@std@@@std@@@1@@Z 10008530 f i aFont.obj
 0001:00007580       ??0?$_Tree_const_iterator@V?$_Tree_val@U?$_Tree_simple_types@U?$pair@$$CBHPAVFontType@@@std@@@std@@@std@@@std@@QAE@XZ 10008580 f i aFont.obj
 0001:000075d0       ??0?$_Tree_const_iterator@V?$_Tree_val@U?$_Tree_simple_types@U?$pair@$$CBIPAUFunction@@@std@@@std@@@std@@@std@@QAE@ABV01@@Z 100085d0 f i aFont.obj
 0001:00007620       ??0?$_Tree_const_iterator@V?$_Tree_val@U?$_Tree_simple_types@U?$pair@$$CBIPAUFunction@@@std@@@std@@@std@@@std@@QAE@PAU?$_Tree_node@U?$pair@$$CBIPAUFunction@@@std@@PAX@1@PBV?$_Tree_val@U?$_Tree_simple_types@U?$pair@$$CBIPAUFunction@@@std@@@std@@@1@@Z 10008620 f i aFont.obj
 0001:00007670       ??0?$_Tree_const_iterator@V?$_Tree_val@U?$_Tree_simple_types@U?$pair@$$CBIPAUFunction@@@std@@@std@@@std@@@std@@QAE@XZ 10008670 f i aFont.obj
 0001:000076c0       ??0?$_Tree_const_iterator@V?$_Tree_val@U?$_Tree_simple_types@U?$pair@$$CBIPAX@std@@@std@@@std@@@std@@QAE@ABV01@@Z 100086c0 f i aFont.obj
 0001:00007710       ??0?$_Tree_const_iterator@V?$_Tree_val@U?$_Tree_simple_types@U?$pair@$$CBIPAX@std@@@std@@@std@@@std@@QAE@PAU?$_Tree_node@U?$pair@$$CBIPAX@std@@PAX@1@PBV?$_Tree_val@U?$_Tree_simple_types@U?$pair@$$CBIPAX@std@@@std@@@1@@Z 10008710 f i aFont.obj
 0001:00007760       ??0?$_Tree_iterator@V?$_Tree_val@U?$_Tree_simple_types@U?$pair@$$CBHPAVFontType@@@std@@@std@@@std@@@std@@QAE@ABV01@@Z 10008760 f i aFont.obj
 0001:000077b0       ??0?$_Tree_iterator@V?$_Tree_val@U?$_Tree_simple_types@U?$pair@$$CBHPAVFontType@@@std@@@std@@@std@@@std@@QAE@PAU?$_Tree_node@U?$pair@$$CBHPAVFontType@@@std@@PAX@1@PBV?$_Tree_val@U?$_Tree_simple_types@U?$pair@$$CBHPAVFontType@@@std@@@std@@@1@@Z 100087b0 f i aFont.obj
 0001:00007800       ??0?$_Tree_iterator@V?$_Tree_val@U?$_Tree_simple_types@U?$pair@$$CBIPAUFunction@@@std@@@std@@@std@@@std@@QAE@ABV01@@Z 10008800 f i aFont.obj
 0001:00007850       ??0?$_Tree_iterator@V?$_Tree_val@U?$_Tree_simple_types@U?$pair@$$CBIPAUFunction@@@std@@@std@@@std@@@std@@QAE@PAU?$_Tree_node@U?$pair@$$CBIPAUFunction@@@std@@PAX@1@PBV?$_Tree_val@U?$_Tree_simple_types@U?$pair@$$CBIPAUFunction@@@std@@@std@@@1@@Z 10008850 f i aFont.obj
 0001:000078a0       ??0?$_Tree_iterator@V?$_Tree_val@U?$_Tree_simple_types@U?$pair@$$CBIPAX@std@@@std@@@std@@@std@@QAE@PAU?$_Tree_node@U?$pair@$$CBIPAX@std@@PAX@1@PBV?$_Tree_val@U?$_Tree_simple_types@U?$pair@$$CBIPAX@std@@@std@@@1@@Z 100088a0 f i aFont.obj
 0001:000078f0       ??0?$_Tree_unchecked_const_iterator@V?$_Tree_val@U?$_Tree_simple_types@U?$pair@$$CBHPAVFontType@@@std@@@std@@@std@@U_Iterator_base12@2@@std@@QAE@ABV01@@Z 100088f0 f i aFont.obj
 0001:00007950       ??0?$_Tree_unchecked_const_iterator@V?$_Tree_val@U?$_Tree_simple_types@U?$pair@$$CBHPAVFontType@@@std@@@std@@@std@@U_Iterator_base12@2@@std@@QAE@PAU?$_Tree_node@U?$pair@$$CBHPAVFontType@@@std@@PAX@1@PBV?$_Tree_val@U?$_Tree_simple_types@U?$pair@$$CBHPAVFontType@@@std@@@std@@@1@@Z 10008950 f i aFont.obj
 0001:000079f0       ??0?$_Tree_unchecked_const_iterator@V?$_Tree_val@U?$_Tree_simple_types@U?$pair@$$CBHPAVFontType@@@std@@@std@@@std@@U_Iterator_base12@2@@std@@QAE@XZ 100089f0 f i aFont.obj
 0001:00007a40       ??0?$_Tree_unchecked_const_iterator@V?$_Tree_val@U?$_Tree_simple_types@U?$pair@$$CBIPAUFunction@@@std@@@std@@@std@@U_Iterator_base12@2@@std@@QAE@ABV01@@Z 10008a40 f i aFont.obj
 0001:00007aa0       ??0?$_Tree_unchecked_const_iterator@V?$_Tree_val@U?$_Tree_simple_types@U?$pair@$$CBIPAUFunction@@@std@@@std@@@std@@U_Iterator_base12@2@@std@@QAE@PAU?$_Tree_node@U?$pair@$$CBIPAUFunction@@@std@@PAX@1@PBV?$_Tree_val@U?$_Tree_simple_types@U?$pair@$$CBIPAUFunction@@@std@@@std@@@1@@Z 10008aa0 f i aFont.obj
 0001:00007b40       ??0?$_Tree_unchecked_const_iterator@V?$_Tree_val@U?$_Tree_simple_types@U?$pair@$$CBIPAUFunction@@@std@@@std@@@std@@U_Iterator_base12@2@@std@@QAE@XZ 10008b40 f i aFont.obj
 0001:00007b90       ??0?$_Tree_unchecked_const_iterator@V?$_Tree_val@U?$_Tree_simple_types@U?$pair@$$CBIPAX@std@@@std@@@std@@U_Iterator_base12@2@@std@@QAE@ABV01@@Z 10008b90 f i aFont.obj
 0001:00007bf0       ??0?$_Tree_unchecked_const_iterator@V?$_Tree_val@U?$_Tree_simple_types@U?$pair@$$CBIPAX@std@@@std@@@std@@U_Iterator_base12@2@@std@@QAE@PAU?$_Tree_node@U?$pair@$$CBIPAX@std@@PAX@1@PBV?$_Tree_val@U?$_Tree_simple_types@U?$pair@$$CBIPAX@std@@@std@@@1@@Z 10008bf0 f i aFont.obj
 0001:00007c90       ??0?$_Tree_val@U?$_Tree_simple_types@U?$pair@$$CBHPAVFontType@@@std@@@std@@@std@@QAE@XZ 10008c90 f i aFont.obj
 0001:00007cf0       ??0?$_Tree_val@U?$_Tree_simple_types@U?$pair@$$CBIPAUFunction@@@std@@@std@@@std@@QAE@XZ 10008cf0 f i aFont.obj
 0001:00007d50       ??0?$_Tree_val@U?$_Tree_simple_types@U?$pair@$$CBIPAX@std@@@std@@@std@@QAE@XZ 10008d50 f i aFont.obj
 0001:00007db0       ??0?$_Wrap_alloc@V?$allocator@D@std@@@std@@QAE@XZ 10008db0 f i aFont.obj
 0001:00007e00       ??0?$_Wrap_alloc@V?$allocator@U?$_Tree_node@U?$pair@$$CBHPAVFontType@@@std@@PAX@std@@@std@@@std@@QAE@XZ 10008e00 f i aFont.obj
 0001:00007e50       ??0?$_Wrap_alloc@V?$allocator@U?$_Tree_node@U?$pair@$$CBIPAUFunction@@@std@@PAX@std@@@std@@@std@@QAE@XZ 10008e50 f i aFont.obj
 0001:00007ea0       ??0?$_Wrap_alloc@V?$allocator@U?$_Tree_node@U?$pair@$$CBIPAX@std@@PAX@std@@@std@@@std@@QAE@XZ 10008ea0 f i aFont.obj
 0001:00007ef0       ??0?$allocator@D@std@@QAE@XZ 10008ef0 f i aFont.obj
 0001:00007f20       ??0?$allocator@U?$_Tree_node@U?$pair@$$CBHPAVFontType@@@std@@PAX@std@@@std@@QAE@XZ 10008f20 f i aFont.obj
 0001:00007f50       ??0?$allocator@U?$_Tree_node@U?$pair@$$CBIPAUFunction@@@std@@PAX@std@@@std@@QAE@XZ 10008f50 f i aFont.obj
 0001:00007f80       ??0?$allocator@U?$_Tree_node@U?$pair@$$CBIPAX@std@@PAX@std@@@std@@QAE@XZ 10008f80 f i aFont.obj
 0001:00007fb0       ??0?$allocator@U?$pair@$$CBHPAVFontType@@@std@@@std@@QAE@XZ 10008fb0 f i aFont.obj
 0001:00007fe0       ??0?$allocator@U?$pair@$$CBIPAUFunction@@@std@@@std@@QAE@XZ 10008fe0 f i aFont.obj
 0001:00008010       ??0?$allocator@U?$pair@$$CBIPAX@std@@@std@@QAE@XZ 10009010 f i aFont.obj
 0001:00008040       ??0?$allocator@U_Container_proxy@std@@@std@@QAE@XZ 10009040 f i aFont.obj
 0001:00008070       ??0?$basic_string@DU?$char_traits@D@std@@V?$allocator@D@2@@std@@QAE@PBD@Z 10009070 f i aFont.obj
 0001:00008110       ??0?$map@HPAVFontType@@U?$less@H@std@@V?$allocator@U?$pair@$$CBHPAVFontType@@@std@@@3@@std@@QAE@XZ 10009110 f i aFont.obj
 0001:00008170       ??0?$map@IPAUFunction@@UFcmp@@V?$allocator@U?$pair@$$CBIPAUFunction@@@std@@@std@@@std@@QAE@XZ 10009170 f i aFont.obj
 0001:000081d0       ??0?$map@IPAXUVcmp@@V?$allocator@U?$pair@$$CBIPAX@std@@@std@@@std@@QAE@XZ 100091d0 f i aFont.obj
 0001:00008230       ??0ApolloClass@@QAE@XZ     10009230 f i aFont.obj
 0001:000082e0       ??0BaseClass@Comm@@QAE@XZ  100092e0 f i aFont.obj
 0001:00008390       ??0BinClass@Data@@QAE@I@Z  10009390 f i aFont.obj
 0001:00008460       ??0FileClass@File@@QAE@XZ  10009460 f i aFont.obj
 0001:00008520       ??0FontType@@QAE@XZ        10009520 f i aFont.obj
 0001:000085b0       ??0Function@@QAE@XZ        100095b0 f i aFont.obj
 0001:00008600       ??0ModIdClass@CRC@@QAE@XZ  10009600 f i aFont.obj
 0001:000086b0       ??0PackClass@Packet@@QAE@XZ 100096b0 f i aFont.obj
 0001:00008760       ??0StringClass@CRC@@QAE@PAD@Z 10009760 f i aFont.obj
 0001:00008810       ??0StringClass@CRC@@QAE@XZ 10009810 f i aFont.obj
 0001:000088a0       ??0StringClass@Data@@QAE@XZ 100098a0 f i aFont.obj
 0001:000088f0       ??0TimeClass@CRC@@QAE@XZ   100098f0 f i aFont.obj
 0001:00008940       ??0_Container_base12@std@@QAE@XZ 10009940 f i aFont.obj
 0001:00008980       ??0_Container_proxy@std@@QAE@XZ 10009980 f i aFont.obj
 0001:000089c0       ??0_Generic_error_category@std@@QAE@XZ 100099c0 f i aFont.obj
 0001:00008a10       ??0_Iostream_error_category@std@@QAE@XZ 10009a10 f i aFont.obj
 0001:00008a60       ??0_Iterator_base12@std@@QAE@ABU01@@Z 10009a60 f i aFont.obj
 0001:00008ac0       ??0_Iterator_base12@std@@QAE@XZ 10009ac0 f i aFont.obj
 0001:00008b00       ??0_System_error_category@std@@QAE@XZ 10009b00 f i aFont.obj
 0001:00008b50       ??0error_category@std@@QAE@XZ 10009b50 f i aFont.obj
 0001:00008b90       ??0error_condition@std@@QAE@HABVerror_category@1@@Z 10009b90 f i aFont.obj
 0001:00008bd0       ??0id@locale@std@@QAE@I@Z  10009bd0 f i aFont.obj
 0001:00008c10       ??1?$_Iterator012@Ubidirectional_iterator_tag@std@@U?$pair@$$CBHPAVFontType@@@2@HPBU32@ABU32@U_Iterator_base12@2@@std@@QAE@XZ 10009c10 f i aFont.obj
 0001:00008c50       ??1?$_Iterator012@Ubidirectional_iterator_tag@std@@U?$pair@$$CBIPAUFunction@@@2@HPBU32@ABU32@U_Iterator_base12@2@@std@@QAE@XZ 10009c50 f i aFont.obj
 0001:00008c90       ??1?$_Iterator012@Ubidirectional_iterator_tag@std@@U?$pair@$$CBIPAX@2@HPBU32@ABU32@U_Iterator_base12@2@@std@@QAE@XZ 10009c90 f i aFont.obj
 0001:00008cd0       ??1?$_String_alloc@$0A@U?$_String_base_types@DV?$allocator@D@std@@@std@@@std@@QAE@XZ 10009cd0 f i aFont.obj
 0001:00008d20       ??1?$_String_val@U?$_Simple_types@D@std@@@std@@QAE@XZ 10009d20 f i aFont.obj
 0001:00008d60       ??1?$_Tree@V?$_Tmap_traits@HPAVFontType@@U?$less@H@std@@V?$allocator@U?$pair@$$CBHPAVFontType@@@std@@@3@$0A@@std@@@std@@QAE@XZ 10009d60 f i aFont.obj
 0001:00008db0       ??1?$_Tree@V?$_Tmap_traits@IPAUFunction@@UFcmp@@V?$allocator@U?$pair@$$CBIPAUFunction@@@std@@@std@@$0A@@std@@@std@@QAE@XZ 10009db0 f i aFont.obj
 0001:00008e00       ??1?$_Tree@V?$_Tmap_traits@IPAXUVcmp@@V?$allocator@U?$pair@$$CBIPAX@std@@@std@@$0A@@std@@@std@@QAE@XZ 10009e00 f i aFont.obj
 0001:00008e50       ??1?$_Tree_alloc@$0A@U?$_Tree_base_types@U?$pair@$$CBHPAVFontType@@@std@@V?$allocator@U?$pair@$$CBHPAVFontType@@@std@@@2@@std@@@std@@QAE@XZ 10009e50 f i aFont.obj
 0001:00008eb0       ??1?$_Tree_alloc@$0A@U?$_Tree_base_types@U?$pair@$$CBIPAUFunction@@@std@@V?$allocator@U?$pair@$$CBIPAUFunction@@@std@@@2@@std@@@std@@QAE@XZ 10009eb0 f i aFont.obj
 0001:00008f10       ??1?$_Tree_alloc@$0A@U?$_Tree_base_types@U?$pair@$$CBIPAX@std@@V?$allocator@U?$pair@$$CBIPAX@std@@@2@@std@@@std@@QAE@XZ 10009f10 f i aFont.obj
 0001:00008f70       ??1?$_Tree_buy@U?$pair@$$CBHPAVFontType@@@std@@V?$allocator@U?$pair@$$CBHPAVFontType@@@std@@@2@@std@@QAE@XZ 10009f70 f i aFont.obj
 0001:00008fb0       ??1?$_Tree_buy@U?$pair@$$CBIPAUFunction@@@std@@V?$allocator@U?$pair@$$CBIPAUFunction@@@std@@@2@@std@@QAE@XZ 10009fb0 f i aFont.obj
 0001:00008ff0       ??1?$_Tree_buy@U?$pair@$$CBIPAX@std@@V?$allocator@U?$pair@$$CBIPAX@std@@@2@@std@@QAE@XZ 10009ff0 f i aFont.obj
 0001:00009030       ??1?$_Tree_comp@$0A@V?$_Tmap_traits@HPAVFontType@@U?$less@H@std@@V?$allocator@U?$pair@$$CBHPAVFontType@@@std@@@3@$0A@@std@@@std@@QAE@XZ 1000a030 f i aFont.obj
 0001:00009070       ??1?$_Tree_comp@$0A@V?$_Tmap_traits@IPAUFunction@@UFcmp@@V?$allocator@U?$pair@$$CBIPAUFunction@@@std@@@std@@$0A@@std@@@std@@QAE@XZ 1000a070 f i aFont.obj
 0001:000090b0       ??1?$_Tree_comp@$0A@V?$_Tmap_traits@IPAXUVcmp@@V?$allocator@U?$pair@$$CBIPAX@std@@@std@@$0A@@std@@@std@@QAE@XZ 1000a0b0 f i aFont.obj
 0001:000090f0       ??1?$_Tree_const_iterator@V?$_Tree_val@U?$_Tree_simple_types@U?$pair@$$CBHPAVFontType@@@std@@@std@@@std@@@std@@QAE@XZ 1000a0f0 f i aFont.obj
 0001:00009130       ??1?$_Tree_const_iterator@V?$_Tree_val@U?$_Tree_simple_types@U?$pair@$$CBIPAUFunction@@@std@@@std@@@std@@@std@@QAE@XZ 1000a130 f i aFont.obj
 0001:00009170       ??1?$_Tree_const_iterator@V?$_Tree_val@U?$_Tree_simple_types@U?$pair@$$CBIPAX@std@@@std@@@std@@@std@@QAE@XZ 1000a170 f i aFont.obj
 0001:000091b0       ??1?$_Tree_iterator@V?$_Tree_val@U?$_Tree_simple_types@U?$pair@$$CBHPAVFontType@@@std@@@std@@@std@@@std@@QAE@XZ 1000a1b0 f i aFont.obj
 0001:000091f0       ??1?$_Tree_iterator@V?$_Tree_val@U?$_Tree_simple_types@U?$pair@$$CBIPAUFunction@@@std@@@std@@@std@@@std@@QAE@XZ 1000a1f0 f i aFont.obj
 0001:00009230       ??1?$_Tree_iterator@V?$_Tree_val@U?$_Tree_simple_types@U?$pair@$$CBIPAX@std@@@std@@@std@@@std@@QAE@XZ 1000a230 f i aFont.obj
 0001:00009270       ??1?$_Tree_unchecked_const_iterator@V?$_Tree_val@U?$_Tree_simple_types@U?$pair@$$CBHPAVFontType@@@std@@@std@@@std@@U_Iterator_base12@2@@std@@QAE@XZ 1000a270 f i aFont.obj
 0001:000092b0       ??1?$_Tree_unchecked_const_iterator@V?$_Tree_val@U?$_Tree_simple_types@U?$pair@$$CBIPAUFunction@@@std@@@std@@@std@@U_Iterator_base12@2@@std@@QAE@XZ 1000a2b0 f i aFont.obj
 0001:000092f0       ??1?$_Tree_unchecked_const_iterator@V?$_Tree_val@U?$_Tree_simple_types@U?$pair@$$CBIPAX@std@@@std@@@std@@U_Iterator_base12@2@@std@@QAE@XZ 1000a2f0 f i aFont.obj
 0001:00009330       ??1?$_Tree_val@U?$_Tree_simple_types@U?$pair@$$CBHPAVFontType@@@std@@@std@@@std@@QAE@XZ 1000a330 f i aFont.obj
 0001:00009370       ??1?$_Tree_val@U?$_Tree_simple_types@U?$pair@$$CBIPAUFunction@@@std@@@std@@@std@@QAE@XZ 1000a370 f i aFont.obj
 0001:000093b0       ??1?$_Tree_val@U?$_Tree_simple_types@U?$pair@$$CBIPAX@std@@@std@@@std@@QAE@XZ 1000a3b0 f i aFont.obj
 0001:000093f0       ??1?$map@HPAVFontType@@U?$less@H@std@@V?$allocator@U?$pair@$$CBHPAVFontType@@@std@@@3@@std@@QAE@XZ 1000a3f0 f i aFont.obj
 0001:00009430       ??1?$map@IPAUFunction@@UFcmp@@V?$allocator@U?$pair@$$CBIPAUFunction@@@std@@@std@@@std@@QAE@XZ 1000a430 f i aFont.obj
 0001:00009470       ??1?$map@IPAXUVcmp@@V?$allocator@U?$pair@$$CBIPAX@std@@@std@@@std@@QAE@XZ 1000a470 f i aFont.obj
 0001:000094b0       ??1?$pair@V?$_Tree_iterator@V?$_Tree_val@U?$_Tree_simple_types@U?$pair@$$CBHPAVFontType@@@std@@@std@@@std@@@std@@_N@std@@QAE@XZ 1000a4b0 f i aFont.obj
 0001:000094f0       ??1?$pair@V?$_Tree_iterator@V?$_Tree_val@U?$_Tree_simple_types@U?$pair@$$CBIPAUFunction@@@std@@@std@@@std@@@std@@_N@std@@QAE@XZ 1000a4f0 f i aFont.obj
 0001:00009530       ??1ApolloClass@@QAE@XZ     1000a530 f i aFont.obj
 0001:000095e0       ??1BaseClass@Comm@@QAE@XZ  1000a5e0 f i aFont.obj
 0001:00009690       ??1BinClass@Data@@QAE@XZ   1000a690 f i aFont.obj
 0001:00009700       ??1FileClass@File@@QAE@XZ  1000a700 f i aFont.obj
 0001:000097b0       ??1FontType@@QAE@XZ        1000a7b0 f i aFont.obj
 0001:00009840       ??1Function@@QAE@XZ        1000a840 f i aFont.obj
 0001:00009880       ??1ModIdClass@CRC@@QAE@XZ  1000a880 f i aFont.obj
 0001:00009930       ??1PackClass@Packet@@QAE@XZ 1000a930 f i aFont.obj
 0001:000099d0       ??1StringClass@CRC@@QAE@XZ 1000a9d0 f i aFont.obj
 0001:00009a20       ??1StringClass@Data@@QAE@XZ 1000aa20 f i aFont.obj
 0001:00009a50       ??1TimeClass@CRC@@QAE@XZ   1000aa50 f i aFont.obj
 0001:00009a80       ??1_Container_base12@std@@QAE@XZ 1000aa80 f i aFont.obj
 0001:00009ac0       ??1_Generic_error_category@std@@UAE@XZ 1000aac0 f i aFont.obj
 0001:00009b00       ??1_Iostream_error_category@std@@UAE@XZ 1000ab00 f i aFont.obj
 0001:00009b40       ??1_Iterator_base12@std@@QAE@XZ 1000ab40 f i aFont.obj
 0001:00009bc0       ??1_System_error_category@std@@UAE@XZ 1000abc0 f i aFont.obj
 0001:00009c00       ??1error_category@std@@UAE@XZ 1000ac00 f i aFont.obj
 0001:00009c40       ??2@YAPAXIPAX@Z            1000ac40 f i aFont.obj
 0001:00009c70       ??3@YAXPAX0@Z              1000ac70 f i aFont.obj
 0001:00009ca0       ??4?$_Iterator012@Ubidirectional_iterator_tag@std@@U?$pair@$$CBHPAVFontType@@@2@HPBU32@ABU32@U_Iterator_base12@2@@std@@QAEAAU01@ABU01@@Z 1000aca0 f i aFont.obj
 0001:00009cf0       ??4?$_Iterator012@Ubidirectional_iterator_tag@std@@U?$pair@$$CBIPAUFunction@@@2@HPBU32@ABU32@U_Iterator_base12@2@@std@@QAEAAU01@ABU01@@Z 1000acf0 f i aFont.obj
 0001:00009d40       ??4?$_Tree_const_iterator@V?$_Tree_val@U?$_Tree_simple_types@U?$pair@$$CBHPAVFontType@@@std@@@std@@@std@@@std@@QAEAAV01@ABV01@@Z 1000ad40 f i aFont.obj
 0001:00009d90       ??4?$_Tree_const_iterator@V?$_Tree_val@U?$_Tree_simple_types@U?$pair@$$CBIPAUFunction@@@std@@@std@@@std@@@std@@QAEAAV01@ABV01@@Z 1000ad90 f i aFont.obj
 0001:00009de0       ??4?$_Tree_iterator@V?$_Tree_val@U?$_Tree_simple_types@U?$pair@$$CBHPAVFontType@@@std@@@std@@@std@@@std@@QAEAAV01@ABV01@@Z 1000ade0 f i aFont.obj
 0001:00009e30       ??4?$_Tree_iterator@V?$_Tree_val@U?$_Tree_simple_types@U?$pair@$$CBIPAUFunction@@@std@@@std@@@std@@@std@@QAEAAV01@ABV01@@Z 1000ae30 f i aFont.obj
 0001:00009e80       ??4?$_Tree_unchecked_const_iterator@V?$_Tree_val@U?$_Tree_simple_types@U?$pair@$$CBHPAVFontType@@@std@@@std@@@std@@U_Iterator_base12@2@@std@@QAEAAV01@ABV01@@Z 1000ae80 f i aFont.obj
 0001:00009ee0       ??4?$_Tree_unchecked_const_iterator@V?$_Tree_val@U?$_Tree_simple_types@U?$pair@$$CBIPAUFunction@@@std@@@std@@@std@@U_Iterator_base12@2@@std@@QAEAAV01@ABV01@@Z 1000aee0 f i aFont.obj
 0001:00009f40       ??4StringClass@CRC@@QAEXPAD@Z 1000af40 f i aFont.obj
 0001:00009f90       ??4StringClass@CRC@@QAEXPBD@Z 1000af90 f i aFont.obj
 0001:00009fe0       ??4StringClass@Data@@QAEXPBD@Z 1000afe0 f i aFont.obj
 0001:0000a030       ??4_Iterator_base12@std@@QAEAAU01@ABU01@@Z 1000b030 f i aFont.obj
 0001:0000a120       ??5FileClass@File@@QAEXPAVBinClass@Data@@@Z 1000b120 f i aFont.obj
 0001:0000a170       ??6ModIdClass@CRC@@QAEXPBD@Z 1000b170 f i aFont.obj
 0001:0000a1c0       ??6StringClass@CRC@@QAEXPAD@Z 1000b1c0 f i aFont.obj
 0001:0000a210       ??6StringClass@CRC@@QAEXPBD@Z 1000b210 f i aFont.obj
 0001:0000a260       ??6StringClass@Data@@QAEXPBD@Z 1000b260 f i aFont.obj
 0001:0000a2e0       ??8?$_Tree_const_iterator@V?$_Tree_val@U?$_Tree_simple_types@U?$pair@$$CBHPAVFontType@@@std@@@std@@@std@@@std@@QBE_NABV01@@Z 1000b2e0 f i aFont.obj
 0001:0000a3d0       ??8?$_Tree_const_iterator@V?$_Tree_val@U?$_Tree_simple_types@U?$pair@$$CBIPAUFunction@@@std@@@std@@@std@@@std@@QBE_NABV01@@Z 1000b3d0 f i aFont.obj
 0001:0000a4c0       ??8?$_Tree_const_iterator@V?$_Tree_val@U?$_Tree_simple_types@U?$pair@$$CBIPAX@std@@@std@@@std@@@std@@QBE_NABV01@@Z 1000b4c0 f i aFont.obj
 0001:0000a5b0       ??8error_category@std@@QBE_NABV01@@Z 1000b5b0 f i aFont.obj
 0001:0000a600       ??8error_condition@std@@QBE_NABV01@@Z 1000b600 f i aFont.obj
 0001:0000a690       ??9?$_Tree_const_iterator@V?$_Tree_val@U?$_Tree_simple_types@U?$pair@$$CBHPAVFontType@@@std@@@std@@@std@@@std@@QBE_NABV01@@Z 1000b690 f i aFont.obj
 0001:0000a700       ??9?$_Tree_const_iterator@V?$_Tree_val@U?$_Tree_simple_types@U?$pair@$$CBIPAUFunction@@@std@@@std@@@std@@@std@@QBE_NABV01@@Z 1000b700 f i aFont.obj
 0001:0000a770       ??9?$_Tree_const_iterator@V?$_Tree_val@U?$_Tree_simple_types@U?$pair@$$CBIPAX@std@@@std@@@std@@@std@@QBE_NABV01@@Z 1000b770 f i aFont.obj
 0001:0000a7e0       ??A?$map@HPAVFontType@@U?$less@H@std@@V?$allocator@U?$pair@$$CBHPAVFontType@@@std@@@3@@std@@QAEAAPAVFontType@@$$QAH@Z 1000b7e0 f i aFont.obj
 0001:0000aa20       ??A?$map@HPAVFontType@@U?$less@H@std@@V?$allocator@U?$pair@$$CBHPAVFontType@@@std@@@3@@std@@QAEAAPAVFontType@@ABH@Z 1000ba20 f i aFont.obj
 0001:0000ac50       ??A?$map@IPAUFunction@@UFcmp@@V?$allocator@U?$pair@$$CBIPAUFunction@@@std@@@std@@@std@@QAEAAPAUFunction@@$$QAI@Z 1000bc50 f i aFont.obj
 0001:0000aea0       ??C?$_Tree_iterator@V?$_Tree_val@U?$_Tree_simple_types@U?$pair@$$CBHPAVFontType@@@std@@@std@@@std@@@std@@QBEPAU?$pair@$$CBHPAVFontType@@@1@XZ 1000bea0 f i aFont.obj
 0001:0000aef0       ??C?$_Tree_iterator@V?$_Tree_val@U?$_Tree_simple_types@U?$pair@$$CBIPAUFunction@@@std@@@std@@@std@@@std@@QBEPAU?$pair@$$CBIPAUFunction@@@1@XZ 1000bef0 f i aFont.obj
 0001:0000af40       ??D?$_Tree_const_iterator@V?$_Tree_val@U?$_Tree_simple_types@U?$pair@$$CBHPAVFontType@@@std@@@std@@@std@@@std@@QBEABU?$pair@$$CBHPAVFontType@@@1@XZ 1000bf40 f i aFont.obj
 0001:0000b020       ??D?$_Tree_const_iterator@V?$_Tree_val@U?$_Tree_simple_types@U?$pair@$$CBIPAUFunction@@@std@@@std@@@std@@@std@@QBEABU?$pair@$$CBIPAUFunction@@@1@XZ 1000c020 f i aFont.obj
 0001:0000b100       ??D?$_Tree_iterator@V?$_Tree_val@U?$_Tree_simple_types@U?$pair@$$CBHPAVFontType@@@std@@@std@@@std@@@std@@QBEAAU?$pair@$$CBHPAVFontType@@@1@XZ 1000c100 f i aFont.obj
 0001:0000b140       ??D?$_Tree_iterator@V?$_Tree_val@U?$_Tree_simple_types@U?$pair@$$CBIPAUFunction@@@std@@@std@@@std@@@std@@QBEAAU?$pair@$$CBIPAUFunction@@@1@XZ 1000c140 f i aFont.obj
 0001:0000b180       ??E?$_Tree_const_iterator@V?$_Tree_val@U?$_Tree_simple_types@U?$pair@$$CBHPAVFontType@@@std@@@std@@@std@@@std@@QAE?AV01@H@Z 1000c180 f i aFont.obj
 0001:0000b270       ??E?$_Tree_const_iterator@V?$_Tree_val@U?$_Tree_simple_types@U?$pair@$$CBHPAVFontType@@@std@@@std@@@std@@@std@@QAEAAV01@XZ 1000c270 f i aFont.obj
 0001:0000b350       ??E?$_Tree_const_iterator@V?$_Tree_val@U?$_Tree_simple_types@U?$pair@$$CBIPAUFunction@@@std@@@std@@@std@@@std@@QAE?AV01@H@Z 1000c350 f i aFont.obj
 0001:0000b440       ??E?$_Tree_const_iterator@V?$_Tree_val@U?$_Tree_simple_types@U?$pair@$$CBIPAUFunction@@@std@@@std@@@std@@@std@@QAEAAV01@XZ 1000c440 f i aFont.obj
 0001:0000b520       ??E?$_Tree_const_iterator@V?$_Tree_val@U?$_Tree_simple_types@U?$pair@$$CBIPAX@std@@@std@@@std@@@std@@QAE?AV01@H@Z 1000c520 f i aFont.obj
 0001:0000b610       ??E?$_Tree_const_iterator@V?$_Tree_val@U?$_Tree_simple_types@U?$pair@$$CBIPAX@std@@@std@@@std@@@std@@QAEAAV01@XZ 1000c610 f i aFont.obj
 0001:0000b6f0       ??E?$_Tree_iterator@V?$_Tree_val@U?$_Tree_simple_types@U?$pair@$$CBHPAVFontType@@@std@@@std@@@std@@@std@@QAE?AV01@H@Z 1000c6f0 f i aFont.obj
 0001:0000b7e0       ??E?$_Tree_iterator@V?$_Tree_val@U?$_Tree_simple_types@U?$pair@$$CBHPAVFontType@@@std@@@std@@@std@@@std@@QAEAAV01@XZ 1000c7e0 f i aFont.obj
 0001:0000b830       ??E?$_Tree_unchecked_const_iterator@V?$_Tree_val@U?$_Tree_simple_types@U?$pair@$$CBHPAVFontType@@@std@@@std@@@std@@U_Iterator_base12@2@@std@@QAEAAV01@XZ 1000c830 f i aFont.obj
 0001:0000b900       ??E?$_Tree_unchecked_const_iterator@V?$_Tree_val@U?$_Tree_simple_types@U?$pair@$$CBIPAUFunction@@@std@@@std@@@std@@U_Iterator_base12@2@@std@@QAEAAV01@XZ 1000c900 f i aFont.obj
 0001:0000b9d0       ??E?$_Tree_unchecked_const_iterator@V?$_Tree_val@U?$_Tree_simple_types@U?$pair@$$CBIPAX@std@@@std@@@std@@U_Iterator_base12@2@@std@@QAEAAV01@XZ 1000c9d0 f i aFont.obj
 0001:0000baa0       ??F?$_Tree_const_iterator@V?$_Tree_val@U?$_Tree_simple_types@U?$pair@$$CBHPAVFontType@@@std@@@std@@@std@@@std@@QAEAAV01@XZ 1000caa0 f i aFont.obj
 0001:0000bbe0       ??F?$_Tree_const_iterator@V?$_Tree_val@U?$_Tree_simple_types@U?$pair@$$CBIPAUFunction@@@std@@@std@@@std@@@std@@QAEAAV01@XZ 1000cbe0 f i aFont.obj
 0001:0000bd20       ??F?$_Tree_iterator@V?$_Tree_val@U?$_Tree_simple_types@U?$pair@$$CBHPAVFontType@@@std@@@std@@@std@@@std@@QAEAAV01@XZ 1000cd20 f i aFont.obj
 0001:0000bd70       ??F?$_Tree_iterator@V?$_Tree_val@U?$_Tree_simple_types@U?$pair@$$CBIPAUFunction@@@std@@@std@@@std@@@std@@QAEAAV01@XZ 1000cd70 f i aFont.obj
 0001:0000bdc0       ??F?$_Tree_unchecked_const_iterator@V?$_Tree_val@U?$_Tree_simple_types@U?$pair@$$CBHPAVFontType@@@std@@@std@@@std@@U_Iterator_base12@2@@std@@QAEAAV01@XZ 1000cdc0 f i aFont.obj
 0001:0000bec0       ??F?$_Tree_unchecked_const_iterator@V?$_Tree_val@U?$_Tree_simple_types@U?$pair@$$CBIPAUFunction@@@std@@@std@@@std@@U_Iterator_base12@2@@std@@QAEAAV01@XZ 1000cec0 f i aFont.obj
 0001:0000bfc0       ??HStringClass@Data@@QAE?AV01@PBD@Z 1000cfc0 f i aFont.obj
 0001:0000c0c0       ??R?$less@H@std@@QBE_NABH0@Z 1000d0c0 f i aFont.obj
 0001:0000c120       ??RFcmp@@QBE_NII@Z         1000d120 f i aFont.obj
 0001:0000c170       ??_GFontType@@QAEPAXI@Z    1000d170 f i aFont.obj
 0001:0000c1d0       ??_G_Generic_error_category@std@@UAEPAXI@Z 1000d1d0 f i aFont.obj
 0001:0000c1d0       ??_E_Generic_error_category@std@@UAEPAXI@Z 1000d1d0 f i aFont.obj
 0001:0000c230       ??_E_Iostream_error_category@std@@UAEPAXI@Z 1000d230 f i aFont.obj
 0001:0000c230       ??_G_Iostream_error_category@std@@UAEPAXI@Z 1000d230 f i aFont.obj
 0001:0000c290       ??_G_System_error_category@std@@UAEPAXI@Z 1000d290 f i aFont.obj
 0001:0000c290       ??_E_System_error_category@std@@UAEPAXI@Z 1000d290 f i aFont.obj
 0001:0000c2f0       ??_Gerror_category@std@@UAEPAXI@Z 1000d2f0 f i aFont.obj
 0001:0000c2f0       ??_Eerror_category@std@@UAEPAXI@Z 1000d2f0 f i aFont.obj
 0001:0000c350       ?AddData@BinClass@Data@@QAEXPAEI@Z 1000d350 f i aFont.obj
 0001:0000c3d0       ?AddData@PackClass@Packet@@QAEIPAXI@Z 1000d3d0 f i aFont.obj
 0001:0000c590       ?AddParam@PackClass@Packet@@QAEIH@Z 1000d590 f i aFont.obj
 0001:0000c5f0       ?AddParam@PackClass@Packet@@QAEII@Z 1000d5f0 f i aFont.obj
 0001:0000c650       ?AddParam@PackClass@Packet@@QAEIK@Z 1000d650 f i aFont.obj
 0001:0000c6b0       ?AddParam@PackClass@Packet@@QAEIM@Z 1000d6b0 f i aFont.obj
 0001:0000c710       ?AddParam@PackClass@Packet@@QAEIPBD@Z 1000d710 f i aFont.obj
 0001:0000c780       ?AddString@ModIdClass@CRC@@QAEXPBD@Z 1000d780 f i aFont.obj
 0001:0000c7d0       ?AddString@StringClass@CRC@@QAEXPAD@Z 1000d7d0 f i aFont.obj
 0001:0000c840       ?AddTypeToField@PackClass@Packet@@QAEXI@Z 1000d840 f i aFont.obj
 0001:0000c8f0       ?Build@PackClass@Packet@@QAEXPBD0@Z 1000d8f0 f i aFont.obj
 0001:0000c960       ?BuildFormat@FileClass@File@@AAEXI@Z 1000d960 f i aFont.obj
 0001:0000ca20       ?CalcCrc@TimeClass@CRC@@QAEXXZ 1000da20 f i aFont.obj
 0001:0000cab0       ?CalcStringCRC@StringClass@CRC@@QAEIXZ 1000dab0 f i aFont.obj
 0001:0000cb10       ?Char@StringClass@Data@@QAEDH@Z 1000db10 f i aFont.obj
 0001:0000cb70       ?CheckFree@BinClass@Data@@QAEXI@Z 1000db70 f i aFont.obj
 0001:0000cc50       ?Clear@ModIdClass@CRC@@QAEXXZ 1000dc50 f i aFont.obj
 0001:0000ccb0       ?Clear@PackClass@Packet@@QAEXXZ 1000dcb0 f i aFont.obj
 0001:0000cd40       ?Clear@StringClass@CRC@@QAEXXZ 1000dd40 f i aFont.obj
 0001:0000cd90       ?Clear@StringClass@Data@@QAEXXZ 1000dd90 f i aFont.obj
 0001:0000ce00       ?Close@FileClass@File@@QAEXXZ 1000de00 f i aFont.obj
 0001:0000ceb0       ?DataClear@PackClass@Packet@@QAEXXZ 1000deb0 f i aFont.obj
 0001:0000cf00       ?Empty@StringClass@CRC@@QAEHXZ 1000df00 f i aFont.obj
 0001:0000cf50       ?Empty@StringClass@Data@@QAEHXZ 1000df50 f i aFont.obj
 0001:0000cfb0       ?Find@aFont@@YGXPAVPackClass@Packet@@@Z 1000dfb0 f   aFont.obj
 0001:0000cfe0       ?GetData@BinClass@Data@@QAEPAEI@Z 1000dfe0 f i aFont.obj
 0001:0000d090       ?GetData@BinClass@Data@@QAEPAEXZ 1000e090 f i aFont.obj
 0001:0000d0c0       ?GetData@PackClass@Packet@@QAEPBDPBD@Z 1000e0c0 f i aFont.obj
 0001:0000d160       ?GetDataIndex@PackClass@Packet@@QAEPBDIPBD@Z 1000e160 f i aFont.obj
 0001:0000d1a0       ?GetUsed@BinClass@Data@@QAEHXZ 1000e1a0 f i aFont.obj
 0001:0000d1d0       ?Id@StringClass@CRC@@QAEIXZ 1000e1d0 f i aFont.obj
 0001:0000d200       ?Init@aFont@@YGXPAVPackClass@Packet@@@Z 1000e200 f   aFont.obj
 0001:0000d2e0       ?Int@CRC@@YGII@Z           1000e2e0 f i aFont.obj
 0001:0000d320       ?Kill@aFont@@YGXPAVPackClass@Packet@@@Z 1000e320 f   aFont.obj
 0001:0000d4a0       ?Load@aFont@@YGXPAVPackClass@Packet@@@Z 1000e4a0 f   aFont.obj
 0001:0000d970       ?Lower@StringClass@Data@@QAEXXZ 1000e970 f i aFont.obj
 0001:0000d9d0       ?Open@FileClass@File@@QAEHPBDI@Z 1000e9d0 f i aFont.obj
 0001:0000db50       ?ParamsClear@PackClass@Packet@@QAEXXZ 1000eb50 f i aFont.obj
 0001:0000dba0       ?PreInit@aFont@@YGXXZ      1000eba0 f   aFont.obj
 0001:0000dc90       ?ReadBinFile@FileClass@File@@QAEHPAVBinClass@Data@@@Z 1000ec90 f i aFont.obj
 0001:0000de40       ?RenderChars@aFont@@YGXPAVPackClass@Packet@@@Z 1000ee40 f   aFont.obj
 0001:0000e490       ?RenderLine@aFont@@YGXPAVPackClass@Packet@@@Z 1000f490 f   aFont.obj
 0001:0000e4c0       ?RenderPage@aFont@@YGXPAVPackClass@Packet@@@Z 1000f4c0 f   aFont.obj
 0001:0000e4f0       ?Send@BaseClass@Comm@@QAEXPAVPackClass@Packet@@@Z 1000f4f0 f i aFont.obj
 0001:0000e550       ?Set@aFont@@YGXPAVPackClass@Packet@@@Z 1000f550 f   aFont.obj
 0001:0000e580       ?SetData@StringClass@Data@@QAEXPAD@Z 1000f580 f i aFont.obj
 0001:0000e5e0       ?SetData@StringClass@Data@@QAEXPBD@Z 1000f5e0 f i aFont.obj
 0001:0000e640       ?SetString@StringClass@CRC@@QAEXPAD@Z 1000f640 f i aFont.obj
 0001:0000e6c0       ?Size@StringClass@Data@@QAEHXZ 1000f6c0 f i aFont.obj
 0001:0000e710       ?Str@CRC@@YGIPBD@Z         1000f710 f i aFont.obj
 0001:0000e750       ?String@StringClass@CRC@@QAEPADXZ 1000f750 f i aFont.obj
 0001:0000e7b0       ?String@StringClass@Data@@QAEPBDXZ 1000f7b0 f i aFont.obj
 0001:0000e800       ?SubmitFunction@BaseClass@Comm@@QAEXP6GXPAVPackClass@Packet@@@ZPBD@Z 1000f800 f i aFont.obj
 0001:0000e900       ?Unload@aFont@@YGXPAVPackClass@Packet@@@Z 1000f900 f   aFont.obj
 0001:0000e930       ?Update@ModIdClass@CRC@@QAEXXZ 1000f930 f i aFont.obj
 0001:0000ea40       ?_Adopt@_Iterator_base12@std@@QAEXPBU_Container_base12@2@@Z 1000fa40 f i aFont.obj
 0001:0000eb70       ?_Alloc_proxy@?$_String_alloc@$0A@U?$_String_base_types@DV?$allocator@D@std@@@std@@@std@@QAEXXZ 1000fb70 f i aFont.obj
 0001:0000ec20       ?_Alloc_proxy@?$_Tree_alloc@$0A@U?$_Tree_base_types@U?$pair@$$CBHPAVFontType@@@std@@V?$allocator@U?$pair@$$CBHPAVFontType@@@std@@@2@@std@@@std@@QAEXXZ 1000fc20 f i aFont.obj
 0001:0000ece0       ?_Alloc_proxy@?$_Tree_alloc@$0A@U?$_Tree_base_types@U?$pair@$$CBIPAUFunction@@@std@@V?$allocator@U?$pair@$$CBIPAUFunction@@@std@@@2@@std@@@std@@QAEXXZ 1000fce0 f i aFont.obj
 0001:0000eda0       ?_Alloc_proxy@?$_Tree_alloc@$0A@U?$_Tree_base_types@U?$pair@$$CBIPAX@std@@V?$allocator@U?$pair@$$CBIPAX@std@@@2@@std@@@std@@QAEXXZ 1000fda0 f i aFont.obj
 0001:0000ee60       ?_Buyheadnode@?$_Tree_alloc@$0A@U?$_Tree_base_types@U?$pair@$$CBHPAVFontType@@@std@@V?$allocator@U?$pair@$$CBHPAVFontType@@@std@@@2@@std@@@std@@QAEPAU?$_Tree_node@U?$pair@$$CBHPAVFontType@@@std@@PAX@2@XZ 1000fe60 f i aFont.obj
 0001:0000f030       ?_Buyheadnode@?$_Tree_alloc@$0A@U?$_Tree_base_types@U?$pair@$$CBIPAUFunction@@@std@@V?$allocator@U?$pair@$$CBIPAUFunction@@@std@@@2@@std@@@std@@QAEPAU?$_Tree_node@U?$pair@$$CBIPAUFunction@@@std@@PAX@2@XZ 10010030 f i aFont.obj
 0001:0000f200       ?_Buyheadnode@?$_Tree_alloc@$0A@U?$_Tree_base_types@U?$pair@$$CBIPAX@std@@V?$allocator@U?$pair@$$CBIPAX@std@@@2@@std@@@std@@QAEPAU?$_Tree_node@U?$pair@$$CBIPAX@std@@PAX@2@XZ 10010200 f i aFont.obj
 0001:0000f3d0       ?_Buynode0@?$_Tree_buy@U?$pair@$$CBHPAVFontType@@@std@@V?$allocator@U?$pair@$$CBHPAVFontType@@@std@@@2@@std@@QAEPAU?$_Tree_node@U?$pair@$$CBHPAVFontType@@@std@@PAX@2@XZ 100103d0 f i aFont.obj
 0001:0000f560       ?_Buynode0@?$_Tree_buy@U?$pair@$$CBIPAUFunction@@@std@@V?$allocator@U?$pair@$$CBIPAUFunction@@@std@@@2@@std@@QAEPAU?$_Tree_node@U?$pair@$$CBIPAUFunction@@@std@@PAX@2@XZ 10010560 f i aFont.obj
 0001:0000f6f0       ?_Clrcont@_Iterator_base12@std@@QAEXXZ 100106f0 f i aFont.obj
 0001:0000f730       ?_Color@?$_Tree_val@U?$_Tree_simple_types@U?$pair@$$CBHPAVFontType@@@std@@@std@@@std@@SGAADPAU?$_Tree_node@U?$pair@$$CBHPAVFontType@@@std@@PAX@2@@Z 10010730 f i aFont.obj
 0001:0000f760       ?_Color@?$_Tree_val@U?$_Tree_simple_types@U?$pair@$$CBIPAUFunction@@@std@@@std@@@std@@SGAADPAU?$_Tree_node@U?$pair@$$CBIPAUFunction@@@std@@PAX@2@@Z 10010760 f i aFont.obj
 0001:0000f790       ?_Color@?$_Tree_val@U?$_Tree_simple_types@U?$pair@$$CBIPAX@std@@@std@@@std@@SGAADPAU?$_Tree_node@U?$pair@$$CBIPAX@std@@PAX@2@@Z 10010790 f i aFont.obj
 0001:0000f7c0       ?_Copy@?$basic_string@DU?$char_traits@D@std@@V?$allocator@D@2@@std@@QAEXII@Z 100107c0 f i aFont.obj
 0001:0000f9f0       ?_Destroy_if_not_nil@?$_Tree@V?$_Tmap_traits@HPAVFontType@@U?$less@H@std@@V?$allocator@U?$pair@$$CBHPAVFontType@@@std@@@3@$0A@@std@@@std@@IAEXPAU?$_Tree_node@U?$pair@$$CBHPAVFontType@@@std@@PAX@2@@Z 100109f0 f i aFont.obj
 0001:0000fa70       ?_Destroy_if_not_nil@?$_Tree@V?$_Tmap_traits@IPAUFunction@@UFcmp@@V?$allocator@U?$pair@$$CBIPAUFunction@@@std@@@std@@$0A@@std@@@std@@IAEXPAU?$_Tree_node@U?$pair@$$CBIPAUFunction@@@std@@PAX@2@@Z 10010a70 f i aFont.obj
 0001:0000faf0       ?_Eos@?$basic_string@DU?$char_traits@D@std@@V?$allocator@D@2@@std@@QAEXI@Z 10010af0 f i aFont.obj
 0001:0000fb60       ?_Erase@?$_Tree@V?$_Tmap_traits@HPAVFontType@@U?$less@H@std@@V?$allocator@U?$pair@$$CBHPAVFontType@@@std@@@3@$0A@@std@@@std@@IAEXPAU?$_Tree_node@U?$pair@$$CBHPAVFontType@@@std@@PAX@2@@Z 10010b60 f i aFont.obj
 0001:0000fc20       ?_Erase@?$_Tree@V?$_Tmap_traits@IPAUFunction@@UFcmp@@V?$allocator@U?$pair@$$CBIPAUFunction@@@std@@@std@@$0A@@std@@@std@@IAEXPAU?$_Tree_node@U?$pair@$$CBIPAUFunction@@@std@@PAX@2@@Z 10010c20 f i aFont.obj
 0001:0000fce0       ?_Erase@?$_Tree@V?$_Tmap_traits@IPAXUVcmp@@V?$allocator@U?$pair@$$CBIPAX@std@@@std@@$0A@@std@@@std@@IAEXPAU?$_Tree_node@U?$pair@$$CBIPAX@std@@PAX@2@@Z 10010ce0 f i aFont.obj
 0001:0000fda0       ?_Free_proxy@?$_String_alloc@$0A@U?$_String_base_types@DV?$allocator@D@std@@@std@@@std@@QAEXXZ 10010da0 f i aFont.obj
 0001:0000fe40       ?_Free_proxy@?$_Tree_alloc@$0A@U?$_Tree_base_types@U?$pair@$$CBHPAVFontType@@@std@@V?$allocator@U?$pair@$$CBHPAVFontType@@@std@@@2@@std@@@std@@QAEXXZ 10010e40 f i aFont.obj
 0001:0000fef0       ?_Free_proxy@?$_Tree_alloc@$0A@U?$_Tree_base_types@U?$pair@$$CBIPAUFunction@@@std@@V?$allocator@U?$pair@$$CBIPAUFunction@@@std@@@2@@std@@@std@@QAEXXZ 10010ef0 f i aFont.obj
 0001:0000ffa0       ?_Free_proxy@?$_Tree_alloc@$0A@U?$_Tree_base_types@U?$pair@$$CBIPAX@std@@V?$allocator@U?$pair@$$CBIPAX@std@@@2@@std@@@std@@QAEXXZ 10010fa0 f i aFont.obj
 0001:00010050       ?_Freeheadnode@?$_Tree_alloc@$0A@U?$_Tree_base_types@U?$pair@$$CBHPAVFontType@@@std@@V?$allocator@U?$pair@$$CBHPAVFontType@@@std@@@2@@std@@@std@@QAEXPAU?$_Tree_node@U?$pair@$$CBHPAVFontType@@@std@@PAX@2@@Z 10011050 f i aFont.obj
 0001:00010120       ?_Freeheadnode@?$_Tree_alloc@$0A@U?$_Tree_base_types@U?$pair@$$CBIPAUFunction@@@std@@V?$allocator@U?$pair@$$CBIPAUFunction@@@std@@@2@@std@@@std@@QAEXPAU?$_Tree_node@U?$pair@$$CBIPAUFunction@@@std@@PAX@2@@Z 10011120 f i aFont.obj
 0001:000101f0       ?_Freeheadnode@?$_Tree_alloc@$0A@U?$_Tree_base_types@U?$pair@$$CBIPAX@std@@V?$allocator@U?$pair@$$CBIPAX@std@@@2@@std@@@std@@QAEXPAU?$_Tree_node@U?$pair@$$CBIPAX@std@@PAX@2@@Z 100111f0 f i aFont.obj
 0001:000102c0       ?_Freenode0@?$_Tree_buy@U?$pair@$$CBHPAVFontType@@@std@@V?$allocator@U?$pair@$$CBHPAVFontType@@@std@@@2@@std@@QAEXPAU?$_Tree_node@U?$pair@$$CBHPAVFontType@@@std@@PAX@2@@Z 100112c0 f i aFont.obj
 0001:00010390       ?_Freenode0@?$_Tree_buy@U?$pair@$$CBIPAUFunction@@@std@@V?$allocator@U?$pair@$$CBIPAUFunction@@@std@@@2@@std@@QAEXPAU?$_Tree_node@U?$pair@$$CBIPAUFunction@@@std@@PAX@2@@Z 10011390 f i aFont.obj
 0001:00010460       ?_Getal@?$_String_alloc@$0A@U?$_String_base_types@DV?$allocator@D@std@@@std@@@std@@QBE?AU?$_Wrap_alloc@V?$allocator@D@std@@@2@XZ 10011460 f i aFont.obj
 0001:000104b0       ?_Getal@?$_Tree_alloc@$0A@U?$_Tree_base_types@U?$pair@$$CBHPAVFontType@@@std@@V?$allocator@U?$pair@$$CBHPAVFontType@@@std@@@2@@std@@@std@@QBE?AU?$_Wrap_alloc@V?$allocator@U?$_Tree_node@U?$pair@$$CBHPAVFontType@@@std@@PAX@std@@@std@@@2@XZ 100114b0 f i aFont.obj
 0001:00010500       ?_Getal@?$_Tree_alloc@$0A@U?$_Tree_base_types@U?$pair@$$CBIPAUFunction@@@std@@V?$allocator@U?$pair@$$CBIPAUFunction@@@std@@@2@@std@@@std@@QBE?AU?$_Wrap_alloc@V?$allocator@U?$_Tree_node@U?$pair@$$CBIPAUFunction@@@std@@PAX@std@@@std@@@2@XZ 10011500 f i aFont.obj
 0001:00010550       ?_Getal@?$_Tree_alloc@$0A@U?$_Tree_base_types@U?$pair@$$CBIPAX@std@@V?$allocator@U?$pair@$$CBIPAX@std@@@2@@std@@@std@@QBE?AU?$_Wrap_alloc@V?$allocator@U?$_Tree_node@U?$pair@$$CBIPAX@std@@PAX@std@@@std@@@2@XZ 10011550 f i aFont.obj
 0001:000105a0       ?_Getcomp@?$_Tree_comp@$0A@V?$_Tmap_traits@HPAVFontType@@U?$less@H@std@@V?$allocator@U?$pair@$$CBHPAVFontType@@@std@@@3@$0A@@std@@@std@@QBE?AU?$less@H@2@XZ 100115a0 f i aFont.obj
 0001:000105d0       ?_Getcomp@?$_Tree_comp@$0A@V?$_Tmap_traits@IPAUFunction@@UFcmp@@V?$allocator@U?$pair@$$CBIPAUFunction@@@std@@@std@@$0A@@std@@@std@@QBE?AUFcmp@@XZ 100115d0 f i aFont.obj
 0001:00010610       ?_Getcont@_Iterator_base12@std@@QBEPBU_Container_base12@2@XZ 10011610 f i aFont.obj
 0001:00010670       ?_Getpfirst@_Container_base12@std@@QBEPAPAU_Iterator_base12@2@XZ 10011670 f i aFont.obj
 0001:000106d0       ?_Getpnext@_Iterator_base12@std@@QAEPAPAU12@XZ 100116d0 f i aFont.obj
 0001:00010700       ?_Grow@?$basic_string@DU?$char_traits@D@std@@V?$allocator@D@2@@std@@QAE_NI_N@Z 10011700 f i aFont.obj
 0001:000107f0       ?_Inside@?$basic_string@DU?$char_traits@D@std@@V?$allocator@D@2@@std@@QAE_NPBD@Z 100117f0 f i aFont.obj
 0001:00010860       ?_Isnil@?$_Tree_val@U?$_Tree_simple_types@U?$pair@$$CBHPAVFontType@@@std@@@std@@@std@@SGAADPAU?$_Tree_node@U?$pair@$$CBHPAVFontType@@@std@@PAX@2@@Z 10011860 f i aFont.obj
 0001:00010890       ?_Isnil@?$_Tree_val@U?$_Tree_simple_types@U?$pair@$$CBIPAUFunction@@@std@@@std@@@std@@SGAADPAU?$_Tree_node@U?$pair@$$CBIPAUFunction@@@std@@PAX@2@@Z 10011890 f i aFont.obj
 0001:000108c0       ?_Isnil@?$_Tree_val@U?$_Tree_simple_types@U?$pair@$$CBIPAX@std@@@std@@@std@@SGAADPAU?$_Tree_node@U?$pair@$$CBIPAX@std@@PAX@2@@Z 100118c0 f i aFont.obj
 0001:000108f0       ?_Key@?$_Tree@V?$_Tmap_traits@HPAVFontType@@U?$less@H@std@@V?$allocator@U?$pair@$$CBHPAVFontType@@@std@@@3@$0A@@std@@@std@@IBEABHPAU?$_Tree_node@U?$pair@$$CBHPAVFontType@@@std@@PAX@2@@Z 100118f0 f i aFont.obj
 0001:00010940       ?_Key@?$_Tree@V?$_Tmap_traits@IPAUFunction@@UFcmp@@V?$allocator@U?$pair@$$CBIPAUFunction@@@std@@@std@@$0A@@std@@@std@@IBEABIPAU?$_Tree_node@U?$pair@$$CBIPAUFunction@@@std@@PAX@2@@Z 10011940 f i aFont.obj
 0001:00010990       ?_Kfn@?$_Tree@V?$_Tmap_traits@HPAVFontType@@U?$less@H@std@@V?$allocator@U?$pair@$$CBHPAVFontType@@@std@@@3@$0A@@std@@@std@@IBEABHABU?$pair@$$CBHPAVFontType@@@2@@Z 10011990 f i aFont.obj
 0001:000109e0       ?_Kfn@?$_Tree@V?$_Tmap_traits@IPAUFunction@@UFcmp@@V?$allocator@U?$pair@$$CBIPAUFunction@@@std@@@std@@$0A@@std@@@std@@IBEABIABU?$pair@$$CBIPAUFunction@@@2@@Z 100119e0 f i aFont.obj
 0001:00010a30       ?_Lbound@?$_Tree@V?$_Tmap_traits@HPAVFontType@@U?$less@H@std@@V?$allocator@U?$pair@$$CBHPAVFontType@@@std@@@3@$0A@@std@@@std@@IAEPAU?$_Tree_node@U?$pair@$$CBHPAVFontType@@@std@@PAX@2@ABH@Z 10011a30 f i aFont.obj
 0001:00010b00       ?_Lbound@?$_Tree@V?$_Tmap_traits@IPAUFunction@@UFcmp@@V?$allocator@U?$pair@$$CBIPAUFunction@@@std@@@std@@$0A@@std@@@std@@IAEPAU?$_Tree_node@U?$pair@$$CBIPAUFunction@@@std@@PAX@2@ABI@Z 10011b00 f i aFont.obj
 0001:00010bd0       ?_Left@?$_Tree_val@U?$_Tree_simple_types@U?$pair@$$CBHPAVFontType@@@std@@@std@@@std@@SGAAPAU?$_Tree_node@U?$pair@$$CBHPAVFontType@@@std@@PAX@2@PAU32@@Z 10011bd0 f i aFont.obj
 0001:00010c00       ?_Left@?$_Tree_val@U?$_Tree_simple_types@U?$pair@$$CBIPAUFunction@@@std@@@std@@@std@@SGAAPAU?$_Tree_node@U?$pair@$$CBIPAUFunction@@@std@@PAX@2@PAU32@@Z 10011c00 f i aFont.obj
 0001:00010c30       ?_Left@?$_Tree_val@U?$_Tree_simple_types@U?$pair@$$CBIPAX@std@@@std@@@std@@SGAAPAU?$_Tree_node@U?$pair@$$CBIPAX@std@@PAX@2@PAU32@@Z 10011c30 f i aFont.obj
 0001:00010c60       ?_Lmost@?$_Tree@V?$_Tmap_traits@HPAVFontType@@U?$less@H@std@@V?$allocator@U?$pair@$$CBHPAVFontType@@@std@@@3@$0A@@std@@@std@@IBEAAPAU?$_Tree_node@U?$pair@$$CBHPAVFontType@@@std@@PAX@2@XZ 10011c60 f i aFont.obj
 0001:00010cb0       ?_Lmost@?$_Tree@V?$_Tmap_traits@IPAUFunction@@UFcmp@@V?$allocator@U?$pair@$$CBIPAUFunction@@@std@@@std@@$0A@@std@@@std@@IBEAAPAU?$_Tree_node@U?$pair@$$CBIPAUFunction@@@std@@PAX@2@XZ 10011cb0 f i aFont.obj
 0001:00010d00       ?_Lmost@?$_Tree@V?$_Tmap_traits@IPAXUVcmp@@V?$allocator@U?$pair@$$CBIPAX@std@@@std@@$0A@@std@@@std@@IBEAAPAU?$_Tree_node@U?$pair@$$CBIPAX@std@@PAX@2@XZ 10011d00 f i aFont.obj
 0001:00010d50       ?_Lrotate@?$_Tree@V?$_Tmap_traits@HPAVFontType@@U?$less@H@std@@V?$allocator@U?$pair@$$CBHPAVFontType@@@std@@@3@$0A@@std@@@std@@IAEXPAU?$_Tree_node@U?$pair@$$CBHPAVFontType@@@std@@PAX@2@@Z 10011d50 f i aFont.obj
 0001:00010e80       ?_Lrotate@?$_Tree@V?$_Tmap_traits@IPAUFunction@@UFcmp@@V?$allocator@U?$pair@$$CBIPAUFunction@@@std@@@std@@$0A@@std@@@std@@IAEXPAU?$_Tree_node@U?$pair@$$CBIPAUFunction@@@std@@PAX@2@@Z 10011e80 f i aFont.obj
 0001:00010fb0       ?_Lrotate@?$_Tree@V?$_Tmap_traits@IPAXUVcmp@@V?$allocator@U?$pair@$$CBIPAX@std@@@std@@$0A@@std@@@std@@IAEXPAU?$_Tree_node@U?$pair@$$CBIPAX@std@@PAX@2@@Z 10011fb0 f i aFont.obj
 0001:000110e0       ?_Max@?$_Tree_val@U?$_Tree_simple_types@U?$pair@$$CBHPAVFontType@@@std@@@std@@@std@@SGPAU?$_Tree_node@U?$pair@$$CBHPAVFontType@@@std@@PAX@2@PAU32@@Z 100120e0 f i aFont.obj
 0001:00011140       ?_Max@?$_Tree_val@U?$_Tree_simple_types@U?$pair@$$CBIPAUFunction@@@std@@@std@@@std@@SGPAU?$_Tree_node@U?$pair@$$CBIPAUFunction@@@std@@PAX@2@PAU32@@Z 10012140 f i aFont.obj
 0001:000111a0       ?_Max@?$_Tree_val@U?$_Tree_simple_types@U?$pair@$$CBIPAX@std@@@std@@@std@@SGPAU?$_Tree_node@U?$pair@$$CBIPAX@std@@PAX@2@PAU32@@Z 100121a0 f i aFont.obj
 0001:00011200       ?_Min@?$_Tree_val@U?$_Tree_simple_types@U?$pair@$$CBHPAVFontType@@@std@@@std@@@std@@SGPAU?$_Tree_node@U?$pair@$$CBHPAVFontType@@@std@@PAX@2@PAU32@@Z 10012200 f i aFont.obj
 0001:00011260       ?_Min@?$_Tree_val@U?$_Tree_simple_types@U?$pair@$$CBIPAUFunction@@@std@@@std@@@std@@SGPAU?$_Tree_node@U?$pair@$$CBIPAUFunction@@@std@@PAX@2@PAU32@@Z 10012260 f i aFont.obj
 0001:000112c0       ?_Min@?$_Tree_val@U?$_Tree_simple_types@U?$pair@$$CBIPAX@std@@@std@@@std@@SGPAU?$_Tree_node@U?$pair@$$CBIPAX@std@@PAX@2@PAU32@@Z 100122c0 f i aFont.obj
 0001:00011320       ?_Mynode@?$_Tree_unchecked_const_iterator@V?$_Tree_val@U?$_Tree_simple_types@U?$pair@$$CBHPAVFontType@@@std@@@std@@@std@@U_Iterator_base12@2@@std@@QBEPAU?$_Tree_node@U?$pair@$$CBHPAVFontType@@@std@@PAX@2@XZ 10012320 f i aFont.obj
 0001:00011350       ?_Mynode@?$_Tree_unchecked_const_iterator@V?$_Tree_val@U?$_Tree_simple_types@U?$pair@$$CBIPAUFunction@@@std@@@std@@@std@@U_Iterator_base12@2@@std@@QBEPAU?$_Tree_node@U?$pair@$$CBIPAUFunction@@@std@@PAX@2@XZ 10012350 f i aFont.obj
 0001:00011380       ?_Mynode@?$_Tree_unchecked_const_iterator@V?$_Tree_val@U?$_Tree_simple_types@U?$pair@$$CBIPAX@std@@@std@@@std@@U_Iterator_base12@2@@std@@QBEPAU?$_Tree_node@U?$pair@$$CBIPAX@std@@PAX@2@XZ 10012380 f i aFont.obj
 0001:000113b0       ?_Myptr@?$_String_val@U?$_Simple_types@D@std@@@std@@QAEPADXZ 100123b0 f i aFont.obj
 0001:00011420       ?_Myptr@?$_String_val@U?$_Simple_types@D@std@@@std@@QBEPBDXZ 10012420 f i aFont.obj
 0001:00011490       ?_Myval@?$_Tree_val@U?$_Tree_simple_types@U?$pair@$$CBHPAVFontType@@@std@@@std@@@std@@SGAAU?$pair@$$CBHPAVFontType@@@2@PAU?$_Tree_node@U?$pair@$$CBHPAVFontType@@@std@@PAX@2@@Z 10012490 f i aFont.obj
 0001:000114c0       ?_Myval@?$_Tree_val@U?$_Tree_simple_types@U?$pair@$$CBIPAUFunction@@@std@@@std@@@std@@SGAAU?$pair@$$CBIPAUFunction@@@2@PAU?$_Tree_node@U?$pair@$$CBIPAUFunction@@@std@@PAX@2@@Z 100124c0 f i aFont.obj
 0001:000114f0       ?_Myval@?$_Tree_val@U?$_Tree_simple_types@U?$pair@$$CBIPAX@std@@@std@@@std@@SGAAU?$pair@$$CBIPAX@2@PAU?$_Tree_node@U?$pair@$$CBIPAX@std@@PAX@2@@Z 100124f0 f i aFont.obj
 0001:00011520       ?_Orphan_all@_Container_base12@std@@QAEXXZ 10012520 f i aFont.obj
 0001:000115e0       ?_Orphan_me@_Iterator_base12@std@@QAEXXZ 100125e0 f i aFont.obj
 0001:00011680       ?_Orphan_ptr@?$_Tree@V?$_Tmap_traits@HPAVFontType@@U?$less@H@std@@V?$allocator@U?$pair@$$CBHPAVFontType@@@std@@@3@$0A@@std@@@std@@IBEXAAV12@PAU?$_Tree_node@U?$pair@$$CBHPAVFontType@@@std@@PAX@2@@Z 10012680 f i aFont.obj
 0001:000117a0       ?_Orphan_ptr@?$_Tree@V?$_Tmap_traits@IPAUFunction@@UFcmp@@V?$allocator@U?$pair@$$CBIPAUFunction@@@std@@@std@@$0A@@std@@@std@@IBEXAAV12@PAU?$_Tree_node@U?$pair@$$CBIPAUFunction@@@std@@PAX@2@@Z 100127a0 f i aFont.obj
 0001:000118c0       ?_Orphan_ptr@?$_Tree@V?$_Tmap_traits@IPAXUVcmp@@V?$allocator@U?$pair@$$CBIPAX@std@@@std@@$0A@@std@@@std@@IBEXAAV12@PAU?$_Tree_node@U?$pair@$$CBIPAX@std@@PAX@2@@Z 100128c0 f i aFont.obj
 0001:000119e0       ?_Parent@?$_Tree_val@U?$_Tree_simple_types@U?$pair@$$CBHPAVFontType@@@std@@@std@@@std@@SGAAPAU?$_Tree_node@U?$pair@$$CBHPAVFontType@@@std@@PAX@2@PAU32@@Z 100129e0 f i aFont.obj
 0001:00011a10       ?_Parent@?$_Tree_val@U?$_Tree_simple_types@U?$pair@$$CBIPAUFunction@@@std@@@std@@@std@@SGAAPAU?$_Tree_node@U?$pair@$$CBIPAUFunction@@@std@@PAX@2@PAU32@@Z 10012a10 f i aFont.obj
 0001:00011a40       ?_Parent@?$_Tree_val@U?$_Tree_simple_types@U?$pair@$$CBIPAX@std@@@std@@@std@@SGAAPAU?$_Tree_node@U?$pair@$$CBIPAX@std@@PAX@2@PAU32@@Z 10012a40 f i aFont.obj
 0001:00011a70       ?_Right@?$_Tree_val@U?$_Tree_simple_types@U?$pair@$$CBHPAVFontType@@@std@@@std@@@std@@SGAAPAU?$_Tree_node@U?$pair@$$CBHPAVFontType@@@std@@PAX@2@PAU32@@Z 10012a70 f i aFont.obj
 0001:00011aa0       ?_Right@?$_Tree_val@U?$_Tree_simple_types@U?$pair@$$CBIPAUFunction@@@std@@@std@@@std@@SGAAPAU?$_Tree_node@U?$pair@$$CBIPAUFunction@@@std@@PAX@2@PAU32@@Z 10012aa0 f i aFont.obj
 0001:00011ad0       ?_Right@?$_Tree_val@U?$_Tree_simple_types@U?$pair@$$CBIPAX@std@@@std@@@std@@SGAAPAU?$_Tree_node@U?$pair@$$CBIPAX@std@@PAX@2@PAU32@@Z 10012ad0 f i aFont.obj
 0001:00011b00       ?_Rmost@?$_Tree@V?$_Tmap_traits@HPAVFontType@@U?$less@H@std@@V?$allocator@U?$pair@$$CBHPAVFontType@@@std@@@3@$0A@@std@@@std@@IBEAAPAU?$_Tree_node@U?$pair@$$CBHPAVFontType@@@std@@PAX@2@XZ 10012b00 f i aFont.obj
 0001:00011b50       ?_Rmost@?$_Tree@V?$_Tmap_traits@IPAUFunction@@UFcmp@@V?$allocator@U?$pair@$$CBIPAUFunction@@@std@@@std@@$0A@@std@@@std@@IBEAAPAU?$_Tree_node@U?$pair@$$CBIPAUFunction@@@std@@PAX@2@XZ 10012b50 f i aFont.obj
 0001:00011ba0       ?_Rmost@?$_Tree@V?$_Tmap_traits@IPAXUVcmp@@V?$allocator@U?$pair@$$CBIPAX@std@@@std@@$0A@@std@@@std@@IBEAAPAU?$_Tree_node@U?$pair@$$CBIPAX@std@@PAX@2@XZ 10012ba0 f i aFont.obj
 0001:00011bf0       ?_Root@?$_Tree@V?$_Tmap_traits@HPAVFontType@@U?$less@H@std@@V?$allocator@U?$pair@$$CBHPAVFontType@@@std@@@3@$0A@@std@@@std@@IBEAAPAU?$_Tree_node@U?$pair@$$CBHPAVFontType@@@std@@PAX@2@XZ 10012bf0 f i aFont.obj
 0001:00011c40       ?_Root@?$_Tree@V?$_Tmap_traits@IPAUFunction@@UFcmp@@V?$allocator@U?$pair@$$CBIPAUFunction@@@std@@@std@@$0A@@std@@@std@@IBEAAPAU?$_Tree_node@U?$pair@$$CBIPAUFunction@@@std@@PAX@2@XZ 10012c40 f i aFont.obj
 0001:00011c90       ?_Root@?$_Tree@V?$_Tmap_traits@IPAXUVcmp@@V?$allocator@U?$pair@$$CBIPAX@std@@@std@@$0A@@std@@@std@@IBEAAPAU?$_Tree_node@U?$pair@$$CBIPAX@std@@PAX@2@XZ 10012c90 f i aFont.obj
 0001:00011ce0       ?_Rrotate@?$_Tree@V?$_Tmap_traits@HPAVFontType@@U?$less@H@std@@V?$allocator@U?$pair@$$CBHPAVFontType@@@std@@@3@$0A@@std@@@std@@IAEXPAU?$_Tree_node@U?$pair@$$CBHPAVFontType@@@std@@PAX@2@@Z 10012ce0 f i aFont.obj
 0001:00011e10       ?_Rrotate@?$_Tree@V?$_Tmap_traits@IPAUFunction@@UFcmp@@V?$allocator@U?$pair@$$CBIPAUFunction@@@std@@@std@@$0A@@std@@@std@@IAEXPAU?$_Tree_node@U?$pair@$$CBIPAUFunction@@@std@@PAX@2@@Z 10012e10 f i aFont.obj
 0001:00011f40       ?_Rrotate@?$_Tree@V?$_Tmap_traits@IPAXUVcmp@@V?$allocator@U?$pair@$$CBIPAX@std@@@std@@$0A@@std@@@std@@IAEXPAU?$_Tree_node@U?$pair@$$CBIPAX@std@@PAX@2@@Z 10012f40 f i aFont.obj
 0001:00012070       ?_Tidy@?$_Tree@V?$_Tmap_traits@HPAVFontType@@U?$less@H@std@@V?$allocator@U?$pair@$$CBHPAVFontType@@@std@@@3@$0A@@std@@@std@@IAEXXZ 10013070 f i aFont.obj
 0001:000121b0       ?_Tidy@?$_Tree@V?$_Tmap_traits@IPAUFunction@@UFcmp@@V?$allocator@U?$pair@$$CBIPAUFunction@@@std@@@std@@$0A@@std@@@std@@IAEXXZ 100131b0 f i aFont.obj
 0001:000122f0       ?_Tidy@?$_Tree@V?$_Tmap_traits@IPAXUVcmp@@V?$allocator@U?$pair@$$CBIPAX@std@@@std@@$0A@@std@@@std@@IAEXXZ 100132f0 f i aFont.obj
 0001:00012430       ?_Tidy@?$basic_string@DU?$char_traits@D@std@@V?$allocator@D@2@@std@@QAEX_NI@Z 10013430 f i aFont.obj
 0001:00012500       ?_Xlen@?$basic_string@DU?$char_traits@D@std@@V?$allocator@D@2@@std@@QBEXXZ 10013500 f i aFont.obj
 0001:00012550       ?_Xran@?$basic_string@DU?$char_traits@D@std@@V?$allocator@D@2@@std@@QBEXXZ 10013550 f i aFont.obj
 0001:000125a0       ?allocate@?$_Wrap_alloc@V?$allocator@D@std@@@std@@QAEPADI@Z 100135a0 f i aFont.obj
 0001:000125f0       ?allocate@?$_Wrap_alloc@V?$allocator@U?$_Tree_node@U?$pair@$$CBHPAVFontType@@@std@@PAX@std@@@std@@@std@@QAEPAU?$_Tree_node@U?$pair@$$CBHPAVFontType@@@std@@PAX@2@I@Z 100135f0 f i aFont.obj
 0001:00012640       ?allocate@?$_Wrap_alloc@V?$allocator@U?$_Tree_node@U?$pair@$$CBIPAUFunction@@@std@@PAX@std@@@std@@@std@@QAEPAU?$_Tree_node@U?$pair@$$CBIPAUFunction@@@std@@PAX@2@I@Z 10013640 f i aFont.obj
 0001:00012690       ?allocate@?$_Wrap_alloc@V?$allocator@U?$_Tree_node@U?$pair@$$CBIPAX@std@@PAX@std@@@std@@@std@@QAEPAU?$_Tree_node@U?$pair@$$CBIPAX@std@@PAX@2@I@Z 10013690 f i aFont.obj
 0001:000126e0       ?allocate@?$_Wrap_alloc@V?$allocator@U_Container_proxy@std@@@std@@@std@@QAEPAU_Container_proxy@2@I@Z 100136e0 f i aFont.obj
 0001:00012730       ?allocate@?$allocator@D@std@@QAEPADI@Z 10013730 f i aFont.obj
 0001:00012780       ?allocate@?$allocator@U?$_Tree_node@U?$pair@$$CBHPAVFontType@@@std@@PAX@std@@@std@@QAEPAU?$_Tree_node@U?$pair@$$CBHPAVFontType@@@std@@PAX@2@I@Z 10013780 f i aFont.obj
 0001:000127d0       ?allocate@?$allocator@U?$_Tree_node@U?$pair@$$CBIPAUFunction@@@std@@PAX@std@@@std@@QAEPAU?$_Tree_node@U?$pair@$$CBIPAUFunction@@@std@@PAX@2@I@Z 100137d0 f i aFont.obj
 0001:00012820       ?allocate@?$allocator@U?$_Tree_node@U?$pair@$$CBIPAX@std@@PAX@std@@@std@@QAEPAU?$_Tree_node@U?$pair@$$CBIPAX@std@@PAX@2@I@Z 10013820 f i aFont.obj
 0001:00012870       ?allocate@?$allocator@U_Container_proxy@std@@@std@@QAEPAU_Container_proxy@2@I@Z 10013870 f i aFont.obj
 0001:000128c0       ?assign@?$basic_string@DU?$char_traits@D@std@@V?$allocator@D@2@@std@@QAEAAV12@ABV12@II@Z 100138c0 f i aFont.obj
 0001:000129a0       ?assign@?$basic_string@DU?$char_traits@D@std@@V?$allocator@D@2@@std@@QAEAAV12@PBD@Z 100139a0 f i aFont.obj
 0001:00012a10       ?assign@?$basic_string@DU?$char_traits@D@std@@V?$allocator@D@2@@std@@QAEAAV12@PBDI@Z 10013a10 f i aFont.obj
 0001:00012ae0       ?assign@?$char_traits@D@std@@SAXAADABD@Z 10013ae0 f i aFont.obj
 0001:00012b10       ?begin@?$_Tree@V?$_Tmap_traits@HPAVFontType@@U?$less@H@std@@V?$allocator@U?$pair@$$CBHPAVFontType@@@std@@@3@$0A@@std@@@std@@QAE?AV?$_Tree_iterator@V?$_Tree_val@U?$_Tree_simple_types@U?$pair@$$CBHPAVFontType@@@std@@@std@@@std@@@2@XZ 10013b10 f i aFont.obj
 0001:00012b70       ?begin@?$_Tree@V?$_Tmap_traits@IPAUFunction@@UFcmp@@V?$allocator@U?$pair@$$CBIPAUFunction@@@std@@@std@@$0A@@std@@@std@@QAE?AV?$_Tree_iterator@V?$_Tree_val@U?$_Tree_simple_types@U?$pair@$$CBIPAUFunction@@@std@@@std@@@std@@@2@XZ 10013b70 f i aFont.obj
 0001:00012bd0       ?begin@?$_Tree@V?$_Tmap_traits@IPAXUVcmp@@V?$allocator@U?$pair@$$CBIPAX@std@@@std@@$0A@@std@@@std@@QAE?AV?$_Tree_iterator@V?$_Tree_val@U?$_Tree_simple_types@U?$pair@$$CBIPAX@std@@@std@@@std@@@2@XZ 10013bd0 f i aFont.obj
 0001:00012c30       ?category@error_code@std@@QBEABVerror_category@2@XZ 10013c30 f i aFont.obj
 0001:00012c60       ?category@error_condition@std@@QBEABVerror_category@2@XZ 10013c60 f i aFont.obj
 0001:00012c90       ?clear@?$_Tree@V?$_Tmap_traits@HPAVFontType@@U?$less@H@std@@V?$allocator@U?$pair@$$CBHPAVFontType@@@std@@@3@$0A@@std@@@std@@QAEXXZ 10013c90 f i aFont.obj
 0001:00012d30       ?clear@?$_Tree@V?$_Tmap_traits@IPAUFunction@@UFcmp@@V?$allocator@U?$pair@$$CBIPAUFunction@@@std@@@std@@$0A@@std@@@std@@QAEXXZ 10013d30 f i aFont.obj
 0001:00012dd0       ?clear@?$_Tree@V?$_Tmap_traits@IPAXUVcmp@@V?$allocator@U?$pair@$$CBIPAX@std@@@std@@$0A@@std@@@std@@QAEXXZ 10013dd0 f i aFont.obj
 0001:00012e70       ?copy@?$char_traits@D@std@@SAPADPADPBDI@Z 10013e70 f i aFont.obj
 0001:00012ee0       ?deallocate@?$_Wrap_alloc@V?$allocator@D@std@@@std@@QAEXPADI@Z 10013ee0 f i aFont.obj
 0001:00012f30       ?deallocate@?$_Wrap_alloc@V?$allocator@U?$_Tree_node@U?$pair@$$CBHPAVFontType@@@std@@PAX@std@@@std@@@std@@QAEXPAU?$_Tree_node@U?$pair@$$CBHPAVFontType@@@std@@PAX@2@I@Z 10013f30 f i aFont.obj
 0001:00012f80       ?deallocate@?$_Wrap_alloc@V?$allocator@U?$_Tree_node@U?$pair@$$CBIPAUFunction@@@std@@PAX@std@@@std@@@std@@QAEXPAU?$_Tree_node@U?$pair@$$CBIPAUFunction@@@std@@PAX@2@I@Z 10013f80 f i aFont.obj
 0001:00012fd0       ?deallocate@?$_Wrap_alloc@V?$allocator@U?$_Tree_node@U?$pair@$$CBIPAX@std@@PAX@std@@@std@@@std@@QAEXPAU?$_Tree_node@U?$pair@$$CBIPAX@std@@PAX@2@I@Z 10013fd0 f i aFont.obj
 0001:00013020       ?deallocate@?$_Wrap_alloc@V?$allocator@U_Container_proxy@std@@@std@@@std@@QAEXPAU_Container_proxy@2@I@Z 10014020 f i aFont.obj
 0001:00013070       ?deallocate@?$allocator@D@std@@QAEXPADI@Z 10014070 f i aFont.obj
 0001:000130c0       ?deallocate@?$allocator@U?$_Tree_node@U?$pair@$$CBHPAVFontType@@@std@@PAX@std@@@std@@QAEXPAU?$_Tree_node@U?$pair@$$CBHPAVFontType@@@std@@PAX@2@I@Z 100140c0 f i aFont.obj
 0001:00013110       ?deallocate@?$allocator@U?$_Tree_node@U?$pair@$$CBIPAUFunction@@@std@@PAX@std@@@std@@QAEXPAU?$_Tree_node@U?$pair@$$CBIPAUFunction@@@std@@PAX@2@I@Z 10014110 f i aFont.obj
 0001:00013160       ?deallocate@?$allocator@U?$_Tree_node@U?$pair@$$CBIPAX@std@@PAX@std@@@std@@QAEXPAU?$_Tree_node@U?$pair@$$CBIPAX@std@@PAX@2@I@Z 10014160 f i aFont.obj
 0001:000131b0       ?deallocate@?$allocator@U_Container_proxy@std@@@std@@QAEXPAU_Container_proxy@2@I@Z 100141b0 f i aFont.obj
 0001:00013200       ?default_error_condition@_System_error_category@std@@UBE?AVerror_condition@2@H@Z 10014200 f i aFont.obj
 0001:00013280       ?default_error_condition@error_category@std@@UBE?AVerror_condition@2@H@Z 10014280 f i aFont.obj
 0001:000132d0       ?end@?$_Tree@V?$_Tmap_traits@HPAVFontType@@U?$less@H@std@@V?$allocator@U?$pair@$$CBHPAVFontType@@@std@@@3@$0A@@std@@@std@@QAE?AV?$_Tree_iterator@V?$_Tree_val@U?$_Tree_simple_types@U?$pair@$$CBHPAVFontType@@@std@@@std@@@std@@@2@XZ 100142d0 f i aFont.obj
 0001:00013320       ?end@?$_Tree@V?$_Tmap_traits@IPAUFunction@@UFcmp@@V?$allocator@U?$pair@$$CBIPAUFunction@@@std@@@std@@$0A@@std@@@std@@QAE?AV?$_Tree_iterator@V?$_Tree_val@U?$_Tree_simple_types@U?$pair@$$CBIPAUFunction@@@std@@@std@@@std@@@2@XZ 10014320 f i aFont.obj
 0001:00013370       ?end@?$_Tree@V?$_Tmap_traits@IPAXUVcmp@@V?$allocator@U?$pair@$$CBIPAX@std@@@std@@$0A@@std@@@std@@QAE?AV?$_Tree_iterator@V?$_Tree_val@U?$_Tree_simple_types@U?$pair@$$CBIPAX@std@@@std@@@std@@@2@XZ 10014370 f i aFont.obj
 0001:000133c0       ?equivalent@error_category@std@@UBE_NABVerror_code@2@H@Z 100143c0 f i aFont.obj
 0001:00013440       ?equivalent@error_category@std@@UBE_NHABVerror_condition@2@@Z 10014440 f i aFont.obj
 0001:000134b0       ?erase@?$_Tree@V?$_Tmap_traits@HPAVFontType@@U?$less@H@std@@V?$allocator@U?$pair@$$CBHPAVFontType@@@std@@@3@$0A@@std@@@std@@QAE?AV?$_Tree_iterator@V?$_Tree_val@U?$_Tree_simple_types@U?$pair@$$CBHPAVFontType@@@std@@@std@@@std@@@2@V?$_Tree_const_iterator@V?$_Tree_val@U?$_Tree_simple_types@U?$pair@$$CBHPAVFontType@@@std@@@std@@@std@@@2@0@Z 100144b0 f i aFont.obj
 0001:00013730       ?erase@?$_Tree@V?$_Tmap_traits@HPAVFontType@@U?$less@H@std@@V?$allocator@U?$pair@$$CBHPAVFontType@@@std@@@3@$0A@@std@@@std@@QAE?AV?$_Tree_iterator@V?$_Tree_val@U?$_Tree_simple_types@U?$pair@$$CBHPAVFontType@@@std@@@std@@@std@@@2@V?$_Tree_const_iterator@V?$_Tree_val@U?$_Tree_simple_types@U?$pair@$$CBHPAVFontType@@@std@@@std@@@std@@@2@@Z 10014730 f i aFont.obj
 0001:00013e70       ?erase@?$_Tree@V?$_Tmap_traits@IPAUFunction@@UFcmp@@V?$allocator@U?$pair@$$CBIPAUFunction@@@std@@@std@@$0A@@std@@@std@@QAE?AV?$_Tree_iterator@V?$_Tree_val@U?$_Tree_simple_types@U?$pair@$$CBIPAUFunction@@@std@@@std@@@std@@@2@V?$_Tree_const_iterator@V?$_Tree_val@U?$_Tree_simple_types@U?$pair@$$CBIPAUFunction@@@std@@@std@@@std@@@2@0@Z 10014e70 f i aFont.obj
 0001:000140f0       ?erase@?$_Tree@V?$_Tmap_traits@IPAUFunction@@UFcmp@@V?$allocator@U?$pair@$$CBIPAUFunction@@@std@@@std@@$0A@@std@@@std@@QAE?AV?$_Tree_iterator@V?$_Tree_val@U?$_Tree_simple_types@U?$pair@$$CBIPAUFunction@@@std@@@std@@@std@@@2@V?$_Tree_const_iterator@V?$_Tree_val@U?$_Tree_simple_types@U?$pair@$$CBIPAUFunction@@@std@@@std@@@std@@@2@@Z 100150f0 f i aFont.obj
 0001:00014830       ?erase@?$_Tree@V?$_Tmap_traits@IPAXUVcmp@@V?$allocator@U?$pair@$$CBIPAX@std@@@std@@$0A@@std@@@std@@QAE?AV?$_Tree_iterator@V?$_Tree_val@U?$_Tree_simple_types@U?$pair@$$CBIPAX@std@@@std@@@std@@@2@V?$_Tree_const_iterator@V?$_Tree_val@U?$_Tree_simple_types@U?$pair@$$CBIPAX@std@@@std@@@std@@@2@0@Z 10015830 f i aFont.obj
 0001:00014ab0       ?erase@?$_Tree@V?$_Tmap_traits@IPAXUVcmp@@V?$allocator@U?$pair@$$CBIPAX@std@@@std@@$0A@@std@@@std@@QAE?AV?$_Tree_iterator@V?$_Tree_val@U?$_Tree_simple_types@U?$pair@$$CBIPAX@std@@@std@@@std@@@2@V?$_Tree_const_iterator@V?$_Tree_val@U?$_Tree_simple_types@U?$pair@$$CBIPAX@std@@@std@@@std@@@2@@Z 10015ab0 f i aFont.obj
 0001:000151f0       ?erase@?$basic_string@DU?$char_traits@D@std@@V?$allocator@D@2@@std@@QAEAAV12@I@Z 100161f0 f i aFont.obj
 0001:00015250       ?erase@?$basic_string@DU?$char_traits@D@std@@V?$allocator@D@2@@std@@QAEAAV12@II@Z 10016250 f i aFont.obj
 0001:00015310       ?find@?$_Tree@V?$_Tmap_traits@HPAVFontType@@U?$less@H@std@@V?$allocator@U?$pair@$$CBHPAVFontType@@@std@@@3@$0A@@std@@@std@@QAE?AV?$_Tree_iterator@V?$_Tree_val@U?$_Tree_simple_types@U?$pair@$$CBHPAVFontType@@@std@@@std@@@std@@@2@ABH@Z 10016310 f i aFont.obj
 0001:00015580       ?generic_category@std@@YGABVerror_category@1@XZ 10016580 f i aFont.obj
 0001:000155b0       ?length@?$char_traits@D@std@@SAIPBD@Z 100165b0 f i aFont.obj
 0001:00015610       ?lower_bound@?$_Tree@V?$_Tmap_traits@HPAVFontType@@U?$less@H@std@@V?$allocator@U?$pair@$$CBHPAVFontType@@@std@@@3@$0A@@std@@@std@@QAE?AV?$_Tree_iterator@V?$_Tree_val@U?$_Tree_simple_types@U?$pair@$$CBHPAVFontType@@@std@@@std@@@std@@@2@ABH@Z 10016610 f i aFont.obj
 0001:00015680       ?lower_bound@?$_Tree@V?$_Tmap_traits@IPAUFunction@@UFcmp@@V?$allocator@U?$pair@$$CBIPAUFunction@@@std@@@std@@$0A@@std@@@std@@QAE?AV?$_Tree_iterator@V?$_Tree_val@U?$_Tree_simple_types@U?$pair@$$CBIPAUFunction@@@std@@@std@@@std@@@2@ABI@Z 10016680 f i aFont.obj
 0001:000156f0       ?max_size@?$_Tree@V?$_Tmap_traits@HPAVFontType@@U?$less@H@std@@V?$allocator@U?$pair@$$CBHPAVFontType@@@std@@@3@$0A@@std@@@std@@QBEIXZ 100166f0 f i aFont.obj
 0001:00015740       ?max_size@?$_Tree@V?$_Tmap_traits@IPAUFunction@@UFcmp@@V?$allocator@U?$pair@$$CBIPAUFunction@@@std@@@std@@$0A@@std@@@std@@QBEIXZ 10016740 f i aFont.obj
 0001:00015790       ?max_size@?$_Wrap_alloc@V?$allocator@D@std@@@std@@QBEIXZ 10016790 f i aFont.obj
 0001:000157d0       ?max_size@?$_Wrap_alloc@V?$allocator@U?$_Tree_node@U?$pair@$$CBHPAVFontType@@@std@@PAX@std@@@std@@@std@@QBEIXZ 100167d0 f i aFont.obj
 0001:00015810       ?max_size@?$_Wrap_alloc@V?$allocator@U?$_Tree_node@U?$pair@$$CBIPAUFunction@@@std@@PAX@std@@@std@@@std@@QBEIXZ 10016810 f i aFont.obj
 0001:00015850       ?max_size@?$allocator@D@std@@QBEIXZ 10016850 f i aFont.obj
 0001:00015880       ?max_size@?$allocator@U?$_Tree_node@U?$pair@$$CBHPAVFontType@@@std@@PAX@std@@@std@@QBEIXZ 10016880 f i aFont.obj
 0001:000158b0       ?max_size@?$allocator@U?$_Tree_node@U?$pair@$$CBIPAUFunction@@@std@@PAX@std@@@std@@QBEIXZ 100168b0 f i aFont.obj
 0001:000158e0       ?max_size@?$allocator_traits@V?$allocator@D@std@@@std@@SGIABV?$allocator@D@2@@Z 100168e0 f i aFont.obj
 0001:00015920       ?max_size@?$allocator_traits@V?$allocator@U?$_Tree_node@U?$pair@$$CBHPAVFontType@@@std@@PAX@std@@@std@@@std@@SGIABV?$allocator@U?$_Tree_node@U?$pair@$$CBHPAVFontType@@@std@@PAX@std@@@2@@Z 10016920 f i aFont.obj
 0001:00015960       ?max_size@?$allocator_traits@V?$allocator@U?$_Tree_node@U?$pair@$$CBIPAUFunction@@@std@@PAX@std@@@std@@@std@@SGIABV?$allocator@U?$_Tree_node@U?$pair@$$CBIPAUFunction@@@std@@PAX@std@@@2@@Z 10016960 f i aFont.obj
 0001:000159a0       ?max_size@?$basic_string@DU?$char_traits@D@std@@V?$allocator@D@2@@std@@QBEIXZ 100169a0 f i aFont.obj
 0001:00015a20       ?message@_Generic_error_category@std@@UBE?AV?$basic_string@DU?$char_traits@D@std@@V?$allocator@D@2@@2@H@Z 10016a20 f i aFont.obj
 0001:00015ab0       ?message@_Iostream_error_category@std@@UBE?AV?$basic_string@DU?$char_traits@D@std@@V?$allocator@D@2@@2@H@Z 10016ab0 f i aFont.obj
 0001:00015b40       ?message@_System_error_category@std@@UBE?AV?$basic_string@DU?$char_traits@D@std@@V?$allocator@D@2@@2@H@Z 10016b40 f i aFont.obj
 0001:00015bd0       ?move@?$char_traits@D@std@@SAPADPADPBDI@Z 10016bd0 f i aFont.obj
 0001:00015c40       ?name@_Generic_error_category@std@@UBEPBDXZ 10016c40 f i aFont.obj
 0001:00015c70       ?name@_Iostream_error_category@std@@UBEPBDXZ 10016c70 f i aFont.obj
 0001:00015ca0       ?name@_System_error_category@std@@UBEPBDXZ 10016ca0 f i aFont.obj
 0001:00015cd0       ?pointer_to@?$pointer_traits@PAU?$pair@$$CBHPAVFontType@@@std@@@std@@SGPAU?$pair@$$CBHPAVFontType@@@2@AAU32@@Z 10016cd0 f i aFont.obj
 0001:00015d10       ?pointer_to@?$pointer_traits@PAU?$pair@$$CBIPAUFunction@@@std@@@std@@SGPAU?$pair@$$CBIPAUFunction@@@2@AAU32@@Z 10016d10 f i aFont.obj
 0001:00015d50       ?size@?$_Tree@V?$_Tmap_traits@HPAVFontType@@U?$less@H@std@@V?$allocator@U?$pair@$$CBHPAVFontType@@@std@@@3@$0A@@std@@@std@@QBEIXZ 10016d50 f i aFont.obj
 0001:00015d80       ?size@?$_Tree@V?$_Tmap_traits@IPAUFunction@@UFcmp@@V?$allocator@U?$pair@$$CBIPAUFunction@@@std@@@std@@$0A@@std@@@std@@QBEIXZ 10016d80 f i aFont.obj
 0001:00015db0       ?size@?$basic_string@DU?$char_traits@D@std@@V?$allocator@D@2@@std@@QBEIXZ 10016db0 f i aFont.obj
 0001:00015de0       ?system_category@std@@YGABVerror_category@1@XZ 10016de0 f i aFont.obj
 0001:00015e10       ?value@error_code@std@@QBEHXZ 10016e10 f i aFont.obj
 0001:00015e40       ?value@error_condition@std@@QBEHXZ 10016e40 f i aFont.obj
 0001:00015e70       ??4StringClass@CRC@@QAEXV01@@Z 10016e70 f i Main.obj
 0001:00015f00       _SetZeusFunc@4             10016f00 f   Main.obj
 0001:00015f70       _QueryPerformanceCounter@4 10016f70 f   kernel32:KERNEL32.dll
 0001:00015f80       ??$?YPAD@PackClass@Packet@@QAEIPAD@Z 10016f80 f i System:Error_types.obj
 0001:00015fd0       ?AddParam@PackClass@Packet@@QAEIPAD@Z 10016fd0 f i System:Error_types.obj
 0001:00016040       ?CustomAssertFunc@Error@@YG_N_NPAD1H1PA_N@Z 10017040 f   System:Error_types.obj
 0001:00016150       ?CustomPrintfFunc@Error@@YAXPADZZ 10017150 f   System:Error_types.obj
 0001:00016280       ?CustomPrintfWindowScrollDown@Error@@YGXXZ 10017280 f   System:Error_types.obj
 0001:000162b0       ?CustomPrintfWindowScrollUp@Error@@YGXXZ 100172b0 f   System:Error_types.obj
 0001:000162e0       ?CustomPrintfWindowToggleHide@Error@@YGXXZ 100172e0 f   System:Error_types.obj
 0001:00016310       ?CustomWarnFunc@Error@@YGXPADH0@Z 10017310 f   System:Error_types.obj
 0001:000163d0       ?FindCustomPrintf@Error@@YGXXZ 100173d0 f   System:Error_types.obj
 0001:00016400       ?MakePrintfWindow@Error@@YGXXZ 10017400 f   System:Error_types.obj
 0001:00016430       ??0_Init_locks@std@@QAE@XZ 10017430 f   libcpmtd:xlock.obj
 0001:00016480       ??0_Lockit@std@@QAE@H@Z    10017480 f   libcpmtd:xlock.obj
 0001:000164d0       ??0_Lockit@std@@QAE@XZ     100174d0 f   libcpmtd:xlock.obj
 0001:00016520       ??1_Init_locks@std@@QAE@XZ 10017520 f   libcpmtd:xlock.obj
 0001:00016570       ??1_Lockit@std@@QAE@XZ     10017570 f   libcpmtd:xlock.obj
 0001:000165b0       ?_Init_locks_ctor@_Init_locks@std@@CAXPAV12@@Z 100175b0 f   libcpmtd:xlock.obj
 0001:00016600       ?_Init_locks_dtor@_Init_locks@std@@CAXPAV12@@Z 10017600 f   libcpmtd:xlock.obj
 0001:00016650       ?_Lockit_ctor@_Lockit@std@@CAXPAV12@@Z 10017650 f   libcpmtd:xlock.obj
 0001:00016670       ?_Lockit_ctor@_Lockit@std@@CAXPAV12@H@Z 10017670 f   libcpmtd:xlock.obj
 0001:000166b0       ?_Lockit_ctor@_Lockit@std@@SAXH@Z 100176b0 f   libcpmtd:xlock.obj
 0001:000166e0       ?_Lockit_dtor@_Lockit@std@@CAXPAV12@@Z 100176e0 f   libcpmtd:xlock.obj
 0001:00016700       ?_Lockit_dtor@_Lockit@std@@SAXH@Z 10017700 f   libcpmtd:xlock.obj
 0001:00016730       ??_U@YAPAXI@Z              10017730 f   libcpmtd:newaop.obj
 0001:00016750       ?_Debug_message@std@@YAXPBG0I@Z 10017750 f   libcpmtd:stdthrow.obj
 0001:00016770       ?_Debug_message@std@@YAXPB_W0I@Z 10017770 f   libcpmtd:stdthrow.obj
 0001:000167a0       ??$_Allocate@D@std@@YAPADIPAD@Z 100177a0 f i libcpmtd:xthrow.obj
 0001:000167e0       ??$_Allocate@U_Container_proxy@std@@@std@@YAPAU_Container_proxy@0@IPAU10@@Z 100177e0 f i libcpmtd:xthrow.obj
 0001:00016820       ??$_Debug_pointer@D@std@@YAXPBDPB_WI@Z 10017820 f i libcpmtd:xthrow.obj
 0001:00016840       ??$addressof@D@std@@YAPADAAD@Z 10017840 f i libcpmtd:xthrow.obj
 0001:00016850       ??$construct@PADAAPAD@?$allocator_traits@V?$allocator@D@std@@@std@@SAXAAV?$allocator@D@1@PAPADAAPAD@Z 10017850 f i libcpmtd:xthrow.obj
 0001:00016870       ??$destroy@PAD@?$allocator_traits@V?$allocator@D@std@@@std@@SAXAAV?$allocator@D@1@PAPAD@Z 10017870 f i libcpmtd:xthrow.obj
 0001:00016890       ??$forward@AAPAD@std@@YAAAPADAAPAD@Z 10017890 f i libcpmtd:xthrow.obj
 0001:000168a0       ??$forward@U_Container_proxy@std@@@std@@YA$$QAU_Container_proxy@0@AAU10@@Z 100178a0 f i libcpmtd:xthrow.obj
 0001:000168b0       ??0_Ignore@std@@QAE@XZ     100178b0 f i libcpmtd:xthrow.obj
 0001:000168c0       ??0bad_alloc@std@@QAE@ABV01@@Z 100178c0 f i libcpmtd:xthrow.obj
 0001:000168f0       ??0bad_alloc@std@@QAE@XZ   100178f0 f i libcpmtd:xthrow.obj
 0001:00016920       ??0bad_function_call@std@@QAE@ABV01@@Z 10017920 f i libcpmtd:xthrow.obj
 0001:00016950       ??0bad_function_call@std@@QAE@PBD@Z 10017950 f i libcpmtd:xthrow.obj
 0001:00016980       ??0invalid_argument@std@@QAE@ABV01@@Z 10017980 f i libcpmtd:xthrow.obj
 0001:000169b0       ??0invalid_argument@std@@QAE@PBD@Z 100179b0 f i libcpmtd:xthrow.obj
 0001:000169e0       ??0length_error@std@@QAE@ABV01@@Z 100179e0 f i libcpmtd:xthrow.obj
 0001:00016a10       ??0length_error@std@@QAE@PBD@Z 10017a10 f i libcpmtd:xthrow.obj
 0001:00016a40       ??0logic_error@std@@QAE@ABV01@@Z 10017a40 f i libcpmtd:xthrow.obj
 0001:00016a70       ??0logic_error@std@@QAE@PBD@Z 10017a70 f i libcpmtd:xthrow.obj
 0001:00016aa0       ??0out_of_range@std@@QAE@ABV01@@Z 10017aa0 f i libcpmtd:xthrow.obj
 0001:00016ad0       ??0out_of_range@std@@QAE@PBD@Z 10017ad0 f i libcpmtd:xthrow.obj
 0001:00016b00       ??0overflow_error@std@@QAE@ABV01@@Z 10017b00 f i libcpmtd:xthrow.obj
 0001:00016b30       ??0overflow_error@std@@QAE@PBD@Z 10017b30 f i libcpmtd:xthrow.obj
 0001:00016b60       ??0regex_error@std@@QAE@ABV01@@Z 10017b60 f i libcpmtd:xthrow.obj
 0001:00016ba0       ??0regex_error@std@@QAE@W4error_type@regex_constants@1@@Z 10017ba0 f i libcpmtd:xthrow.obj
 0001:00016be0       ??0runtime_error@std@@QAE@ABV01@@Z 10017be0 f i libcpmtd:xthrow.obj
 0001:00016c10       ??0runtime_error@std@@QAE@PBD@Z 10017c10 f i libcpmtd:xthrow.obj
 0001:00016c40       ??1bad_alloc@std@@UAE@XZ   10017c40 f i libcpmtd:xthrow.obj
 0001:00016c60       ??1bad_function_call@std@@UAE@XZ 10017c60 f i libcpmtd:xthrow.obj
 0001:00016c80       ??1invalid_argument@std@@UAE@XZ 10017c80 f i libcpmtd:xthrow.obj
 0001:00016ca0       ??1length_error@std@@UAE@XZ 10017ca0 f i libcpmtd:xthrow.obj
 0001:00016cc0       ??1logic_error@std@@UAE@XZ 10017cc0 f i libcpmtd:xthrow.obj
 0001:00016ce0       ??1out_of_range@std@@UAE@XZ 10017ce0 f i libcpmtd:xthrow.obj
 0001:00016d00       ??1overflow_error@std@@UAE@XZ 10017d00 f i libcpmtd:xthrow.obj
 0001:00016d20       ??1regex_error@std@@UAE@XZ 10017d20 f i libcpmtd:xthrow.obj
 0001:00016d40       ??1runtime_error@std@@UAE@XZ 10017d40 f i libcpmtd:xthrow.obj
 0001:00016d60       ??_Ebad_alloc@std@@UAEPAXI@Z 10017d60 f i libcpmtd:xthrow.obj
 0001:00016d60       ??_Gbad_alloc@std@@UAEPAXI@Z 10017d60 f i libcpmtd:xthrow.obj
 0001:00016d90       ??_Gbad_function_call@std@@UAEPAXI@Z 10017d90 f i libcpmtd:xthrow.obj
 0001:00016d90       ??_Ebad_function_call@std@@UAEPAXI@Z 10017d90 f i libcpmtd:xthrow.obj
 0001:00016dc0       ??_Einvalid_argument@std@@UAEPAXI@Z 10017dc0 f i libcpmtd:xthrow.obj
 0001:00016dc0       ??_Ginvalid_argument@std@@UAEPAXI@Z 10017dc0 f i libcpmtd:xthrow.obj
 0001:00016df0       ??_Elength_error@std@@UAEPAXI@Z 10017df0 f i libcpmtd:xthrow.obj
 0001:00016df0       ??_Glength_error@std@@UAEPAXI@Z 10017df0 f i libcpmtd:xthrow.obj
 0001:00016e20       ??_Elogic_error@std@@UAEPAXI@Z 10017e20 f i libcpmtd:xthrow.obj
 0001:00016e20       ??_Glogic_error@std@@UAEPAXI@Z 10017e20 f i libcpmtd:xthrow.obj
 0001:00016e50       ??_Eout_of_range@std@@UAEPAXI@Z 10017e50 f i libcpmtd:xthrow.obj
 0001:00016e50       ??_Gout_of_range@std@@UAEPAXI@Z 10017e50 f i libcpmtd:xthrow.obj
 0001:00016e80       ??_Eoverflow_error@std@@UAEPAXI@Z 10017e80 f i libcpmtd:xthrow.obj
 0001:00016e80       ??_Goverflow_error@std@@UAEPAXI@Z 10017e80 f i libcpmtd:xthrow.obj
 0001:00016eb0       ??_Eregex_error@std@@UAEPAXI@Z 10017eb0 f i libcpmtd:xthrow.obj
 0001:00016eb0       ??_Gregex_error@std@@UAEPAXI@Z 10017eb0 f i libcpmtd:xthrow.obj
 0001:00016ee0       ??_Eruntime_error@std@@UAEPAXI@Z 10017ee0 f i libcpmtd:xthrow.obj
 0001:00016ee0       ??_Gruntime_error@std@@UAEPAXI@Z 10017ee0 f i libcpmtd:xthrow.obj
 0001:00016f10       ?_Stringify@regex_error@std@@CAPBDW4error_type@regex_constants@2@@Z 10017f10 f i libcpmtd:xthrow.obj
 0001:00016fe0       ?_Xbad_alloc@std@@YAXXZ    10017fe0 f   libcpmtd:xthrow.obj
 0001:00017000       ?_Xbad_function_call@std@@YAXXZ 10018000 f   libcpmtd:xthrow.obj
 0001:00017030       ?_Xinvalid_argument@std@@YAXPBD@Z 10018030 f   libcpmtd:xthrow.obj
 0001:00017060       ?_Xlength_error@std@@YAXPBD@Z 10018060 f   libcpmtd:xthrow.obj
 0001:00017090       ?_Xout_of_range@std@@YAXPBD@Z 10018090 f   libcpmtd:xthrow.obj
 0001:000170c0       ?_Xoverflow_error@std@@YAXPBD@Z 100180c0 f   libcpmtd:xthrow.obj
 0001:000170f0       ?_Xregex_error@std@@YAXW4error_type@regex_constants@1@@Z 100180f0 f   libcpmtd:xthrow.obj
 0001:00017120       ?_Xruntime_error@std@@YAXPBD@Z 10018120 f   libcpmtd:xthrow.obj
 0001:00017150       ?generic_category@std@@YAABVerror_category@1@XZ 10018150 f i libcpmtd:xthrow.obj
 0001:00017160       ?max_size@?$allocator_traits@V?$allocator@D@std@@@std@@SAIABV?$allocator@D@2@@Z 10018160 f i libcpmtd:xthrow.obj
 0001:00017170       ?system_category@std@@YAABVerror_category@1@XZ 10018170 f i libcpmtd:xthrow.obj
 0001:00017180       ?what@bad_function_call@std@@UBEPBDXZ 10018180 f i libcpmtd:xthrow.obj
 0001:00017190       ?_Syserror_map@std@@YAPBDH@Z 10018190 f   libcpmtd:syserror.obj
 0001:000171e0       ?_Winerror_map@std@@YAPBDH@Z 100181e0 f   libcpmtd:syserror.obj
 0001:00017230       __Mtxdst                   10018230 f   libcpmtd:xmtx.obj
 0001:00017240       __Mtxinit                  10018240 f   libcpmtd:xmtx.obj
 0001:00017260       __Mtxlock                  10018260 f   libcpmtd:xmtx.obj
 0001:00017270       __Mtxunlock                10018270 f   libcpmtd:xmtx.obj
 0001:00017280       __Once                     10018280 f   libcpmtd:xmtx.obj
 0001:000172e0       __get_purecall_handler     100182e0 f   LIBCMTD:purevirt.obj
 0001:00017300       __purecall                 10018300 f   LIBCMTD:purevirt.obj
 0001:00017340       __set_purecall_handler     10018340 f   LIBCMTD:purevirt.obj
 0001:00017370       ??2@YAPAXI@Z               10018370 f   LIBCMTD:new.obj
 0001:000173c0       ??3@YAXPAX@Z               100183c0 f   LIBCMTD:dbgdel.obj
 0001:000174b0       ___onexitinit              100184b0 f   LIBCMTD:onexit.obj
 0001:00017510       __onexit                   10018510 f   LIBCMTD:onexit.obj
 0001:000176d0       _atexit                    100186d0 f   LIBCMTD:onexit.obj
 0001:00017700       ?_invalid_parameter@@YAXPBG00II@Z 10018700 f   LIBCMTD:invarg.obj
 0001:00017730       ?_invoke_watson@@YAXPBG00II@Z 10018730 f   LIBCMTD:invarg.obj
 0001:00017750       __call_reportfault         10018750 f   LIBCMTD:invarg.obj
 0001:000178b0       __get_invalid_parameter_handler 100188b0 f   LIBCMTD:invarg.obj
 0001:000178e0       __initp_misc_invarg        100188e0 f   LIBCMTD:invarg.obj
 0001:000178f0       __invalid_parameter        100188f0 f   LIBCMTD:invarg.obj
 0001:00017950       __invoke_watson            10018950 f   LIBCMTD:invarg.obj
 0001:00017990       __set_invalid_parameter_handler 10018990 f   LIBCMTD:invarg.obj
 0001:000179d0       _memcpy                    100189d0 f   LIBCMTD:memcpy.obj
 0001:00018020       _memset                    10019020 f   LIBCMTD:memset.obj
 0001:000180b0       _strcpy                    100190b0 f   LIBCMTD:strcat.obj
 0001:000180c0       _strcat                    100190c0 f   LIBCMTD:strcat.obj
 0001:000181b0       _strcmp                    100191b0 f   LIBCMTD:strcmp.obj
 0001:00018240       _strlen                    10019240 f   LIBCMTD:strlen.obj
 0001:000182d0       _memmove                   100192d0 f   LIBCMTD:memmove.obj
 0001:00018920       ??0_LocaleUpdate@@QAE@PAUlocaleinfo_struct@@@Z 10019920 f i LIBCMTD:strlwr.obj
 0001:00018a00       ??1_LocaleUpdate@@QAE@XZ   10019a00 f i LIBCMTD:strlwr.obj
 0001:00018a30       ?GetLocaleT@_LocaleUpdate@@QAEPAUlocaleinfo_struct@@XZ 10019a30 f i LIBCMTD:strlwr.obj
 0001:00018a40       ?_strlwr_s_l_stat@@YAHPADIPAUlocaleinfo_struct@@@Z 10019a40 f   LIBCMTD:strlwr.obj
 0001:00018eb0       __MarkAllocaS              10019eb0 f i LIBCMTD:strlwr.obj
 0001:00018ed0       __freea                    10019ed0 f i LIBCMTD:strlwr.obj
 0001:00018f10       __strlwr                   10019f10 f   LIBCMTD:strlwr.obj
 0001:00019000       __strlwr_l                 1001a000 f   LIBCMTD:strlwr.obj
 0001:00019020       __strlwr_s                 1001a020 f   LIBCMTD:strlwr.obj
 0001:00019040       __strlwr_s_l               1001a040 f   LIBCMTD:strlwr.obj
 0001:00019080       _strtok                    1001a080 f   LIBCMTD:strtok.obj
 0001:000191e0       ??_V@YAXPAX@Z              1001a1e0 f   LIBCMTD:delete2.obj
 0001:00019200       __fclose_nolock            1001a200 f   LIBCMTD:fclose.obj
 0001:00019310       _fclose                    1001a310 f   LIBCMTD:fclose.obj
 0001:00019430       __fsopen                   1001a430 f   LIBCMTD:fopen.obj
 0001:00019680       _fopen                     1001a680 f   LIBCMTD:fopen.obj
 0001:000196a0       _fopen_s                   1001a6a0 f   LIBCMTD:fopen.obj
 0001:00019760       __fread_nolock             1001a760 f   LIBCMTD:fread.obj
 0001:00019780       __fread_nolock_s           1001a780 f   LIBCMTD:fread.obj
 0001:00019db0       _fread                     1001adb0 f   LIBCMTD:fread.obj
 0001:00019dd0       _fread_s                   1001add0 f   LIBCMTD:fread.obj
 0001:00019f20       __fseek_nolock             1001af20 f   LIBCMTD:fseek.obj
 0001:0001a010       _fseek                     1001b010 f   LIBCMTD:fseek.obj
 0001:0001a1a0       __ftell_nolock             1001b1a0 f   LIBCMTD:ftell.obj
 0001:0001a860       _ftell                     1001b860 f   LIBCMTD:ftell.obj
 0001:0001a960       ?_CrtDbgReportW@@YAHHPBGH00ZZ 1001b960 f   LIBCMTD:dbgrptw.obj
 0001:0001a9b0       __CrtDbgReportW            1001b9b0 f   LIBCMTD:dbgrptw.obj
 0001:0001aa00       __CrtDbgReportWV           1001ba00 f i LIBCMTD:dbgrptw.obj
 0001:0001aa30       __CrtSetReportHookW2       1001ba30 f   LIBCMTD:dbgrptw.obj
 0001:0001ad80       ___crtMessageWindowW       1001bd80 f   LIBCMTD:dbgrptw.obj
 0001:0001b230       __invoke_watson_if_error   1001c230 f i LIBCMTD:dbgrptw.obj
 0001:0001b260       __invoke_watson_if_oneof   1001c260 f i LIBCMTD:dbgrptw.obj
 0001:0001b2a0       @_RTC_AllocaHelper@12      1001c2a0 f   LIBCMTD:stack.obj
 0001:0001b2e0       @_RTC_CheckStackVars2@12   1001c2e0 f   LIBCMTD:stack.obj
 0001:0001b3c0       @_RTC_CheckStackVars@8     1001c3c0 f   LIBCMTD:stack.obj
 0001:0001b420       __RTC_CheckEsp             1001c420 f   LIBCMTD:stack.obj
 0001:0001b450       @__security_check_cookie@4 1001c450 f   LIBCMTD:secchk.obj
 0001:0001b460       __CxxThrowException@8      1001c460 f   LIBCMTD:throw.obj
 0001:0001b4f0       __RTC_InitBase             1001c4f0 f   LIBCMTD:init.obj
 0001:0001b520       __RTC_Shutdown             1001c520 f   LIBCMTD:init.obj
 0001:0001b640       ?_CallCatchBlock2@@YAPAXPAUEHRegistrationNode@@PBU_s_FuncInfo@@PAXHK@Z 1001c640 f   LIBCMTD:_trnsctrl_.obj
 0001:0001b6b0       ?_CallMemberFunction0@@YGXPAX0@Z 1001c6b0 f   LIBCMTD:_trnsctrl_.obj
 0001:0001b6c0       ?_CallMemberFunction1@@YGXPAX00@Z 1001c6c0 f   LIBCMTD:_trnsctrl_.obj
 0001:0001b6d0       ?_CallMemberFunction2@@YGXPAX00H@Z 1001c6d0 f   LIBCMTD:_trnsctrl_.obj
 0001:0001b6e0       ?_CallSETranslator@@YAHPAUEHExceptionRecord@@PAUEHRegistrationNode@@PAX2PBU_s_FuncInfo@@H1@Z 1001c6e0 f   LIBCMTD:_trnsctrl_.obj
 0001:0001b7d0       ?_GetRangeOfTrysToCheck@@YAPBU_s_TryBlockMapEntry@@PBU_s_FuncInfo@@HHPAI1@Z 1001c7d0 f   LIBCMTD:_trnsctrl_.obj
 0001:0001b860       ?_JumpToContinuation@@YGXPAXPAUEHRegistrationNode@@@Z 1001c860 f   LIBCMTD:_trnsctrl_.obj
 0001:0001b8a0       ?_UnwindNestedFrames@@YGXPAUEHRegistrationNode@@PAUEHExceptionRecord@@@Z 1001c8a0 f   LIBCMTD:_trnsctrl_.obj
 0001:0001b900       __CreateFrameInfo          1001c900 f   LIBCMTD:_trnsctrl_.obj
 0001:0001b930       __FindAndUnlinkFrame       1001c930 f   LIBCMTD:_trnsctrl_.obj
 0001:0001b990       __IsExceptionObjectToBeDestroyed 1001c990 f   LIBCMTD:_trnsctrl_.obj
 0001:0001b9c0       ___CxxFrameHandler         1001c9c0 f   LIBCMTD:_trnsctrl_.obj
 0001:0001ba00       ___CxxFrameHandler2        1001ca00 f   LIBCMTD:_trnsctrl_.obj
 0001:0001ba40       ___CxxFrameHandler3        1001ca40 f   LIBCMTD:_trnsctrl_.obj
 0001:0001ba80       ___CxxLongjmpUnwind@4      1001ca80 f   LIBCMTD:_trnsctrl_.obj
 0001:0001bab0       ??0type_info@@AAE@ABV0@@Z  1001cab0 f   LIBCMTD:typinfo.obj
 0001:0001bad0       ??1type_info@@UAE@XZ       1001cad0 f   LIBCMTD:typinfo.obj
 0001:0001baf0       ??4type_info@@AAEAAV0@ABV0@@Z 1001caf0 f   LIBCMTD:typinfo.obj
 0001:0001bb00       ??8type_info@@QBE_NABV0@@Z 1001cb00 f   LIBCMTD:typinfo.obj
 0001:0001bb40       ??9type_info@@QBE_NABV0@@Z 1001cb40 f   LIBCMTD:typinfo.obj
 0001:0001bb80       ??_Gtype_info@@UAEPAXI@Z   1001cb80 f i LIBCMTD:typinfo.obj
 0001:0001bb80       ??_Etype_info@@UAEPAXI@Z   1001cb80 f i LIBCMTD:typinfo.obj
 0001:0001bbb0       ?_name_internal_method@type_info@@QBEPBDPAU__type_info_node@@@Z 1001cbb0 f   LIBCMTD:typinfo.obj
 0001:0001bbd0       ?_type_info_dtor_internal_method@type_info@@QAEXXZ 1001cbd0 f   LIBCMTD:typinfo.obj
 0001:0001bbf0       ?before@type_info@@QBE_NABV1@@Z 1001cbf0 f   LIBCMTD:typinfo.obj
 0001:0001bc30       ?name@type_info@@QBEPBDPAU__type_info_node@@@Z 1001cc30 f   LIBCMTD:typinfo.obj
 0001:0001bc50       ?raw_name@type_info@@QBEPBDXZ 1001cc50 f   LIBCMTD:typinfo.obj
 0001:0001bc70       __fpmath                   1001cc70 f   LIBCMTD:fpinit.obj
 0001:0001bc90       ___setfflag                1001cc90 f   LIBCMTD:fpinit.obj
 0001:0001bcb0       __cfltcvt_init             1001ccb0 f   LIBCMTD:fpinit.obj
 0001:0001bd70       __CRT_INIT@12              1001cd70 f   LIBCMTD:dllcrt0.obj
 0001:0001bf80       __DllMainCRTStartup@12     1001cf80 f   LIBCMTD:dllcrt0.obj
 0001:0001c170       ___DllXcptFilter           1001d170 f   LIBCMTD:dllcrt0.obj
 0001:0001c1a0       __vsnprintf                1001d1a0 f   LIBCMTD:vsnprint.obj
 0001:0001c1c0       __vsnprintf_l              1001d1c0 f   LIBCMTD:vsnprint.obj
 0001:0001c3a0       __scprintf                 1001d3a0 f   LIBCMTD:sprintf.obj
 0001:0001c3c0       __scprintf_l               1001d3c0 f   LIBCMTD:sprintf.obj
 0001:0001c3f0       __scprintf_p               1001d3f0 f   LIBCMTD:sprintf.obj
 0001:0001c410       __scprintf_p_l             1001d410 f   LIBCMTD:sprintf.obj
 0001:0001c440       __snprintf_s               1001d440 f   LIBCMTD:sprintf.obj
 0001:0001c470       __snprintf_s_l             1001d470 f   LIBCMTD:sprintf.obj
 0001:0001c4a0       __sprintf_l                1001d4a0 f   LIBCMTD:sprintf.obj
 0001:0001c4d0       __sprintf_p                1001d4d0 f   LIBCMTD:sprintf.obj
 0001:0001c500       __sprintf_p_l              1001d500 f   LIBCMTD:sprintf.obj
 0001:0001c530       __sprintf_s_l              1001d530 f   LIBCMTD:sprintf.obj
 0001:0001c560       _sprintf                   1001d560 f   LIBCMTD:sprintf.obj
 0001:0001c720       _sprintf_s                 1001d720 f   LIBCMTD:sprintf.obj
 0001:0001c750       __lock                     1001d750 f   LIBCMTD:mlock.obj
 0001:0001c790       __lockerr_exit             1001d790 f   LIBCMTD:mlock.obj
 0001:0001c7c0       __mtdeletelocks            1001d7c0 f   LIBCMTD:mlock.obj
 0001:0001c880       __mtinitlocknum            1001d880 f   LIBCMTD:mlock.obj
 0001:0001c9a0       __mtinitlocks              1001d9a0 f   LIBCMTD:mlock.obj
 0001:0001ca20       __unlock                   1001da20 f   LIBCMTD:mlock.obj
 0001:0001ca40       ??0__non_rtti_object@std@@QAE@ABV01@@Z 1001da40 f   LIBCMTD:stdexcpt.obj
 0001:0001ca70       ??0__non_rtti_object@std@@QAE@PBD@Z 1001da70 f   LIBCMTD:stdexcpt.obj
 0001:0001caa0       ??0bad_cast@std@@QAE@ABV01@@Z 1001daa0 f   LIBCMTD:stdexcpt.obj
 0001:0001cad0       ??0bad_cast@std@@QAE@PBD@Z 1001dad0 f   LIBCMTD:stdexcpt.obj
 0001:0001cb00       ??0bad_typeid@std@@QAE@ABV01@@Z 1001db00 f   LIBCMTD:stdexcpt.obj
 0001:0001cb30       ??0bad_typeid@std@@QAE@PBD@Z 1001db30 f   LIBCMTD:stdexcpt.obj
 0001:0001cb60       ??0exception@std@@QAE@ABQBD@Z 1001db60 f   LIBCMTD:stdexcpt.obj
 0001:0001cba0       ??0exception@std@@QAE@ABQBDH@Z 1001dba0 f   LIBCMTD:stdexcpt.obj
 0001:0001cbd0       ??0exception@std@@QAE@ABV01@@Z 1001dbd0 f   LIBCMTD:stdexcpt.obj
 0001:0001cc10       ??0exception@std@@QAE@XZ   1001dc10 f   LIBCMTD:stdexcpt.obj
 0001:0001cc40       ??1__non_rtti_object@std@@UAE@XZ 1001dc40 f   LIBCMTD:stdexcpt.obj
 0001:0001cc60       ??1bad_cast@std@@UAE@XZ    1001dc60 f   LIBCMTD:stdexcpt.obj
 0001:0001cc80       ??1bad_typeid@std@@UAE@XZ  1001dc80 f   LIBCMTD:stdexcpt.obj
 0001:0001cca0       ??1exception@std@@UAE@XZ   1001dca0 f   LIBCMTD:stdexcpt.obj
 0001:0001ccc0       ??4exception@std@@QAEAAV01@ABV01@@Z 1001dcc0 f   LIBCMTD:stdexcpt.obj
 0001:0001cd10       ??_E__non_rtti_object@std@@UAEPAXI@Z 1001dd10 f i LIBCMTD:stdexcpt.obj
 0001:0001cd10       ??_G__non_rtti_object@std@@UAEPAXI@Z 1001dd10 f i LIBCMTD:stdexcpt.obj
 0001:0001cd40       ??_Gbad_cast@std@@UAEPAXI@Z 1001dd40 f i LIBCMTD:stdexcpt.obj
 0001:0001cd40       ??_Ebad_cast@std@@UAEPAXI@Z 1001dd40 f i LIBCMTD:stdexcpt.obj
 0001:0001cd70       ??_Ebad_typeid@std@@UAEPAXI@Z 1001dd70 f i LIBCMTD:stdexcpt.obj
 0001:0001cd70       ??_Gbad_typeid@std@@UAEPAXI@Z 1001dd70 f i LIBCMTD:stdexcpt.obj
 0001:0001cda0       ??_Eexception@std@@UAEPAXI@Z 1001dda0 f i LIBCMTD:stdexcpt.obj
 0001:0001cda0       ??_Gexception@std@@UAEPAXI@Z 1001dda0 f i LIBCMTD:stdexcpt.obj
 0001:0001cdd0       ?_Copy_str@exception@std@@AAEXPBD@Z 1001ddd0 f   LIBCMTD:stdexcpt.obj
 0001:0001ce30       ?_Tidy@exception@std@@AAEXXZ 1001de30 f   LIBCMTD:stdexcpt.obj
 0001:0001ce70       ?what@exception@std@@UBEPBDXZ 1001de70 f   LIBCMTD:stdexcpt.obj
 0001:0001cea0       __FF_MSGBANNER             1001dea0 f   LIBCMTD:crt0msg.obj
 0001:0001cef0       __GET_RTERRMSG             1001def0 f   LIBCMTD:crt0msg.obj
 0001:0001cf30       __NMSG_WRITE               1001df30 f   LIBCMTD:crt0msg.obj
 0001:0001d2f0       __set_abort_behavior       1001e2f0 f   LIBCMTD:abort.obj
 0001:0001d320       _abort                     1001e320 f   LIBCMTD:abort.obj
 0001:0001d390       ___getlocaleinfo           1001e390 f   LIBCMTD:inithelp.obj
 0001:0001d690       __initp_misc_purevirt      1001e690 f   LIBCMTD:inithelp.obj
 0001:0001d6a0       _malloc                    1001e6a0 f   LIBCMTD:dbgmalloc.obj
 0001:0001d6d0       ?_query_new_handler@@YAP6AHI@ZXZ 1001e6d0 f   LIBCMTD:handler.obj
 0001:0001d6f0       ?_set_new_handler@@YAP6AHI@ZH@Z 1001e6f0 f   LIBCMTD:handler.obj
 0001:0001d730       ?_set_new_handler@@YAP6AHI@ZP6AHI@Z@Z 1001e730 f   LIBCMTD:handler.obj
 0001:0001d770       __callnewh                 1001e770 f   LIBCMTD:handler.obj
 0001:0001d7b0       __initp_heap_handler       1001e7b0 f   LIBCMTD:handler.obj
 0001:0001dc50       __CrtCheckMemory           1001ec50 f   LIBCMTD:dbgheap.obj
 0001:0001e0b0       __CrtDoForAllClientObjects 1001f0b0 f   LIBCMTD:dbgheap.obj
 0001:0001e1e0       __CrtDumpMemoryLeaks       1001f1e0 f   LIBCMTD:dbgheap.obj
 0001:0001e280       __CrtGetAllocHook          1001f280 f   LIBCMTD:dbgheap.obj
 0001:0001e290       __CrtGetCheckCount         1001f290 f   LIBCMTD:dbgheap.obj
 0001:0001e2a0       __CrtGetDumpClient         1001f2a0 f   LIBCMTD:dbgheap.obj
 0001:0001e2b0       __CrtIsMemoryBlock         1001f2b0 f   LIBCMTD:dbgheap.obj
 0001:0001e420       __CrtIsValidHeapPointer    1001f420 f   LIBCMTD:dbgheap.obj
 0001:0001e460       __CrtIsValidPointer        1001f460 f   LIBCMTD:dbgheap.obj
 0001:0001e490       __CrtMemCheckpoint         1001f490 f   LIBCMTD:dbgheap.obj
 0001:0001e6c0       __CrtMemDifference         1001f6c0 f   LIBCMTD:dbgheap.obj
 0001:0001e920       __CrtMemDumpAllObjectsSince 1001f920 f   LIBCMTD:dbgheap.obj
 0001:0001e960       __CrtMemDumpStatistics     1001f960 f   LIBCMTD:dbgheap.obj
 0001:0001ea80       __CrtReportBlockType       1001fa80 f   LIBCMTD:dbgheap.obj
 0001:0001eab0       __CrtSetAllocHook          1001fab0 f   LIBCMTD:dbgheap.obj
 0001:0001ead0       __CrtSetBreakAlloc         1001fad0 f   LIBCMTD:dbgheap.obj
 0001:0001eaf0       __CrtSetCheckCount         1001faf0 f   LIBCMTD:dbgheap.obj
 0001:0001eb10       __CrtSetDbgBlockType       1001fb10 f   LIBCMTD:dbgheap.obj
 0001:0001ec00       __CrtSetDbgFlag            1001fc00 f   LIBCMTD:dbgheap.obj
 0001:0001ed50       __CrtSetDebugFillThreshold 1001fd50 f   LIBCMTD:dbgheap.obj
 0001:0001ed70       __CrtSetDumpClient         1001fd70 f   LIBCMTD:dbgheap.obj
 0001:0001ed90       __aligned_free             1001fd90 f   LIBCMTD:dbgheap.obj
 0001:0001edb0       __aligned_free_dbg         1001fdb0 f   LIBCMTD:dbgheap.obj
 0001:0001ee60       __aligned_malloc           1001fe60 f   LIBCMTD:dbgheap.obj
 0001:0001ee80       __aligned_malloc_dbg       1001fe80 f   LIBCMTD:dbgheap.obj
 0001:0001eea0       __aligned_msize            1001fea0 f   LIBCMTD:dbgheap.obj
 0001:0001eec0       __aligned_msize_dbg        1001fec0 f   LIBCMTD:dbgheap.obj
 0001:0001efe0       __aligned_offset_malloc    1001ffe0 f   LIBCMTD:dbgheap.obj
 0001:0001f000       __aligned_offset_malloc_dbg 10020000 f   LIBCMTD:dbgheap.obj
 0001:0001f1e0       __aligned_offset_realloc   100201e0 f   LIBCMTD:dbgheap.obj
 0001:0001f210       __aligned_offset_realloc_dbg 10020210 f   LIBCMTD:dbgheap.obj
 0001:0001f520       __aligned_offset_recalloc  10020520 f   LIBCMTD:dbgheap.obj
 0001:0001f550       __aligned_offset_recalloc_dbg 10020550 f   LIBCMTD:dbgheap.obj
 0001:0001f610       __aligned_realloc          10020610 f   LIBCMTD:dbgheap.obj
 0001:0001f630       __aligned_realloc_dbg      10020630 f   LIBCMTD:dbgheap.obj
 0001:0001f660       __aligned_recalloc         10020660 f   LIBCMTD:dbgheap.obj
 0001:0001f690       __aligned_recalloc_dbg     10020690 f   LIBCMTD:dbgheap.obj
 0001:0001f6c0       __calloc_dbg               100206c0 f   LIBCMTD:dbgheap.obj
 0001:0001f720       __calloc_dbg_impl          10020720 f   LIBCMTD:dbgheap.obj
 0001:0001f7a0       __expand                   100207a0 f   LIBCMTD:dbgheap.obj
 0001:0001f7d0       __expand_dbg               100207d0 f   LIBCMTD:dbgheap.obj
 0001:0001f8f0       __free_dbg                 100208f0 f   LIBCMTD:dbgheap.obj
 0001:0001f970       __free_dbg_nolock          10020970 f   LIBCMTD:dbgheap.obj
 0001:0001fe70       __free_nolock              10020e70 f   LIBCMTD:dbgheap.obj
 0001:0001fe90       __heap_alloc               10020e90 f   LIBCMTD:dbgheap.obj
 0001:0001feb0       __heap_alloc_dbg           10020eb0 f   LIBCMTD:dbgheap.obj
 0001:000202d0       __malloc_dbg               100212d0 f   LIBCMTD:dbgheap.obj
 0001:00020300       __msize                    10021300 f   LIBCMTD:dbgheap.obj
 0001:00020320       __msize_dbg                10021320 f   LIBCMTD:dbgheap.obj
 0001:00020530       __nh_malloc                10021530 f   LIBCMTD:dbgheap.obj
 0001:00020550       __nh_malloc_dbg            10021550 f   LIBCMTD:dbgheap.obj
 0001:000207e0       __realloc_dbg              100217e0 f   LIBCMTD:dbgheap.obj
 0001:00020870       __recalloc                 10021870 f   LIBCMTD:dbgheap.obj
 0001:000208a0       __recalloc_dbg             100218a0 f   LIBCMTD:dbgheap.obj
 0001:00020fc0       __except_handler4          10021fc0 f   LIBCMTD:chandler4.obj
 0001:00021180       ___copy_path_to_wide_string 10022180 f   LIBCMTD:crt0dat.obj
 0001:00021370       ___crtCorExitProcess       10022370 f   LIBCMTD:crt0dat.obj
 0001:000213b0       ___crtExitProcess          100223b0 f   LIBCMTD:crt0dat.obj
 0001:000213d0       ___freeCrtMemory           100223d0 f   LIBCMTD:crt0dat.obj
 0001:00021590       __amsg_exit                10022590 f   LIBCMTD:crt0dat.obj
 0001:000215b0       __c_exit                   100225b0 f   LIBCMTD:crt0dat.obj
 0001:000215d0       __cexit                    100225d0 f   LIBCMTD:crt0dat.obj
 0001:000215f0       __cinit                    100225f0 f   LIBCMTD:crt0dat.obj
 0001:00021690       __exit                     10022690 f   LIBCMTD:crt0dat.obj
 0001:000216b0       __get_pgmptr               100226b0 f   LIBCMTD:crt0dat.obj
 0001:000217d0       __get_wpgmptr              100227d0 f   LIBCMTD:crt0dat.obj
 0001:000218f0       __init_pointers            100228f0 f   LIBCMTD:crt0dat.obj
 0001:00021980       __initterm_e               10022980 f   LIBCMTD:crt0dat.obj
 0001:000219c0       __lockexit                 100229c0 f   LIBCMTD:crt0dat.obj
 0001:000219d0       __unlockexit               100229d0 f   LIBCMTD:crt0dat.obj
 0001:00021be0       _exit                      10022be0 f   LIBCMTD:crt0dat.obj
 0001:00021c60       ___crtFlsAlloc             10022c60 f   LIBCMTD:winapisupp.obj
 0001:00021c70       ___crtFlsFree              10022c70 f   LIBCMTD:winapisupp.obj
 0001:00021c80       ___crtFlsGetValue          10022c80 f   LIBCMTD:winapisupp.obj
 0001:00021c90       ___crtFlsSetValue          10022c90 f   LIBCMTD:winapisupp.obj
 0001:00021cb0       ___crtGetShowWindowMode    10022cb0 f   LIBCMTD:winapisupp.obj
 0001:00021ce0       ___crtIsPackagedApp        10022ce0 f   LIBCMTD:winapisupp.obj
 0001:00021d20       ___crtSetUnhandledExceptionFilter 10022d20 f   LIBCMTD:winapisupp.obj
 0001:00021d30       ___crtTerminateProcess     10022d30 f   LIBCMTD:winapisupp.obj
 0001:00021d50       ___crtUnhandledException   10022d50 f   LIBCMTD:winapisupp.obj
 0001:00021d70       __CrtDefaultAllocHook      10022d70 f   LIBCMTD:dbghook.obj
 0001:00021d80       __crt_debugger_hook        10022d80 f   LIBCMTD:dbghook.obj
 0001:00021d90       ___isa_available_init      10022d90 f   LIBCMTD:cpu_disp.obj
 0001:00021f90       __VEC_memset               10022f90 f   LIBCMTD:p4_memset.obj
 0001:00022060       _strcpy_s                  10023060 f   LIBCMTD:strcpy_s.obj
 0001:00022360       _strnlen                   10023360 f   LIBCMTD:strlen_s.obj
 0001:000223a0       _free                      100233a0 f   LIBCMTD:dbgfree.obj
 0001:000223c0       ___addlocaleref            100233c0 f   LIBCMTD:localref.obj
 0001:000224e0       ___freetlocinfo            100234e0 f   LIBCMTD:localref.obj
 0001:000227d0       ___removelocaleref         100237d0 f   LIBCMTD:localref.obj
 0001:000228f0       ___updatetlocinfo          100238f0 f   LIBCMTD:localref.obj
 0001:000229c0       __updatetlocinfoEx_nolock  100239c0 f   LIBCMTD:localref.obj
 0001:00022a40       ___initmbctable            10023a40 f   LIBCMTD:mbctype.obj
 0001:00023060       ___updatetmbcinfo          10024060 f   LIBCMTD:mbctype.obj
 0001:00023170       __getmbcp                  10024170 f   LIBCMTD:mbctype.obj
 0001:000231e0       __setmbcp                  100241e0 f   LIBCMTD:mbctype.obj
 0001:00023480       __setmbcp_nolock           10024480 f   LIBCMTD:mbctype.obj
 0001:00023af0       ___crtLCMapStringA         10024af0 f   LIBCMTD:a_map.obj
 0001:00023b50       ___get_flsindex            10024b50 f   LIBCMTD:tidtable.obj
 0001:00023b60       ___threadhandle            10024b60 f   LIBCMTD:tidtable.obj
 0001:00023b70       ___threadid                10024b70 f   LIBCMTD:tidtable.obj
 0001:00023b80       __freefls@4                10024b80 f   LIBCMTD:tidtable.obj
 0001:00023d80       __freeptd                  10024d80 f   LIBCMTD:tidtable.obj
 0001:00023dc0       __getptd                   10024dc0 f   LIBCMTD:tidtable.obj
 0001:00023df0       __getptd_noexit            10024df0 f   LIBCMTD:tidtable.obj
 0001:00023ea0       __initptd                  10024ea0 f   LIBCMTD:tidtable.obj
 0001:00023ff0       __mtinit                   10024ff0 f   LIBCMTD:tidtable.obj
 0001:000240a0       __mtterm                   100250a0 f   LIBCMTD:tidtable.obj
 0001:000240d0       ___doserrno                100250d0 f   LIBCMTD:dosmap.obj
 0001:00024100       __dosmaperr                10025100 f   LIBCMTD:dosmap.obj
 0001:00024130       __errno                    10025130 f   LIBCMTD:dosmap.obj
 0001:00024160       __get_doserrno             10025160 f   LIBCMTD:dosmap.obj
 0001:000241f0       __get_errno                100251f0 f   LIBCMTD:dosmap.obj
 0001:00024280       __get_errno_from_oserr     10025280 f   LIBCMTD:dosmap.obj
 0001:00024300       __set_doserrno             10025300 f   LIBCMTD:dosmap.obj
 0001:00024330       __set_errno                10025330 f   LIBCMTD:dosmap.obj
 0001:00024360       __locterm                  10025360 f   LIBCMTD:wsetloca.obj
 0001:000243f0       ___init_dummy              100253f0 f   LIBCMTD:wsetloca.obj
 0001:00024400       ____setlc_active_func      10025400 f   LIBCMTD:wsetloca.obj
 0001:00024410       ____unguarded_readlc_active_add_func 10025410 f   LIBCMTD:wsetloca.obj
 0001:00024420       ___copy_locale_name        10025420 f   LIBCMTD:wsetloca.obj
 0001:000244c0       ___create_locale           100254c0 f   LIBCMTD:wsetloca.obj
 0001:000244e0       ___free_locale             100254e0 f   LIBCMTD:wsetloca.obj
 0001:00024500       ___get_current_locale      10025500 f   LIBCMTD:wsetloca.obj
 0001:00024510       ___lc_lctowcs              10025510 f   LIBCMTD:wsetloca.obj
 0001:000245c0       ___lc_wcstolc              100255c0 f   LIBCMTD:wsetloca.obj
 0001:000247e0       __configthreadlocale       100257e0 f   LIBCMTD:wsetloca.obj
 0001:00024940       __create_locale            10025940 f   LIBCMTD:wsetloca.obj
 0001:000249b0       __expandlocale             100259b0 f   LIBCMTD:wsetloca.obj
 0001:00024e30       __free_locale              10025e30 f   LIBCMTD:wsetloca.obj
 0001:00024f60       __get_current_locale       10025f60 f   LIBCMTD:wsetloca.obj
 0001:00025080       __wcreate_locale           10026080 f   LIBCMTD:wsetloca.obj
 0001:00025260       __wcscats                  10026260 f   LIBCMTD:wsetloca.obj
 0001:000252e0       __wsetlocale               100262e0 f   LIBCMTD:wsetloca.obj
 0001:00026370       ___raise_securityfailure   10027370 f   LIBCMTD:gs_report.obj
 0001:000263c0       ___report_gsfailure        100273c0 f   LIBCMTD:gs_report.obj
 0001:000264d0       ___report_rangecheckfailure 100274d0 f   LIBCMTD:gs_report.obj
 0001:000264e0       ___report_securityfailure  100274e0 f   LIBCMTD:gs_report.obj
 0001:000265c0       ___report_securityfailureEx 100275c0 f   LIBCMTD:gs_report.obj
 0001:000266f0       __fileno                   100276f0 f   LIBCMTD:fileno.obj
 0001:00026780       ___initstdio               10027780 f   LIBCMTD:_file.obj
 0001:00026850       ___endstdio                10027850 f   LIBCMTD:_file.obj
 0001:00026890       ___iob_func                10027890 f   LIBCMTD:_file.obj
 0001:000268a0       __lock_file                100278a0 f   LIBCMTD:_file.obj
 0001:00026900       __lock_file2               10027900 f   LIBCMTD:_file.obj
 0001:00026940       __unlock_file              10027940 f   LIBCMTD:_file.obj
 0001:000269a0       __unlock_file2             100279a0 f   LIBCMTD:_file.obj
 0001:000269e0       __close                    100279e0 f   LIBCMTD:close.obj
 0001:00026c20       __close_nolock             10027c20 f   LIBCMTD:close.obj
 0001:00026d10       __freebuf                  10027d10 f   LIBCMTD:_freebuf.obj
 0001:00026da0       __fflush_nolock            10027da0 f   LIBCMTD:fflush.obj
 0001:00026e10       __flush                    10027e10 f   LIBCMTD:fflush.obj
 0001:00026ed0       __flushall                 10027ed0 f   LIBCMTD:fflush.obj
 0001:00026ee0       _fflush                    10027ee0 f   LIBCMTD:fflush.obj
 0001:00027120       __getstream                10028120 f   LIBCMTD:stream.obj
 0001:00027350       __openfile                 10028350 f   LIBCMTD:_open.obj
 0001:00027b50       __local_unwind4            10028b50 f   LIBCMTD:exsup4.obj
 0001:00027c26       __seh_longjmp_unwind4@4    10028c26 f   LIBCMTD:exsup4.obj
 0001:00027c42       @_EH4_CallFilterFunc@8     10028c42 f   LIBCMTD:exsup4.obj
 0001:00027c59       @_EH4_TransferToHandler@8  10028c59 f   LIBCMTD:exsup4.obj
 0001:00027c72       @_EH4_GlobalUnwind2@8      10028c72 f   LIBCMTD:exsup4.obj
 0001:00027c8b       @_EH4_LocalUnwind@16       10028c8b f   LIBCMTD:exsup4.obj
 0001:00027cb0       __filbuf                   10028cb0 f   LIBCMTD:_filbuf.obj
 0001:00027f30       _memcpy_s                  10028f30 f   LIBCMTD:memcpy_s.obj
 0001:00028100       __read                     10029100 f   LIBCMTD:read.obj
 0001:000283e0       __read_nolock              100293e0 f   LIBCMTD:read.obj
 0001:00029630       __lseek                    1002a630 f   LIBCMTD:lseek.obj
 0001:00029890       __lseek_nolock             1002a890 f   LIBCMTD:lseek.obj
 0001:00029970       __lseeki64                 1002a970 f   LIBCMTD:lseeki64.obj
 0001:00029bf0       __lseeki64_nolock          1002abf0 f   LIBCMTD:lseeki64.obj
 0001:00029cc0       __alloca_probe             1002acc0     LIBCMTD:chkstk.obj
 0001:00029cc0       __chkstk                   1002acc0 f   LIBCMTD:chkstk.obj
 0001:00029cf0       __ioinit                   1002acf0 f   LIBCMTD:ioinit.obj
 0001:00029d20       __ioinit0                  1002ad20 f   LIBCMTD:ioinit.obj
 0001:00029d50       __ioinitCallback@12        1002ad50 f   LIBCMTD:ioinit.obj
 0001:0002a260       __ioterm                   1002b260 f   LIBCMTD:ioinit.obj
 0001:0002a300       _wcscpy_s                  1002b300 f   LIBCMTD:wcscpy_s.obj
 0001:0002a610       _wcslen                    1002b610 f   LIBCMTD:wcslen.obj
 0001:0002a650       ___swprintf_l              1002b650 f   LIBCMTD:swprintf.obj
 0001:0002a680       __scwprintf                1002b680 f   LIBCMTD:swprintf.obj
 0001:0002a6a0       __scwprintf_l              1002b6a0 f   LIBCMTD:swprintf.obj
 0001:0002a6d0       __scwprintf_p              1002b6d0 f   LIBCMTD:swprintf.obj
 0001:0002a6f0       __scwprintf_p_l            1002b6f0 f   LIBCMTD:swprintf.obj
 0001:0002a720       __snwprintf_s              1002b720 f   LIBCMTD:swprintf.obj
 0001:0002a750       __snwprintf_s_l            1002b750 f   LIBCMTD:swprintf.obj
 0001:0002a780       __swprintf                 1002b780 f   LIBCMTD:swprintf.obj
 0001:0002a9a0       __swprintf_p               1002b9a0 f   LIBCMTD:swprintf.obj
 0001:0002a9d0       __swprintf_p_l             1002b9d0 f   LIBCMTD:swprintf.obj
 0001:0002aa00       __swprintf_s_l             1002ba00 f   LIBCMTD:swprintf.obj
 0001:0002aa30       _swprintf_s                1002ba30 f   LIBCMTD:swprintf.obj
 0001:0002aa60       ___fpecode                 1002ba60 f   LIBCMTD:winsig.obj
 0001:0002aa70       ___get_sigabrt             1002ba70 f   LIBCMTD:winsig.obj
 0001:0002aa90       ___pxcptinfoptrs           1002ba90 f   LIBCMTD:winsig.obj
 0001:0002aaa0       __initp_misc_winsig        1002baa0 f   LIBCMTD:winsig.obj
 0001:0002abc0       _raise                     1002bbc0 f   LIBCMTD:winsig.obj
 0001:0002af30       _signal                    1002bf30 f   LIBCMTD:winsig.obj
 0001:0002b2e0       ___crtMessageBoxW          1002c2e0 f   LIBCMTD:crtmboxw.obj
 0001:0002b5f0       ___crtMessageBoxWaitThreadW@4 1002c5f0 f   LIBCMTD:crtmboxw.obj
 0001:0002b630       __CrtDbgBreak              1002c630 f   LIBCMTD:dbgrptt.obj
 0001:0002b640       __CrtGetReportHook         1002c640 f   LIBCMTD:dbgrptt.obj
 0001:0002b650       __CrtSetReportFile         1002c650 f   LIBCMTD:dbgrptt.obj
 0001:0002b750       __CrtSetReportHook         1002c750 f   LIBCMTD:dbgrptt.obj
 0001:0002b770       __CrtSetReportMode         1002c770 f   LIBCMTD:dbgrptt.obj
 0001:0002b8b0       __VCrtDbgReportA           1002c8b0 f   LIBCMTD:dbgrptt.obj
 0001:0002c120       __VCrtDbgReportW           1002d120 f   LIBCMTD:dbgrptt.obj
 0001:0002cbe0       ?_RTC_AllocaFailure@@YAXPAXPAU_RTC_ALLOCA_NODE@@H@Z 1002dbe0 f   LIBCMTD:error.obj
 0001:0002cd50       ?_RTC_Failure@@YAXPAXH@Z   1002dd50 f   LIBCMTD:error.obj
 0001:0002cda0       ?_RTC_StackFailure@@YAXPAXPBD@Z 1002dda0 f   LIBCMTD:error.obj
 0001:0002d100       __RTC_UninitUse            1002e100 f   LIBCMTD:error.obj
 0001:0002d200       ?_RTC_GetErrorFunc@@YAP6AHHPBDH00ZZPBX@Z 1002e200 f   LIBCMTD:userapi.obj
 0001:0002d210       ?_RTC_GetErrorFuncW@@YAP6AHHPB_WH00ZZPBX@Z 1002e210 f   LIBCMTD:userapi.obj
 0001:0002d220       __RTC_GetErrDesc           1002e220 f   LIBCMTD:userapi.obj
 0001:0002d240       __RTC_NumErrors            1002e240 f   LIBCMTD:userapi.obj
 0001:0002d250       __RTC_SetErrorFunc         1002e250 f   LIBCMTD:userapi.obj
 0001:0002d270       __RTC_SetErrorFuncW        1002e270 f   LIBCMTD:userapi.obj
 0001:0002d290       __RTC_SetErrorType         1002e290 f   LIBCMTD:userapi.obj
 0001:0002d2c0       __CRT_RTC_INIT             1002e2c0 f   LIBCMTD:chkesp.obj
 0001:0002d2d0       __CRT_RTC_INITW            1002e2d0 f   LIBCMTD:chkesp.obj
 0001:0002d2e0       __chkesp                   1002e2e0 f   LIBCMTD:chkesp.obj
 0001:0002d320       __CallSettingFrame@12      1002e320 f   LIBCMTD:lowhelpr.obj
 0001:0002d347       __NLG_Return               1002e347     LIBCMTD:lowhelpr.obj
 0001:0002d370       ?_inconsistency@@YAXXZ     1002e370 f   LIBCMTD:hooks.obj
 0001:0002d400       ?terminate@@YAXXZ          1002e400 f   LIBCMTD:hooks.obj
 0001:0002d480       ?unexpected@@YAXXZ         1002e480 f   LIBCMTD:hooks.obj
 0001:0002d4b0       __initp_eh_hooks           1002e4b0 f   LIBCMTD:hooks.obj
 0001:0002d4d0       ___DestructExceptionObject 1002e4d0 f   LIBCMTD:frame.obj
 0001:0002d5f0       ??0bad_exception@std@@QAE@ABV01@@Z 1002e5f0 f i LIBCMTD:frame.obj
 0001:0002d620       ??0bad_exception@std@@QAE@PBD@Z 1002e620 f i LIBCMTD:frame.obj
 0001:0002d650       ??1bad_exception@std@@UAE@XZ 1002e650 f i LIBCMTD:frame.obj
 0001:0002d670       ??_Ebad_exception@std@@UAEPAXI@Z 1002e670 f i LIBCMTD:frame.obj
 0001:0002d670       ??_Gbad_exception@std@@UAEPAXI@Z 1002e670 f i LIBCMTD:frame.obj
 0001:0002e270       ?__uncaught_exception@@YA_NXZ 1002f270 f   LIBCMTD:frame.obj
 0001:0002e2a0       ?_is_exception_typeof@@YAHABVtype_info@@PAU_EXCEPTION_POINTERS@@@Z 1002f2a0 f   LIBCMTD:frame.obj
 0001:0002e380       ___AdjustPointer           1002f380 f   LIBCMTD:frame.obj
 0001:0002e3d0       ___BuildCatchObject        1002f3d0 f   LIBCMTD:frame.obj
 0001:0002e4e0       ___BuildCatchObjectHelper  1002f4e0 f   LIBCMTD:frame.obj
 0001:0002e760       ___CxxDetectRethrow        1002f760 f   LIBCMTD:frame.obj
 0001:0002e7e0       ___CxxExceptionFilter      1002f7e0 f   LIBCMTD:frame.obj
 0001:0002e9e0       ___CxxQueryExceptionSize   1002f9e0 f   LIBCMTD:frame.obj
 0001:0002e9f0       ___CxxRegisterExceptionObject 1002f9f0 f   LIBCMTD:frame.obj
 0001:0002eb30       ___CxxUnregisterExceptionObject 1002fb30 f   LIBCMTD:frame.obj
 0001:0002ecb0       ___FrameUnwindFilter       1002fcb0 f   LIBCMTD:frame.obj
 0001:0002ed30       ___FrameUnwindToState      1002fd30 f   LIBCMTD:frame.obj
 0001:0002eeb0       ___InternalCxxFrameHandler 1002feb0 f   LIBCMTD:frame.obj
 0001:0002f020       ___TypeMatch               10030020 f   LIBCMTD:frame.obj
 0001:0002f0e0       ?_Name_base@type_info@@CAPBDPBV1@PAU__type_info_node@@@Z 100300e0 f   LIBCMTD:typname.obj
 0001:0002f290       ?_Name_base_internal@type_info@@CAPBDPBV1@PAU__type_info_node@@@Z 10030290 f   LIBCMTD:typname.obj
 0001:0002f450       ?_Type_info_dtor@type_info@@CAXPAV1@@Z 10030450 f   LIBCMTD:typname.obj
 0001:0002f560       ?_Type_info_dtor_internal@type_info@@CAXPAV1@@Z 10030560 f   LIBCMTD:typname.obj
 0001:0002f670       ___clean_type_info_names_internal 10030670 f   LIBCMTD:typname.obj
 0001:0002f720       ___unDNameHelper           10030720 f   LIBCMTD:typname.obj
 0001:0002f760       ?strrchr@@YAPADPADH@Z      10030760 f i LIBCMTD:cvt.obj
 0001:0002f780       __cfltcvt                  10030780 f   LIBCMTD:cvt.obj
 0001:0002f7b0       __cfltcvt_l                100307b0 f   LIBCMTD:cvt.obj
 0001:0002f870       __cftoa                    10030870 f   LIBCMTD:cvt.obj
 0001:0002f8a0       __cftoa_l                  100308a0 f   LIBCMTD:cvt.obj
 0001:00030110       __cftoe                    10031110 f   LIBCMTD:cvt.obj
 0001:00030550       __cftoe_l                  10031550 f   LIBCMTD:cvt.obj
 0001:00030780       __cftof                    10031780 f   LIBCMTD:cvt.obj
 0001:00030a30       __cftof_l                  10031a30 f   LIBCMTD:cvt.obj
 0001:00030c30       __cftog                    10031c30 f   LIBCMTD:cvt.obj
 0001:00030c60       __cftog_l                  10031c60 f   LIBCMTD:cvt.obj
 0001:00030ef0       __cropzeros                10031ef0 f   LIBCMTD:cvt.obj
 0001:00030f10       __cropzeros_l              10031f10 f   LIBCMTD:cvt.obj
 0001:00031030       __fassign                  10032030 f   LIBCMTD:cvt.obj
 0001:00031050       __fassign_l                10032050 f   LIBCMTD:cvt.obj
 0001:000310a0       __forcdecpt                100320a0 f   LIBCMTD:cvt.obj
 0001:000310c0       __forcdecpt_l              100320c0 f   LIBCMTD:cvt.obj
 0001:00031190       __positive                 10032190 f   LIBCMTD:cvt.obj
 0001:000311f0       __setdefaultprecision      100321f0 f   LIBCMTD:fp8.obj
 0001:00031230       __initp_misc_cfltcvt_tab   10032230 f   LIBCMTD:cmiscdat.obj
 0001:00031270       __XcptFilter               10032270 f   LIBCMTD:winxfltr.obj
 0001:00031470       ___CppXcptFilter           10032470 f   LIBCMTD:winxfltr.obj
 0001:00031500       __get_heap_handle          10032500 f   LIBCMTD:heapinit.obj
 0001:00031540       __heap_init                10032540 f   LIBCMTD:heapinit.obj
 0001:00031570       __heap_term                10032570 f   LIBCMTD:heapinit.obj
 0001:00031580       __set_pgmptr               10032580 f i LIBCMTD:stdargv.obj
 0001:00031590       __setargv                  10032590 f   LIBCMTD:stdargv.obj
 0001:00031a60       __setenvp                  10032a60 f   LIBCMTD:stdenvp.obj
 0001:00031c00       ___security_init_cookie    10032c00 f   LIBCMTD:gs_support.obj
 0001:00031ce0       _DllMain@12                10032ce0 f   LIBCMTD:dllmain.obj
 0001:00031cf0       ___crtGetEnvironmentStringsA 10032cf0 f   LIBCMTD:a_env.obj
 0001:00031df0       __RTC_Initialize           10032df0 f   LIBCMTD:initsect.obj
 0001:00031e20       __RTC_Terminate            10032e20 f   LIBCMTD:initsect.obj
 0001:00031e50       __flsbuf                   10032e50 f   LIBCMTD:_flsbuf.obj
 0001:00032140       __output_l                 10033140 f   LIBCMTD:output.obj
 0001:00033800       _get_int64_arg             10034800 f i LIBCMTD:output.obj
 0001:00033820       _get_int_arg               10034820 f i LIBCMTD:output.obj
 0001:00033840       _get_short_arg             10034840 f i LIBCMTD:output.obj
 0001:00033a00       __vscprintf                10034a00 f   LIBCMTD:vsprintf.obj
 0001:00033a20       __vscprintf_helper         10034a20 f   LIBCMTD:vsprintf.obj
 0001:00033b10       __vscprintf_l              10034b10 f   LIBCMTD:vsprintf.obj
 0001:00033b30       __vscprintf_p              10034b30 f   LIBCMTD:vsprintf.obj
 0001:00033b50       __vscprintf_p_l            10034b50 f   LIBCMTD:vsprintf.obj
 0001:00033b70       __vsprintf_l               10034b70 f   LIBCMTD:vsprintf.obj
 0001:00033d30       _vsprintf                  10034d30 f   LIBCMTD:vsprintf.obj
 0001:00033d50       __vsnprintf_c              10034d50 f   LIBCMTD:vsnprnc.obj
 0001:00033da0       __vsnprintf_c_l            10034da0 f   LIBCMTD:vsnprnc.obj
 0001:00033df0       __vsnprintf_helper         10034df0 f   LIBCMTD:vsnprnc.obj
 0001:00033ff0       __vsnprintf_s              10034ff0 f   LIBCMTD:vsnprnc.obj
 0001:00034020       __vsnprintf_s_l            10035020 f   LIBCMTD:vsnprnc.obj
 0001:000343e0       __vsprintf_p               100353e0 f   LIBCMTD:vsnprnc.obj
 0001:00034430       __vsprintf_p_l             10035430 f   LIBCMTD:vsnprnc.obj
 0001:00034480       __vsprintf_s_l             10035480 f   LIBCMTD:vsnprnc.obj
 0001:00034710       _vsprintf_s                10035710 f   LIBCMTD:vsnprnc.obj
 0001:00034730       _wcscat_s                  10035730 f   LIBCMTD:wcscat_s.obj
 0001:00034b40       _wcsncpy_s                 10035b40 f   LIBCMTD:wcsncpy_s.obj
 0001:00034f70       ___set_app_type            10035f70 f   LIBCMTD:errmode.obj
 0001:00034f80       __set_error_mode           10035f80 f   LIBCMTD:errmode.obj
 0001:00035040       _strncpy_s                 10036040 f   LIBCMTD:strncpy_s.obj
 0001:00035570       ___crtGetLocaleInfoA       10036570 f   LIBCMTD:a_loc.obj
 0001:000355c0       ___crtCompareStringEx      100365c0 f   LIBCMTD:winapinls.obj
 0001:000355f0       ___crtEnumSystemLocalesEx  100365f0 f   LIBCMTD:winapinls.obj
 0001:00035610       ___crtGetDateFormatEx      10036610 f   LIBCMTD:winapinls.obj
 0001:00035640       ___crtGetLocaleInfoEx      10036640 f   LIBCMTD:winapinls.obj
 0001:00035660       ___crtGetTimeFormatEx      10036660 f   LIBCMTD:winapinls.obj
 0001:00035690       ___crtGetUserDefaultLocaleName 10036690 f   LIBCMTD:winapinls.obj
 0001:000356b0       ___crtIsValidLocaleName    100366b0 f   LIBCMTD:winapinls.obj
 0001:000356c0       ___crtLCMapStringEx        100366c0 f   LIBCMTD:winapinls.obj
 0001:000356f0       __chvalidator              100366f0 f   LIBCMTD:isctype.obj
 0001:00035740       __chvalidator_l            10036740 f   LIBCMTD:isctype.obj
 0001:00035800       __isctype                  10036800 f   LIBCMTD:isctype.obj
 0001:00035840       __isctype_l                10036840 f   LIBCMTD:isctype.obj
 0001:00035990       __free_base                10036990 f   LIBCMTD:free.obj
 0001:000359e0       __realloc_base             100369e0 f   LIBCMTD:realloc.obj
 0001:00035ae0       __expand_base              10036ae0 f   LIBCMTD:expand.obj
 0001:00035c50       __CrtDbgReport             10036c50 f   LIBCMTD:dbgrpt.obj
 0001:00035ca0       __CrtDbgReportV            10036ca0 f i LIBCMTD:dbgrpt.obj
 0001:00035cd0       __CrtSetReportHook2        10036cd0 f   LIBCMTD:dbgrpt.obj
 0001:00036020       ___crtMessageWindowA       10037020 f   LIBCMTD:dbgrpt.obj
 0001:000364c0       __heapchk                  100374c0 f   LIBCMTD:heapchk.obj
 0001:000364f0       __heapset                  100374f0 f   LIBCMTD:heapchk.obj
 0001:00036500       __heap_alloc_base          10037500 f i LIBCMTD:malloc.obj
 0001:00036560       __malloc_base              10037560 f   LIBCMTD:malloc.obj
 0001:000365f0       __FindPESection            100375f0 f   LIBCMTD:pesect.obj
 0001:00036670       __IsNonwritableInCurrentImage 10037670 f   LIBCMTD:pesect.obj
 0001:000367a0       __ValidateImageBase        100377a0 f   LIBCMTD:pesect.obj
 0001:00036800       __initp_misc_rand_s        10037800 f   LIBCMTD:rand_s.obj
 0001:00036810       _rand_s                    10037810 f   LIBCMTD:rand_s.obj
 0001:00036a80       __ftbuf                    10037a80 f   LIBCMTD:_sftbuf.obj
 0001:00036b10       __stbuf                    10037b10 f   LIBCMTD:_sftbuf.obj
 0001:00036c80       ___free_lconv_mon          10037c80 f   LIBCMTD:initmon.obj
 0001:00036e30       ___init_monetary           10037e30 f   LIBCMTD:initmon.obj
 0001:00037440       ___free_lconv_num          10038440 f   LIBCMTD:initnum.obj
 0001:000374f0       ___init_numeric            100384f0 f   LIBCMTD:initnum.obj
 0001:000378c0       ___free_lc_time            100388c0 f   LIBCMTD:inittime.obj
 0001:000381f0       ___init_time               100391f0 f   LIBCMTD:inittime.obj
 0001:000391f0       _localeconv                1003a1f0 f   LIBCMTD:lconv.obj
 0001:00039350       ___crtGetStringTypeA       1003a350 f   LIBCMTD:a_str.obj
 0001:000393a0       ___pctype_func             1003a3a0 f   LIBCMTD:ctype.obj
 0001:000393f0       ___pwctype_func            1003a3f0 f   LIBCMTD:ctype.obj
 0001:00039400       ___init_collate            1003a400 f   LIBCMTD:initcoll.obj
 0001:00039410       ____lc_codepage_func       1003a410 f   LIBCMTD:initctyp.obj
 0001:00039460       ____lc_collate_cp_func     1003a460 f   LIBCMTD:initctyp.obj
 0001:000394b0       ____lc_locale_name_func    1003a4b0 f   LIBCMTD:initctyp.obj
 0001:00039500       ____mb_cur_max_func        1003a500 f   LIBCMTD:initctyp.obj
 0001:00039550       ____mb_cur_max_l_func      1003a550 f   LIBCMTD:initctyp.obj
 0001:00039580       ___init_ctype              1003a580 f   LIBCMTD:initctyp.obj
 0001:00039d70       _memcmp                    1003ad70 f   LIBCMTD:memcmp.obj
 0001:0003a640       _wcscmp                    1003b640 f   LIBCMTD:wcscmp.obj
 0001:0003a6a0       _wcscspn                   1003b6a0 f   LIBCMTD:wcscspn.obj
 0001:0003a710       _wcsnlen                   1003b710 f   LIBCMTD:wcslen_s.obj
 0001:0003a750       _wcsncmp                   1003b750 f   LIBCMTD:wcsncmp.obj
 0001:0003a7b0       _wcspbrk                   1003b7b0 f   LIBCMTD:wcspbrk.obj
 0001:0003b350       ___get_qualified_locale    1003c350 f   LIBCMTD:getqloc.obj
 0001:0003b600       __fcloseall                1003c600 f   LIBCMTD:closeall.obj
 0001:0003b730       ___lock_fhandle            1003c730 f   LIBCMTD:osfinfo.obj
 0001:0003b820       __alloc_osfhnd             1003c820 f   LIBCMTD:osfinfo.obj
 0001:0003bad0       __free_osfhnd              1003cad0 f   LIBCMTD:osfinfo.obj
 0001:0003bbc0       __get_osfhandle            1003cbc0 f   LIBCMTD:osfinfo.obj
 0001:0003bd50       __open_osfhandle           1003cd50 f   LIBCMTD:osfinfo.obj
 0001:0003bf80       __set_osfhnd               1003cf80 f   LIBCMTD:osfinfo.obj
 0001:0003c050       __unlock_fhandle           1003d050 f   LIBCMTD:osfinfo.obj
 0001:0003c080       __commit                   1003d080 f   LIBCMTD:commit.obj
 0001:0003c2d0       __write                    1003d2d0 f   LIBCMTD:write.obj
 0001:0003c530       __write_nolock             1003d530 f   LIBCMTD:write.obj
 0001:0003d340       __open                     1003e340 f   LIBCMTD:open.obj
 0001:0003d4d0       __sopen                    1003e4d0 f   LIBCMTD:open.obj
 0001:0003d540       __sopen_helper             1003e540 f   LIBCMTD:open.obj
 0001:0003d7d0       __sopen_nolock             1003e7d0 f   LIBCMTD:open.obj
 0001:0003d840       __sopen_s                  1003e840 f   LIBCMTD:open.obj
 0001:0003d870       __mbsnbcmp                 1003e870 f   LIBCMTD:mbsnbcmp.obj
 0001:0003d890       __mbsnbcmp_l               1003e890 f   LIBCMTD:mbsnbcmp.obj
 0001:0003dbb0       __mbsnbicmp                1003ebb0 f   LIBCMTD:mbsnbicm.obj
 0001:0003dbd0       __mbsnbicmp_l              1003ebd0 f   LIBCMTD:mbsnbicm.obj
 0001:0003e110       __global_unwind2           1003f110 f   LIBCMTD:exsup.obj
 0001:0003e175       __local_unwind2            1003f175 f   LIBCMTD:exsup.obj
 0001:0003e1f9       __abnormal_termination     1003f1f9 f   LIBCMTD:exsup.obj
 0001:0003e21c       __NLG_Notify1              1003f21c f   LIBCMTD:exsup.obj
 0001:0003e225       __NLG_Notify               1003f225 f   LIBCMTD:exsup.obj
 0001:0003e23c       __NLG_Dispatch             1003f23c     LIBCMTD:exsup.obj
 0001:0003e23c       __NLG_Dispatch2            1003f23c     LIBCMTD:exsup.obj
 0001:0003e244       __NLG_Call                 1003f244 f   LIBCMTD:exsup.obj
 0001:0003e246       __NLG_Return2              1003f246     LIBCMTD:exsup.obj
 0001:0003e250       __getbuf                   1003f250 f   LIBCMTD:_getbuf.obj
 0001:0003e320       __isatty                   1003f320 f   LIBCMTD:isatty.obj
 0001:0003e400       ___vswprintf_l             1003f400 f   LIBCMTD:vswprint.obj
 0001:0003e420       __vscwprintf               1003f420 f   LIBCMTD:vswprint.obj
 0001:0003e440       __vscwprintf_helper        1003f440 f   LIBCMTD:vswprint.obj
 0001:0003e530       __vscwprintf_l             1003f530 f   LIBCMTD:vswprint.obj
 0001:0003e550       __vscwprintf_p             1003f550 f   LIBCMTD:vswprint.obj
 0001:0003e570       __vscwprintf_p_l           1003f570 f   LIBCMTD:vswprint.obj
 0001:0003e590       __vswprintf                1003f590 f   LIBCMTD:vswprint.obj
 0001:0003e5b0       __vswprintf_l              1003f5b0 f   LIBCMTD:vswprint.obj
 0001:0003e7d0       __vsnwprintf_s             1003f7d0 f   LIBCMTD:vswprnc.obj
 0001:0003e800       __vsnwprintf_s_l           1003f800 f   LIBCMTD:vswprnc.obj
 0001:0003ebe0       __vswprintf_c              1003fbe0 f   LIBCMTD:vswprnc.obj
 0001:0003ec30       __vswprintf_c_l            1003fc30 f   LIBCMTD:vswprnc.obj
 0001:0003ec80       __vswprintf_helper         1003fc80 f   LIBCMTD:vswprnc.obj
 0001:0003eef0       __vswprintf_p              1003fef0 f   LIBCMTD:vswprnc.obj
 0001:0003ef40       __vswprintf_p_l            1003ff40 f   LIBCMTD:vswprnc.obj
 0001:0003efa0       __vswprintf_s_l            1003ffa0 f   LIBCMTD:vswprnc.obj
 0001:0003f230       _vswprintf_s               10040230 f   LIBCMTD:vswprnc.obj
 0001:0003f250       __woutput_l                10040250 f   LIBCMTD:woutput.obj
 0001:00040850       _strcat_s                  10041850 f   LIBCMTD:strcat_s.obj
 0001:00041080       __i64toa_s                 10042080 f   LIBCMTD:xtoas.obj
 0001:000410d0       __itoa_s                   100420d0 f   LIBCMTD:xtoas.obj
 0001:00041130       __ltoa_s                   10042130 f   LIBCMTD:xtoas.obj
 0001:00041170       __ui64toa_s                10042170 f   LIBCMTD:xtoas.obj
 0001:00041190       __ultoa_s                  10042190 f   LIBCMTD:xtoas.obj
 0001:00041590       __mbstowcs_l               10042590 f   LIBCMTD:mbstowcs.obj
 0001:000415b0       __mbstowcs_l_helper        100425b0 f   LIBCMTD:mbstowcs.obj
 0001:00041940       __mbstowcs_s_l             10042940 f   LIBCMTD:mbstowcs.obj
 0001:00041d00       _mbstowcs                  10042d00 f   LIBCMTD:mbstowcs.obj
 0001:00041d50       _mbstowcs_s                10042d50 f   LIBCMTD:mbstowcs.obj
 0001:00041de0       __wcstombs_l               10042de0 f   LIBCMTD:wcstombs.obj
 0001:00041e00       __wcstombs_l_helper        10042e00 f   LIBCMTD:wcstombs.obj
 0001:00042310       __wcstombs_s_l             10043310 f   LIBCMTD:wcstombs.obj
 0001:00042670       _wcstombs                  10043670 f   LIBCMTD:wcstombs.obj
 0001:00042690       _wcstombs_s                10043690 f   LIBCMTD:wcstombs.obj
 0001:00042b00       __i64tow_s                 10043b00 f   LIBCMTD:xtows.obj
 0001:00042b50       __itow_s                   10043b50 f   LIBCMTD:xtows.obj
 0001:00042bb0       __ltow_s                   10043bb0 f   LIBCMTD:xtows.obj
 0001:00042bf0       __ui64tow_s                10043bf0 f   LIBCMTD:xtows.obj
 0001:00042c10       __ultow_s                  10043c10 f   LIBCMTD:xtows.obj
 0001:00043460       ?_RTC_GetSrcLine@@YAHPAEPA_WKPAH1K@Z 10044460 f   LIBCMTD:pdblkup.obj
 0001:00043710       ?_ValidateExecute@@YAHP6GHXZ@Z 10044710 f   LIBCMTD:validate.obj
 0001:00043730       ?_ValidateRead@@YAHPBXI@Z  10044730 f   LIBCMTD:validate.obj
 0001:00043750       ?_ValidateWrite@@YAHPAXI@Z 10044750 f   LIBCMTD:validate.obj
 0001:00043770       ??0Block@_HeapManager@@QAE@XZ 10044770 f i LIBCMTD:undname.obj
 0001:00043790       ??0DName@@QAE@AAPBDD@Z     10044790 f   LIBCMTD:undname.obj
 0001:00043a50       ??0DName@@QAE@ABV0@@Z      10044a50 f i LIBCMTD:undname.obj
 0001:00043a70       ??0DName@@QAE@D@Z          10044a70 f   LIBCMTD:undname.obj
 0001:00043b50       ??0DName@@QAE@PAV0@@Z      10044b50 f   LIBCMTD:undname.obj
 0001:00043c90       ??0DName@@QAE@PBD@Z        10044c90 f   LIBCMTD:undname.obj
 0001:00043d80       ??0DName@@QAE@W4DNameStatus@@@Z 10044d80 f   LIBCMTD:undname.obj
 0001:00043ea0       ??0DName@@QAE@XZ           10044ea0 f i LIBCMTD:undname.obj
 0001:00043f60       ??0DName@@QAE@_J@Z         10044f60 f   LIBCMTD:undname.obj
 0001:000440e0       ??0DName@@QAE@_K@Z         100450e0 f   LIBCMTD:undname.obj
 0001:00044220       ??0DNameNode@@IAE@XZ       10045220 f   LIBCMTD:undname.obj
 0001:00044240       ??0DNameStatusNode@@AAE@W4DNameStatus@@@Z 10045240 f   LIBCMTD:undname.obj
 0001:00044290       ??0Replicator@@QAE@XZ      10045290 f i LIBCMTD:undname.obj
 0001:000442b0       ??0UnDecorator@@QAE@PADPBDHP6APADJ@ZK@Z 100452b0 f i LIBCMTD:undname.obj
 0001:00044350       ??0charNode@@QAE@D@Z       10045350 f   LIBCMTD:undname.obj
 0001:00044380       ??0pDNameNode@@QAE@PAVDName@@@Z 10045380 f   LIBCMTD:undname.obj
 0001:000443e0       ??0pairNode@@QAE@PAVDNameNode@@0@Z 100453e0 f   LIBCMTD:undname.obj
 0001:00044420       ??0pcharNode@@QAE@PBDH@Z   10045420 f   LIBCMTD:undname.obj
 0001:000444c0       ??2@YAPAXIAAV_HeapManager@@H@Z 100454c0 f i LIBCMTD:undname.obj
 0001:000444e0       ??4DName@@QAEAAV0@ABV0@@Z  100454e0 f   LIBCMTD:undname.obj
 0001:00044500       ??4DName@@QAEAAV0@D@Z      10045500 f i LIBCMTD:undname.obj
 0001:000445e0       ??4DName@@QAEAAV0@PAV0@@Z  100455e0 f   LIBCMTD:undname.obj
 0001:00044710       ??4DName@@QAEAAV0@PBD@Z    10045710 f   LIBCMTD:undname.obj
 0001:000447f0       ??4DName@@QAEAAV0@W4DNameStatus@@@Z 100457f0 f   LIBCMTD:undname.obj
 0001:000448f0       ??AReplicator@@QBE?AVDName@@H@Z 100458f0 f   LIBCMTD:undname.obj
 0001:00044960       ??BUnDecorator@@QAEPADXZ   10045960 f i LIBCMTD:undname.obj
 0001:00044bf0       ??H@YA?AVDName@@DABV0@@Z   10045bf0 f i LIBCMTD:undname.obj
 0001:00044c20       ??H@YA?AVDName@@PBDABV0@@Z 10045c20 f i LIBCMTD:undname.obj
 0001:00044c50       ??H@YA?AVDName@@W4DNameStatus@@ABV0@@Z 10045c50 f i LIBCMTD:undname.obj
 0001:00044c80       ??HDName@@QBE?AV0@ABV0@@Z  10045c80 f   LIBCMTD:undname.obj
 0001:00044cc0       ??HDName@@QBE?AV0@D@Z      10045cc0 f   LIBCMTD:undname.obj
 0001:00044d00       ??HDName@@QBE?AV0@PAV0@@Z  10045d00 f   LIBCMTD:undname.obj
 0001:00044d40       ??HDName@@QBE?AV0@PBD@Z    10045d40 f   LIBCMTD:undname.obj
 0001:00044d80       ??HDName@@QBE?AV0@W4DNameStatus@@@Z 10045d80 f   LIBCMTD:undname.obj
 0001:00044dc0       ??YDName@@QAEAAV0@ABV0@@Z  10045dc0 f   LIBCMTD:undname.obj
 0001:00044e30       ??YDName@@QAEAAV0@D@Z      10045e30 f   LIBCMTD:undname.obj
 0001:00044eb0       ??YDName@@QAEAAV0@PAV0@@Z  10045eb0 f   LIBCMTD:undname.obj
 0001:00044f60       ??YDName@@QAEAAV0@PBD@Z    10045f60 f   LIBCMTD:undname.obj
 0001:00045000       ??YDName@@QAEAAV0@W4DNameStatus@@@Z 10046000 f   LIBCMTD:undname.obj
 0001:00045060       ??YReplicator@@QAEAAV0@ABVDName@@@Z 10046060 f   LIBCMTD:undname.obj
 0001:000450f0       ??_5DName@@QAEAAV0@ABV0@@Z 100460f0 f   LIBCMTD:undname.obj
 0001:00045150       ?Constructor@_HeapManager@@QAEXP6APAXI@ZP6AXPAX@Z@Z 10046150 f i LIBCMTD:undname.obj
 0001:00045190       ?Destructor@_HeapManager@@QAEXXZ 10046190 f i LIBCMTD:undname.obj
 0001:000451e0       ?UScore@UnDecorator@@SAPBDW4Tokens@@@Z 100461e0 f   LIBCMTD:undname.obj
 0001:00045210       ?append@DName@@AAEXPAVDNameNode@@@Z 10046210 f   LIBCMTD:undname.obj
 0001:000452a0       ?composeDeclaration@UnDecorator@@CA?AVDName@@ABV2@@Z 100462a0 f i LIBCMTD:undname.obj
 0001:00046f20       ?dbGetString@DName@@QBEPADXZ 10047f20 f   LIBCMTD:undname.obj
 0001:00046f40       ?doAccessSpecifiers@UnDecorator@@SAHXZ 10047f40 f i LIBCMTD:undname.obj
 0001:00046f70       ?doAllocationLanguage@UnDecorator@@SAHXZ 10047f70 f i LIBCMTD:undname.obj
 0001:00046fa0       ?doAllocationModel@UnDecorator@@SAHXZ 10047fa0 f i LIBCMTD:undname.obj
 0001:00046fd0       ?doEcsu@UnDecorator@@SAHXZ 10047fd0 f i LIBCMTD:undname.obj
 0001:00047000       ?doEllipsis@UnDecorator@@SAHXZ 10048000 f i LIBCMTD:undname.obj
 0001:00047030       ?doFunctionReturns@UnDecorator@@SAHXZ 10048030 f i LIBCMTD:undname.obj
 0001:00047060       ?doMSKeywords@UnDecorator@@SAHXZ 10048060 f i LIBCMTD:undname.obj
 0001:00047090       ?doMemberTypes@UnDecorator@@SAHXZ 10048090 f i LIBCMTD:undname.obj
 0001:000470c0       ?doNameOnly@UnDecorator@@SAHXZ 100480c0 f i LIBCMTD:undname.obj
 0001:000470d0       ?doNoIdentCharCheck@UnDecorator@@SAHXZ 100480d0 f i LIBCMTD:undname.obj
 0001:000470e0       ?doPchar@DName@@AAEXPBDH@Z 100480e0 f   LIBCMTD:undname.obj
 0001:00047220       ?doPtr64@UnDecorator@@SAHXZ 10048220 f i LIBCMTD:undname.obj
 0001:00047250       ?doRestrictionSpec@UnDecorator@@SAHXZ 10048250 f i LIBCMTD:undname.obj
 0001:00047280       ?doThisTypes@UnDecorator@@SAHXZ 10048280 f i LIBCMTD:undname.obj
 0001:000472b0       ?doThrowTypes@UnDecorator@@SAHXZ 100482b0 f i LIBCMTD:undname.obj
 0001:000472e0       ?doTypeOnly@UnDecorator@@SAHXZ 100482e0 f i LIBCMTD:undname.obj
 0001:000472f0       ?doUnderScore@UnDecorator@@SAHXZ 100482f0 f i LIBCMTD:undname.obj
 0001:00047320       ?getArgumentList@UnDecorator@@CA?AVDName@@XZ 10048320 f   LIBCMTD:undname.obj
 0001:00047470       ?getArgumentTypes@UnDecorator@@CA?AVDName@@XZ 10048470 f   LIBCMTD:undname.obj
 0001:000475d0       ?getArrayType@UnDecorator@@CA?AVDName@@ABV2@@Z 100485d0 f i LIBCMTD:undname.obj
 0001:00047810       ?getBasedType@UnDecorator@@CA?AVDName@@XZ 10048810 f   LIBCMTD:undname.obj
 0001:000478d0       ?getBasicDataType@UnDecorator@@CA?AVDName@@ABV2@@Z 100488d0 f   LIBCMTD:undname.obj
 0001:00047e90       ?getCallIndex@UnDecorator@@CA?AVDName@@XZ 10048e90 f i LIBCMTD:undname.obj
 0001:00047eb0       ?getCallingConvention@UnDecorator@@CA?AVDName@@XZ 10048eb0 f   LIBCMTD:undname.obj
 0001:00048020       ?getDataIndirectType@UnDecorator@@CA?AVDName@@ABV2@PBD0H@Z 10049020 f   LIBCMTD:undname.obj
 0001:00048730       ?getDataIndirectType@UnDecorator@@CA?AVDName@@XZ 10049730 f i LIBCMTD:undname.obj
 0001:00048770       ?getDataType@UnDecorator@@CA?AVDName@@PAV2@@Z 10049770 f   LIBCMTD:undname.obj
 0001:00048890       ?getDecoratedName@UnDecorator@@CA?AVDName@@XZ 10049890 f   LIBCMTD:undname.obj
 0001:00048bc0       ?getDimension@UnDecorator@@CA?AVDName@@_N@Z 10049bc0 f   LIBCMTD:undname.obj
 0001:00048e70       ?getDispatchTarget@UnDecorator@@CA?AVDName@@XZ 10049e70 f   LIBCMTD:undname.obj
 0001:00048f10       ?getDisplacement@UnDecorator@@CA?AVDName@@XZ 10049f10 f i LIBCMTD:undname.obj
 0001:00048f30       ?getECSUDataType@UnDecorator@@CA?AVDName@@XZ 10049f30 f   LIBCMTD:undname.obj
 0001:00049100       ?getECSUName@UnDecorator@@CA?AVDName@@XZ 1004a100 f i LIBCMTD:undname.obj
 0001:00049120       ?getEnumType@UnDecorator@@CA?AVDName@@XZ 1004a120 f i LIBCMTD:undname.obj
 0001:00049270       ?getExtendedDataIndirectType@UnDecorator@@CA?AVDName@@AAPBDAA_NH@Z 1004a270 f   LIBCMTD:undname.obj
 0001:000494c0       ?getExternalDataType@UnDecorator@@CA?AVDName@@ABV2@@Z 1004a4c0 f i LIBCMTD:undname.obj
 0001:00049550       ?getFunctionIndirectType@UnDecorator@@CA?AVDName@@ABV2@@Z 1004a550 f   LIBCMTD:undname.obj
 0001:000499c0       ?getGuardNumber@UnDecorator@@CA?AVDName@@XZ 1004a9c0 f i LIBCMTD:undname.obj
 0001:000499e0       ?getLastChar@DName@@QBEDXZ 1004a9e0 f i LIBCMTD:undname.obj
 0001:00049a10       ?getLastChar@DNameStatusNode@@UBEDXZ 1004aa10 f i LIBCMTD:undname.obj
 0001:00049a40       ?getLastChar@charNode@@UBEDXZ 1004aa40 f i LIBCMTD:undname.obj
 0001:00049a60       ?getLastChar@pDNameNode@@UBEDXZ 1004aa60 f i LIBCMTD:undname.obj
 0001:00049a90       ?getLastChar@pairNode@@UBEDXZ 1004aa90 f i LIBCMTD:undname.obj
 0001:00049ae0       ?getLastChar@pcharNode@@UBEDXZ 1004aae0 f i LIBCMTD:undname.obj
 0001:00049b20       ?getLexicalFrame@UnDecorator@@CA?AVDName@@XZ 1004ab20 f i LIBCMTD:undname.obj
 0001:00049b60       ?getMemory@_HeapManager@@QAEPAXIH@Z 1004ab60 f   LIBCMTD:undname.obj
 0001:00049c70       ?getNumberOfDimensions@UnDecorator@@CAHXZ 1004ac70 f   LIBCMTD:undname.obj
 0001:00049d70       ?getOperatorName@UnDecorator@@CA?AVDName@@_NPA_N@Z 1004ad70 f i LIBCMTD:undname.obj
 0001:0004a700       ?getPointerType@UnDecorator@@CA?AVDName@@ABV2@0@Z 1004b700 f i LIBCMTD:undname.obj
 0001:0004a730       ?getPointerTypeArray@UnDecorator@@CA?AVDName@@ABV2@0@Z 1004b730 f i LIBCMTD:undname.obj
 0001:0004a760       ?getPrimaryDataType@UnDecorator@@CA?AVDName@@ABV2@@Z 1004b760 f   LIBCMTD:undname.obj
 0001:0004ab00       ?getPtrRefDataType@UnDecorator@@CA?AVDName@@ABV2@H@Z 1004bb00 f i LIBCMTD:undname.obj
 0001:0004ac40       ?getPtrRefType@UnDecorator@@CA?AVDName@@ABV2@0PBD@Z 1004bc40 f   LIBCMTD:undname.obj
 0001:0004adb0       ?getReferenceType@UnDecorator@@CA?AVDName@@ABV2@0PBD@Z 1004bdb0 f i LIBCMTD:undname.obj
 0001:0004add0       ?getRestrictionSpec@UnDecorator@@CA?AVDName@@XZ 1004bdd0 f   LIBCMTD:undname.obj
 0001:0004af20       ?getReturnType@UnDecorator@@CA?AVDName@@PAV2@@Z 1004bf20 f   LIBCMTD:undname.obj
 0001:0004af70       ?getScope@UnDecorator@@CA?AVDName@@XZ 1004bf70 f   LIBCMTD:undname.obj
 0001:0004b460       ?getScopedName@UnDecorator@@CA?AVDName@@XZ 1004c460 f   LIBCMTD:undname.obj
 0001:0004b580       ?getSignedDimension@UnDecorator@@CA?AVDName@@XZ 1004c580 f   LIBCMTD:undname.obj
 0001:0004b600       ?getStorageConvention@UnDecorator@@CA?AVDName@@XZ 1004c600 f i LIBCMTD:undname.obj
 0001:0004b620       ?getString@DName@@QBEPADPAD0@Z 1004c620 f i LIBCMTD:undname.obj
 0001:0004b660       ?getString@DName@@QBEPADPADH@Z 1004c660 f i LIBCMTD:undname.obj
 0001:0004b6f0       ?getString@DNameStatusNode@@UBEPADPAD0@Z 1004c6f0 f i LIBCMTD:undname.obj
 0001:0004b730       ?getString@charNode@@UBEPADPAD0@Z 1004c730 f i LIBCMTD:undname.obj
 0001:0004b760       ?getString@pDNameNode@@UBEPADPAD0@Z 1004c760 f i LIBCMTD:undname.obj
 0001:0004b7a0       ?getString@pairNode@@UBEPADPAD0@Z 1004c7a0 f i LIBCMTD:undname.obj
 0001:0004b800       ?getString@pcharNode@@UBEPADPAD0@Z 1004c800 f i LIBCMTD:undname.obj
 0001:0004b830       ?getStringEncoding@UnDecorator@@CA?AVDName@@PADH@Z 1004c830 f   LIBCMTD:undname.obj
 0001:0004b940       ?getStringHelper@@YAPADPAD00H@Z 1004c940 f i LIBCMTD:undname.obj
 0001:0004b980       ?getSymbolName@UnDecorator@@CA?AVDName@@XZ 1004c980 f i LIBCMTD:undname.obj
 0001:0004ba10       ?getTemplateArgumentList@UnDecorator@@CA?AVDName@@XZ 1004ca10 f   LIBCMTD:undname.obj
 0001:0004bc90       ?getTemplateConstant@UnDecorator@@CA?AVDName@@XZ 1004cc90 f   LIBCMTD:undname.obj
 0001:0004c160       ?getTemplateName@UnDecorator@@CA?AVDName@@_N@Z 1004d160 f   LIBCMTD:undname.obj
 0001:0004c330       ?getThisType@UnDecorator@@CA?AVDName@@XZ 1004d330 f i LIBCMTD:undname.obj
 0001:0004c370       ?getThrowTypes@UnDecorator@@CA?AVDName@@XZ 1004d370 f   LIBCMTD:undname.obj
 0001:0004c420       ?getTypeEncoding@UnDecorator@@CAHXZ 1004d420 f i LIBCMTD:undname.obj
 0001:0004ce60       ?getVCallThunkType@UnDecorator@@CA?AVDName@@XZ 1004de60 f i LIBCMTD:undname.obj
 0001:0004cec0       ?getVbTableType@UnDecorator@@CA?AVDName@@ABV2@@Z 1004dec0 f i LIBCMTD:undname.obj
 0001:0004cee0       ?getVdispMapType@UnDecorator@@CA?AVDName@@ABV2@@Z 1004dee0 f i LIBCMTD:undname.obj
 0001:0004cf50       ?getVfTableType@UnDecorator@@CA?AVDName@@ABV2@@Z 1004df50 f i LIBCMTD:undname.obj
 0001:0004d110       ?getZName@UnDecorator@@CA?AVDName@@_N0@Z 1004e110 f   LIBCMTD:undname.obj
 0001:0004d3c0       ?haveTemplateParameters@UnDecorator@@SAHXZ 1004e3c0 f i LIBCMTD:undname.obj
 0001:0004d3d0       ?isArray@DName@@QBEHXZ     1004e3d0 f i LIBCMTD:undname.obj
 0001:0004d3f0       ?isComArray@DName@@QBEHXZ  1004e3f0 f i LIBCMTD:undname.obj
 0001:0004d410       ?isEmpty@DName@@QBEHXZ     1004e410 f i LIBCMTD:undname.obj
 0001:0004d440       ?isFull@Replicator@@QBEHXZ 1004e440 f i LIBCMTD:undname.obj
 0001:0004d470       ?isNoTE@DName@@QBEHXZ      1004e470 f i LIBCMTD:undname.obj
 0001:0004d490       ?isPinPtr@DName@@QBEHXZ    1004e490 f i LIBCMTD:undname.obj
 0001:0004d4b0       ?isPtrRef@DName@@QBEHXZ    1004e4b0 f i LIBCMTD:undname.obj
 0001:0004d4d0       ?isUDC@DName@@QBEHXZ       1004e4d0 f i LIBCMTD:undname.obj
 0001:0004d510       ?isUDTThunk@DName@@QBEHXZ  1004e510 f i LIBCMTD:undname.obj
 0001:0004d550       ?isVCallThunk@DName@@QBEHXZ 1004e550 f i LIBCMTD:undname.obj
 0001:0004d570       ?isValid@DName@@QBEHXZ     1004e570 f i LIBCMTD:undname.obj
 0001:0004d5b0       ?length@DName@@QBEHXZ      1004e5b0 f i LIBCMTD:undname.obj
 0001:0004d5e0       ?length@DNameStatusNode@@UBEHXZ 1004e5e0 f i LIBCMTD:undname.obj
 0001:0004d600       ?length@charNode@@UBEHXZ   1004e600 f i LIBCMTD:undname.obj
 0001:0004d610       ?length@pDNameNode@@UBEHXZ 1004e610 f i LIBCMTD:undname.obj
 0001:0004d640       ?length@pairNode@@UBEHXZ   1004e640 f i LIBCMTD:undname.obj
 0001:0004d690       ?length@pcharNode@@UBEHXZ  1004e690 f i LIBCMTD:undname.obj
 0001:0004d6b0       ?make@DNameStatusNode@@SAPAV1@W4DNameStatus@@@Z 1004e6b0 f i LIBCMTD:undname.obj
 0001:0004d760       ?setIsArray@DName@@QAEXXZ  1004e760 f i LIBCMTD:undname.obj
 0001:0004d780       ?setIsComArray@DName@@QAEXXZ 1004e780 f i LIBCMTD:undname.obj
 0001:0004d7a0       ?setIsNoTE@DName@@QAEXXZ   1004e7a0 f i LIBCMTD:undname.obj
 0001:0004d7c0       ?setIsPinPtr@DName@@QAEXXZ 1004e7c0 f i LIBCMTD:undname.obj
 0001:0004d7e0       ?setIsUDC@DName@@QAEXXZ    1004e7e0 f i LIBCMTD:undname.obj
 0001:0004d810       ?setIsVCallThunk@DName@@QAEXXZ 1004e810 f i LIBCMTD:undname.obj
 0001:0004d830       ?setPtrRef@DName@@QAEAAV1@XZ 1004e830 f i LIBCMTD:undname.obj
 0001:0004d850       ?status@DName@@QBE?AW4DNameStatus@@XZ 1004e850 f i LIBCMTD:undname.obj
 0001:0004d950       ___unDName                 1004e950 f   LIBCMTD:undname.obj
 0001:0004da20       ___unDNameEx               1004ea20 f   LIBCMTD:undname.obj
 0001:0004db00       ___isascii                 1004eb00 f i LIBCMTD:_ctype.obj
 0001:0004db30       ___iscsym                  1004eb30 f i LIBCMTD:_ctype.obj
 0001:0004db70       ___iscsymf                 1004eb70 f i LIBCMTD:_ctype.obj
 0001:0004dbb0       ___toascii                 1004ebb0 f i LIBCMTD:_ctype.obj
 0001:0004dbc0       __isalnum_l                1004ebc0 f i LIBCMTD:_ctype.obj
 0001:0004dc40       __isalpha_l                1004ec40 f i LIBCMTD:_ctype.obj
 0001:0004dcc0       __iscntrl_l                1004ecc0 f i LIBCMTD:_ctype.obj
 0001:0004dd40       __iscsym_l                 1004ed40 f i LIBCMTD:_ctype.obj
 0001:0004dd80       __iscsymf_l                1004ed80 f i LIBCMTD:_ctype.obj
 0001:0004ddc0       __isdigit_l                1004edc0 f i LIBCMTD:_ctype.obj
 0001:0004de40       __isgraph_l                1004ee40 f i LIBCMTD:_ctype.obj
 0001:0004dec0       __islower_l                1004eec0 f i LIBCMTD:_ctype.obj
 0001:0004df40       __isprint_l                1004ef40 f i LIBCMTD:_ctype.obj
 0001:0004dfc0       __ispunct_l                1004efc0 f i LIBCMTD:_ctype.obj
 0001:0004e040       __isspace_l                1004f040 f i LIBCMTD:_ctype.obj
 0001:0004e0c0       __isupper_l                1004f0c0 f i LIBCMTD:_ctype.obj
 0001:0004e140       __isxdigit_l               1004f140 f i LIBCMTD:_ctype.obj
 0001:0004e1c0       _isalnum                   1004f1c0 f i LIBCMTD:_ctype.obj
 0001:0004e200       _isalpha                   1004f200 f i LIBCMTD:_ctype.obj
 0001:0004e240       _iscntrl                   1004f240 f i LIBCMTD:_ctype.obj
 0001:0004e270       _isdigit                   1004f270 f i LIBCMTD:_ctype.obj
 0001:0004e2a0       _isgraph                   1004f2a0 f i LIBCMTD:_ctype.obj
 0001:0004e2e0       _islower                   1004f2e0 f i LIBCMTD:_ctype.obj
 0001:0004e310       _isprint                   1004f310 f i LIBCMTD:_ctype.obj
 0001:0004e350       _ispunct                   1004f350 f i LIBCMTD:_ctype.obj
 0001:0004e380       _isspace                   1004f380 f i LIBCMTD:_ctype.obj
 0001:0004e3b0       _isupper                   1004f3b0 f i LIBCMTD:_ctype.obj
 0001:0004e3e0       _isxdigit                  1004f3e0 f i LIBCMTD:_ctype.obj
 0001:0004e420       __tolower                  1004f420 f   LIBCMTD:tolower.obj
 0001:0004e430       __tolower_l                1004f430 f   LIBCMTD:tolower.obj
 0001:0004e670       _tolower                   1004f670 f   LIBCMTD:tolower.obj
 0001:0004e6c0       _strrchr                   1004f6c0 f   LIBCMTD:strrchr.obj
 0001:0004e800       __fptostr                  1004f800 f   LIBCMTD:_fptostr.obj
 0001:0004eb20       __atodbl                   1004fb20 f   LIBCMTD:atodbl.obj
 0001:0004eb40       __atodbl_l                 1004fb40 f   LIBCMTD:atodbl.obj
 0001:0004ec40       __atoflt                   1004fc40 f   LIBCMTD:atodbl.obj
 0001:0004ec60       __atoflt_l                 1004fc60 f   LIBCMTD:atodbl.obj
 0001:0004ed60       __atoldbl                  1004fd60 f   LIBCMTD:atodbl.obj
 0001:0004ed80       __atoldbl_l                1004fd80 f   LIBCMTD:atodbl.obj
 0001:0004ee80       ___dtold                   1004fe80 f   LIBCMTD:cfout.obj
 0001:0004efe0       __fltout2                  1004ffe0 f   LIBCMTD:cfout.obj
 0001:0004f090       __alldiv                   10050090 f   LIBCMTD:lldiv.obj
 0001:0004f140       __allrem                   10050140 f   LIBCMTD:llrem.obj
 0001:0004f200       __allshl                   10050200 f   LIBCMTD:llshl.obj
 0001:0004f220       __aullshr                  10050220 f   LIBCMTD:ullshr.obj
 0001:0004f240       __get_output_format        10050240 f   LIBCMTD:outputformat.obj
 0001:0004f250       __set_output_format        10050250 f   LIBCMTD:outputformat.obj
 0001:0004f2f0       __controlfp_s              100502f0 f   LIBCMTD:contrlfp.obj
 0001:0004f3e0       __fptrap                   100503e0 f   LIBCMTD:crt0fp.obj
 0001:0004f4b0       __ismbbalnum               100504b0 f   LIBCMTD:ismbbyte.obj
 0001:0004f4d0       __ismbbalnum_l             100504d0 f   LIBCMTD:ismbbyte.obj
 0001:0004f4f0       __ismbbalpha               100504f0 f   LIBCMTD:ismbbyte.obj
 0001:0004f510       __ismbbalpha_l             10050510 f   LIBCMTD:ismbbyte.obj
 0001:0004f530       __ismbbgraph               10050530 f   LIBCMTD:ismbbyte.obj
 0001:0004f550       __ismbbgraph_l             10050550 f   LIBCMTD:ismbbyte.obj
 0001:0004f570       __ismbbkalnum              10050570 f   LIBCMTD:ismbbyte.obj
 0001:0004f590       __ismbbkalnum_l            10050590 f   LIBCMTD:ismbbyte.obj
 0001:0004f5b0       __ismbbkana                100505b0 f   LIBCMTD:ismbbyte.obj
 0001:0004f5d0       __ismbbkana_l              100505d0 f   LIBCMTD:ismbbyte.obj
 0001:0004f640       __ismbbkprint              10050640 f   LIBCMTD:ismbbyte.obj
 0001:0004f660       __ismbbkprint_l            10050660 f   LIBCMTD:ismbbyte.obj
 0001:0004f680       __ismbbkpunct              10050680 f   LIBCMTD:ismbbyte.obj
 0001:0004f6a0       __ismbbkpunct_l            100506a0 f   LIBCMTD:ismbbyte.obj
 0001:0004f6c0       __ismbblead                100506c0 f   LIBCMTD:ismbbyte.obj
 0001:0004f6e0       __ismbblead_l              100506e0 f   LIBCMTD:ismbbyte.obj
 0001:0004f700       __ismbbprint               10050700 f   LIBCMTD:ismbbyte.obj
 0001:0004f720       __ismbbprint_l             10050720 f   LIBCMTD:ismbbyte.obj
 0001:0004f740       __ismbbpunct               10050740 f   LIBCMTD:ismbbyte.obj
 0001:0004f760       __ismbbpunct_l             10050760 f   LIBCMTD:ismbbyte.obj
 0001:0004f780       __ismbbtrail               10050780 f   LIBCMTD:ismbbyte.obj
 0001:0004f7a0       __ismbbtrail_l             100507a0 f   LIBCMTD:ismbbyte.obj
 0001:0004f7c0       ___iswcsym                 100507c0 f i LIBCMTD:_wctype.obj
 0001:0004f800       ___iswcsymf                10050800 f i LIBCMTD:_wctype.obj
 0001:0004f840       __isleadbyte_l             10050840 f i LIBCMTD:_wctype.obj
 0001:0004f890       __iswalnum_l               10050890 f i LIBCMTD:_wctype.obj
 0001:0004f8b0       __iswalpha_l               100508b0 f i LIBCMTD:_wctype.obj
 0001:0004f8d0       __iswcntrl_l               100508d0 f i LIBCMTD:_wctype.obj
 0001:0004f8f0       __iswcsym_l                100508f0 f i LIBCMTD:_wctype.obj
 0001:0004f930       __iswcsymf_l               10050930 f i LIBCMTD:_wctype.obj
 0001:0004f970       __iswdigit_l               10050970 f i LIBCMTD:_wctype.obj
 0001:0004f990       __iswgraph_l               10050990 f i LIBCMTD:_wctype.obj
 0001:0004f9b0       __iswlower_l               100509b0 f i LIBCMTD:_wctype.obj
 0001:0004f9d0       __iswprint_l               100509d0 f i LIBCMTD:_wctype.obj
 0001:0004f9f0       __iswpunct_l               100509f0 f i LIBCMTD:_wctype.obj
 0001:0004fa10       __iswspace_l               10050a10 f i LIBCMTD:_wctype.obj
 0001:0004fa30       __iswupper_l               10050a30 f i LIBCMTD:_wctype.obj
 0001:0004fa50       __iswxdigit_l              10050a50 f i LIBCMTD:_wctype.obj
 0001:0004fa70       _isleadbyte                10050a70 f i LIBCMTD:_wctype.obj
 0001:0004fa90       _iswalnum                  10050a90 f i LIBCMTD:_wctype.obj
 0001:0004fab0       _iswalpha                  10050ab0 f i LIBCMTD:_wctype.obj
 0001:0004fad0       _iswascii                  10050ad0 f i LIBCMTD:_wctype.obj
 0001:0004fb00       _iswcntrl                  10050b00 f i LIBCMTD:_wctype.obj
 0001:0004fb20       _iswdigit                  10050b20 f i LIBCMTD:_wctype.obj
 0001:0004fb40       _iswgraph                  10050b40 f i LIBCMTD:_wctype.obj
 0001:0004fb60       _iswlower                  10050b60 f i LIBCMTD:_wctype.obj
 0001:0004fb80       _iswprint                  10050b80 f i LIBCMTD:_wctype.obj
 0001:0004fba0       _iswpunct                  10050ba0 f i LIBCMTD:_wctype.obj
 0001:0004fbc0       _iswspace                  10050bc0 f i LIBCMTD:_wctype.obj
 0001:0004fbe0       _iswupper                  10050be0 f i LIBCMTD:_wctype.obj
 0001:0004fc00       _iswxdigit                 10050c00 f i LIBCMTD:_wctype.obj
 0001:0004fc20       __get_printf_count_output  10050c20 f   LIBCMTD:printf.obj
 0001:0004fc50       __printf_l                 10050c50 f   LIBCMTD:printf.obj
 0001:0004fc80       __printf_p                 10050c80 f   LIBCMTD:printf.obj
 0001:0004fca0       __printf_p_l               10050ca0 f   LIBCMTD:printf.obj
 0001:0004fcd0       __printf_s_l               10050cd0 f   LIBCMTD:printf.obj
 0001:0004fd00       __set_printf_count_output  10050d00 f   LIBCMTD:printf.obj
 0001:0004fd60       _printf                    10050d60 f   LIBCMTD:printf.obj
 0001:0004fed0       _printf_s                  10050ed0 f   LIBCMTD:printf.obj
 0001:0004fef0       __wctomb_l                 10050ef0 f   LIBCMTD:wctomb.obj
 0001:0004ff70       __wctomb_s_l               10050f70 f   LIBCMTD:wctomb.obj
 0001:000502c0       _wctomb                    100512c0 f   LIBCMTD:wctomb.obj
 0001:00050310       _wctomb_s                  10051310 f   LIBCMTD:wctomb.obj
 0001:00050330       __aulldiv                  10051330 f   LIBCMTD:ulldiv.obj
 0001:000503a0       __aullrem                  100513a0 f   LIBCMTD:ullrem.obj
 0001:00050420       __output_p_l               10051420 f   LIBCMTD:outputp.obj
 0001:00054240       __validate_param_reuseA    10055240 f   LIBCMTD:outputp.obj
 0001:00054530       _get_crtdouble_arg         10055530 f i LIBCMTD:outputp.obj
 0001:000546f0       __output_s_l               100556f0 f   LIBCMTD:outputs.obj
 0001:000560c0       __wtoi                     100570c0 f   LIBCMTD:wtox.obj
 0001:000560e0       __wtoi64                   100570e0 f   LIBCMTD:wtox.obj
 0001:00056100       __wtoi64_l                 10057100 f   LIBCMTD:wtox.obj
 0001:00056120       __wtoi_l                   10057120 f   LIBCMTD:wtox.obj
 0001:00056140       __wtol                     10057140 f   LIBCMTD:wtox.obj
 0001:00056160       __wtol_l                   10057160 f   LIBCMTD:wtox.obj
 0001:00056180       _wcschr                    10057180 f   LIBCMTD:wcschr.obj
 0001:00056300       __wcsicmp                  10057300 f   LIBCMTD:wcsicmp.obj
 0001:000564d0       __wcsicmp_l                100574d0 f   LIBCMTD:wcsicmp.obj
 0001:00056740       __wcsnicmp                 10057740 f   LIBCMTD:wcsnicmp.obj
 0001:00056930       __wcsnicmp_l               10057930 f   LIBCMTD:wcsnicmp.obj
 0001:00056b90       __mbtowc_l                 10057b90 f   LIBCMTD:mbtowc.obj
 0001:00056dd0       _mbtowc                    10057dd0 f   LIBCMTD:mbtowc.obj
 0001:00056df0       __putwch                   10057df0 f   LIBCMTD:putwch.obj
 0001:00056e80       __putwch_nolock            10057e80 f   LIBCMTD:putwch.obj
 0001:00056f80       __wopen                    10057f80 f   LIBCMTD:wopen.obj
 0001:00057110       __wsopen                   10058110 f   LIBCMTD:wopen.obj
 0001:00057180       __wsopen_helper            10058180 f   LIBCMTD:wopen.obj
 0001:00057410       __wsopen_nolock            10058410 f   LIBCMTD:wopen.obj
 0001:000584b0       __wsopen_s                 100594b0 f   LIBCMTD:wopen.obj
 0001:000584e0       _strncmp                   100594e0 f   LIBCMTD:strncmp.obj
 0001:00058560       __strnicmp                 10059560 f   LIBCMTD:strnicmp.obj
 0001:00058730       __strnicmp_l               10059730 f   LIBCMTD:strnicmp.obj
 0001:000589c0       __validate_param_reuseW    100599c0 f   LIBCMTD:woutputp.obj
 0001:00058ca0       __woutput_p_l              10059ca0 f   LIBCMTD:woutputp.obj
 0001:0005c7c0       __woutput_s_l              1005d7c0 f   LIBCMTD:woutputs.obj
 0001:0005df30       __fputwc_nolock            1005ef30 f   LIBCMTD:fputwc.obj
 0001:0005e220       _fputwc                    1005f220 f   LIBCMTD:fputwc.obj
 0001:0005e340       _putwc                     1005f340 f   LIBCMTD:fputwc.obj
 0001:0005e360       __wmakepath_s              1005f360 f   LIBCMTD:wmakepath_s.obj
 0001:0005e720       __wsplitpath_s             1005f720 f   LIBCMTD:wsplitpath_s.obj
 0001:0005ed60       __atoi64                   1005fd60 f   LIBCMTD:atox.obj
 0001:0005ed80       __atoi64_l                 1005fd80 f   LIBCMTD:atox.obj
 0001:0005eda0       __atoi_l                   1005fda0 f   LIBCMTD:atox.obj
 0001:0005edc0       __atol_l                   1005fdc0 f   LIBCMTD:atox.obj
 0001:0005ede0       _atoi                      1005fde0 f   LIBCMTD:atox.obj
 0001:0005ee00       _atol                      1005fe00 f   LIBCMTD:atox.obj
 0001:0005ee20       __CopyMan                  1005fe20 f i LIBCMTD:intrncvt.obj
 0001:0005ee70       __FillZeroMan              1005fe70 f i LIBCMTD:intrncvt.obj
 0001:0005eea0       __IncMan                   1005fea0 f i LIBCMTD:intrncvt.obj
 0001:0005ef50       __IsZeroMan                1005ff50 f i LIBCMTD:intrncvt.obj
 0001:0005ef90       __RoundMan                 1005ff90 f i LIBCMTD:intrncvt.obj
 0001:0005f070       __ShrMan                   10060070 f i LIBCMTD:intrncvt.obj
 0001:0005f160       __ZeroTail                 10060160 f i LIBCMTD:intrncvt.obj
 0001:0005f1f0       ___addl                    100601f0 f i LIBCMTD:intrncvt.obj
 0001:0005f230       __ld12cvt                  10060230 f i LIBCMTD:intrncvt.obj
 0001:0005f4f0       __ld12tod                  100604f0 f   LIBCMTD:intrncvt.obj
 0001:0005f510       __ld12tof                  10060510 f   LIBCMTD:intrncvt.obj
 0001:0005f530       __ld12told                 10060530 f   LIBCMTD:intrncvt.obj
 0001:0005f630       ___STRINGTOLD_L            10060630 f   LIBCMTD:strgtold.obj
 0001:0005f6a0       ___ld12mul                 100606a0 f i LIBCMTD:strgtold.obj
 0001:0005fab0       ___multtenpow12            10060ab0 f i LIBCMTD:strgtold.obj
 0001:0005fb90       ___shl_12                  10060b90 f i LIBCMTD:strgtold.obj
 0001:0005fc10       ___shr_12                  10060c10 f i LIBCMTD:strgtold.obj
 0001:0005fc90       ___strgtold12_l            10060c90 f   LIBCMTD:strgtold.obj
 0001:00060760       _$I10_OUTPUT               10061760 f   LIBCMTD:x10fout.obj
 0001:00060d70       ___add_12                  10061d70 f i LIBCMTD:x10fout.obj
 0001:00061020       ___control87_2             10062020 f   LIBCMTD:ieee87.obj
 0001:000614c0       __clearfp                  100624c0 f   LIBCMTD:ieee87.obj
 0001:00061500       __control87                10062500 f i LIBCMTD:ieee87.obj
 0001:000615b0       __controlfp                100625b0 f   LIBCMTD:ieee87.obj
 0001:000615d0       __fpreset                  100625d0 f   LIBCMTD:ieee87.obj
 0001:00061790       __set_controlfp            10062790 f   LIBCMTD:ieee87.obj
 0001:00061820       __statusfp                 10062820 f   LIBCMTD:ieee87.obj
 0001:00061860       __statusfp2                10062860 f   LIBCMTD:ieee87.obj
 0001:000618a0       __iswctype_l               100628a0 f   LIBCMTD:iswctype.obj
 0001:000618c0       _is_wctype                 100628c0 f   LIBCMTD:iswctype.obj
 0001:000618e0       _iswctype                  100628e0 f   LIBCMTD:iswctype.obj
 0001:00061940       __vprintf_l                10062940 f   LIBCMTD:vprintf.obj
 0001:00061960       __vprintf_p                10062960 f   LIBCMTD:vprintf.obj
 0001:00061980       __vprintf_p_l              10062980 f   LIBCMTD:vprintf.obj
 0001:000619a0       __vprintf_s_l              100629a0 f   LIBCMTD:vprintf.obj
 0001:000619c0       _vprintf                   100629c0 f   LIBCMTD:vprintf.obj
 0001:000619e0       _vprintf_helper            100629e0 f   LIBCMTD:vprintf.obj
 0001:00061b20       _vprintf_s                 10062b20 f   LIBCMTD:vprintf.obj
 0001:00062040       __strtol_l                 10063040 f   LIBCMTD:strtol.obj
 0001:00062060       __strtoul_l                10063060 f   LIBCMTD:strtol.obj
 0001:00062080       _strtol                    10063080 f   LIBCMTD:strtol.obj
 0001:000620d0       _strtoul                   100630d0 f   LIBCMTD:strtol.obj
 0001:000624e0       __wcstol_l                 100634e0 f   LIBCMTD:wcstol.obj
 0001:00062500       __wcstoul_l                10063500 f   LIBCMTD:wcstol.obj
 0001:00062520       _wcstol                    10063520 f   LIBCMTD:wcstol.obj
 0001:00062540       _wcstoul                   10063540 f   LIBCMTD:wcstol.obj
 0001:00062ab0       __wcstoi64                 10063ab0 f   LIBCMTD:wcstoq.obj
 0001:00062b00       __wcstoi64_l               10063b00 f   LIBCMTD:wcstoq.obj
 0001:00062b20       __wcstoui64                10063b20 f   LIBCMTD:wcstoq.obj
 0001:00062b70       __wcstoui64_l              10063b70 f   LIBCMTD:wcstoq.obj
 0001:00062b90       __towlower_l               10063b90 f   LIBCMTD:towlower.obj
 0001:00062ce0       _towlower                  10063ce0 f   LIBCMTD:towlower.obj
 0001:00062d00       ___termconout              10063d00 f   LIBCMTD:initcon.obj
 0001:00062d30       ___initconout              10063d30 f   LIBCMTD:initcon.obj
 0001:00062d60       __chsize                   10063d60 f   LIBCMTD:chsize.obj
 0001:00062da0       __chsize_nolock            10063da0 f   LIBCMTD:chsize.obj
 0001:00063050       __chsize_s                 10064050 f   LIBCMTD:chsize.obj
 0001:00063330       __get_fmode                10064330 f   LIBCMTD:setmode.obj
 0001:000633d0       __set_fmode                100643d0 f   LIBCMTD:setmode.obj
 0001:00063480       __setmode                  10064480 f   LIBCMTD:setmode.obj
 0001:00063750       __setmode_nolock           10064750 f   LIBCMTD:setmode.obj
 0001:000639c0       ___ascii_strnicmp          100649c0 f   LIBCMTD:_strnicm.obj
 0001:00063a30       __flswbuf                  10064a30 f   LIBCMTD:_flswbuf.obj
 0001:00064260       __strtoi64                 10065260 f   LIBCMTD:strtoq.obj
 0001:000642b0       __strtoi64_l               100652b0 f   LIBCMTD:strtoq.obj
 0001:000642d0       __strtoui64                100652d0 f   LIBCMTD:strtoq.obj
 0001:00064320       __strtoui64_l              10065320 f   LIBCMTD:strtoq.obj
 0001:00064340       ___mtold12                 10065340 f   LIBCMTD:mantold.obj
 0001:00064490       ___clrfp_sse2              10065490 f   LIBCMTD:fpctrl.obj
 0001:000644d0       ___ctrlfp_sse2             100654d0 f   LIBCMTD:fpctrl.obj
 0001:00064530       ___fclrf_sse2              10065530 f   LIBCMTD:fpctrl.obj
 0001:00064550       ___get_fpsr_sse2           10065550 f   LIBCMTD:fpctrl.obj
 0001:00064580       ___set_fpsr_sse2           10065580 f   LIBCMTD:fpctrl.obj
 0001:00064660       ___set_statfp_sse2         10065660 f   LIBCMTD:fpctrl.obj
 0001:00064690       ___statfp_sse2             10065690 f   LIBCMTD:fpctrl.obj
 0001:000646c0       __clrfp                    100656c0 f   LIBCMTD:fpctrl.obj
 0001:000646e0       __ctrlfp                   100656e0 f   LIBCMTD:fpctrl.obj
 0001:00064710       __set_statfp               10065710 f   LIBCMTD:fpctrl.obj
 0001:00064780       __statfp                   10065780 f   LIBCMTD:fpctrl.obj
 0001:00064790       __wchartodigit             10065790 f   LIBCMTD:wchtodig.obj
 0001:00064ab0       __allmul                   10065ab0 f   LIBCMTD:llmul.obj
 0001:00064af0       ___crtLCMapStringW         10065af0 f   LIBCMTD:w_map.obj
 0001:00064b2e       _InterlockedIncrement@4    10065b2e f   kernel32:KERNEL32.dll
 0001:00064b34       _InterlockedDecrement@4    10065b34 f   kernel32:KERNEL32.dll
 0001:00064b3a       _EnterCriticalSection@4    10065b3a f   kernel32:KERNEL32.dll
 0001:00064b40       _LeaveCriticalSection@4    10065b40 f   kernel32:KERNEL32.dll
 0001:00064b46       _InitializeCriticalSectionEx@12 10065b46 f   kernel32:KERNEL32.dll
 0001:00064b4c       _DeleteCriticalSection@4   10065b4c f   kernel32:KERNEL32.dll
 0001:00064b52       _Sleep@4                   10065b52 f   kernel32:KERNEL32.dll
 0001:00064b58       _InterlockedExchange@8     10065b58 f   kernel32:KERNEL32.dll
 0001:00064b5e       _EncodePointer@4           10065b5e f   kernel32:KERNEL32.dll
 0001:00064b64       _DecodePointer@4           10065b64 f   kernel32:KERNEL32.dll
 0001:00064b6a       _IsDebuggerPresent@0       10065b6a f   kernel32:KERNEL32.dll
 0001:00064b70       _IsProcessorFeaturePresent@4 10065b70 f   kernel32:KERNEL32.dll
 0001:00064b76       _ReadFile@20               10065b76 f   kernel32:KERNEL32.dll
 0001:00064b7c       _GetModuleFileNameW@12     10065b7c f   kernel32:KERNEL32.dll
 0001:00064b82       _GetModuleHandleExW@12     10065b82 f   kernel32:KERNEL32.dll
 0001:00064b88       _RaiseException@16         10065b88 f   kernel32:KERNEL32.dll
 0001:00064b8e       _RtlUnwind@16              10065b8e f   kernel32:KERNEL32.dll
 0001:00064b94       _GetCommandLineA@0         10065b94 f   kernel32:KERNEL32.dll
 0001:00064b9a       _GetCurrentThreadId@0      10065b9a f   kernel32:KERNEL32.dll
 0001:00064ba0       _InitializeCriticalSectionAndSpinCount@8 10065ba0 f   kernel32:KERNEL32.dll
 0001:00064ba6       _FatalAppExitA@8           10065ba6 f   kernel32:KERNEL32.dll
 0001:00064bac       _GetStdHandle@4            10065bac f   kernel32:KERNEL32.dll
 0001:00064bb2       _WriteFile@20              10065bb2 f   kernel32:KERNEL32.dll
 0001:00064bb8       _GetLastError@0            10065bb8 f   kernel32:KERNEL32.dll
 0001:00064bbe       _HeapValidate@12           10065bbe f   kernel32:KERNEL32.dll
 0001:00064bc4       _GetSystemInfo@4           10065bc4 f   kernel32:KERNEL32.dll
 0001:00064bca       _ExitProcess@4             10065bca f   kernel32:KERNEL32.dll
 0001:00064bd0       _GetProcAddress@8          10065bd0 f   kernel32:KERNEL32.dll
 0001:00064bd6       _AreFileApisANSI@0         10065bd6 f   kernel32:KERNEL32.dll
 0001:00064bdc       _MultiByteToWideChar@24    10065bdc f   kernel32:KERNEL32.dll
 0001:00064be2       _UnhandledExceptionFilter@4 10065be2 f   kernel32:KERNEL32.dll
 0001:00064be8       _SetUnhandledExceptionFilter@4 10065be8 f   kernel32:KERNEL32.dll
 0001:00064bee       _FlsAlloc@4                10065bee f   kernel32:KERNEL32.dll
 0001:00064bf4       _FlsGetValue@4             10065bf4 f   kernel32:KERNEL32.dll
 0001:00064bfa       _FlsSetValue@8             10065bfa f   kernel32:KERNEL32.dll
 0001:00064c00       _FlsFree@4                 10065c00 f   kernel32:KERNEL32.dll
 0001:00064c06       _GetCurrentProcess@0       10065c06 f   kernel32:KERNEL32.dll
 0001:00064c0c       _TerminateProcess@8        10065c0c f   kernel32:KERNEL32.dll
 0001:00064c12       _GetStartupInfoW@4         10065c12 f   kernel32:KERNEL32.dll
 0001:00064c18       _GetModuleHandleW@4        10065c18 f   kernel32:KERNEL32.dll
 0001:00064c1e       _IsValidCodePage@4         10065c1e f   kernel32:KERNEL32.dll
 0001:00064c24       _GetACP@0                  10065c24 f   kernel32:KERNEL32.dll
 0001:00064c2a       _GetOEMCP@0                10065c2a f   kernel32:KERNEL32.dll
 0001:00064c30       _GetCPInfo@8               10065c30 f   kernel32:KERNEL32.dll
 0001:00064c36       _WideCharToMultiByte@32    10065c36 f   kernel32:KERNEL32.dll
 0001:00064c3c       _SetLastError@4            10065c3c f   kernel32:KERNEL32.dll
 0001:00064c42       _GetCurrentThread@0        10065c42 f   kernel32:KERNEL32.dll
 0001:00064c48       _CloseHandle@4             10065c48 f   kernel32:KERNEL32.dll
 0001:00064c4e       _GetConsoleMode@8          10065c4e f   kernel32:KERNEL32.dll
 0001:00064c54       _ReadConsoleW@20           10065c54 f   kernel32:KERNEL32.dll
 0001:00064c5a       _SetFilePointer@16         10065c5a f   kernel32:KERNEL32.dll
 0001:00064c60       _SetFilePointerEx@20       10065c60 f   kernel32:KERNEL32.dll
 0001:00064c66       _GetFileType@4             10065c66 f   kernel32:KERNEL32.dll
 0001:00064c6c       _InitOnceExecuteOnce@16    10065c6c f   kernel32:KERNEL32.dll
 0001:00064c72       _SetConsoleCtrlHandler@8   10065c72 f   kernel32:KERNEL32.dll
 0001:00064c78       _OutputDebugStringW@4      10065c78 f   kernel32:KERNEL32.dll
 0001:00064c7e       _WaitForSingleObjectEx@12  10065c7e f   kernel32:KERNEL32.dll
 0001:00064c84       _CreateThread@24           10065c84 f   kernel32:KERNEL32.dll
 0001:00064c8a       _LoadLibraryExW@12         10065c8a f   kernel32:KERNEL32.dll
 0001:00064c90       _LoadLibraryW@4            10065c90 f   kernel32:KERNEL32.dll
 0001:00064c96       _OutputDebugStringA@4      10065c96 f   kernel32:KERNEL32.dll
 0001:00064c9c       _WriteConsoleW@20          10065c9c f   kernel32:KERNEL32.dll
 0001:00064ca2       _lstrlenA@4                10065ca2 f   kernel32:KERNEL32.dll
 0001:00064ca8       _GetProcessHeap@0          10065ca8 f   kernel32:KERNEL32.dll
 0001:00064cae       _GetModuleFileNameA@12     10065cae f   kernel32:KERNEL32.dll
 0001:00064cb4       _GetSystemTimeAsFileTime@4 10065cb4 f   kernel32:KERNEL32.dll
 0001:00064cba       _GetTickCount64@0          10065cba f   kernel32:KERNEL32.dll
 0001:00064cc0       _GetEnvironmentStringsW@0  10065cc0 f   kernel32:KERNEL32.dll
 0001:00064cc6       _FreeEnvironmentStringsW@4 10065cc6 f   kernel32:KERNEL32.dll
 0001:00064ccc       _GetTimeFormatEx@24        10065ccc f   kernel32:KERNEL32.dll
 0001:00064cd2       _GetDateFormatEx@28        10065cd2 f   kernel32:KERNEL32.dll
 0001:00064cd8       _CompareStringEx@36        10065cd8 f   kernel32:KERNEL32.dll
 0001:00064cde       _GetLocaleInfoEx@16        10065cde f   kernel32:KERNEL32.dll
 0001:00064ce4       _GetUserDefaultLocaleName@8 10065ce4 f   kernel32:KERNEL32.dll
 0001:00064cea       _LCMapStringEx@36          10065cea f   kernel32:KERNEL32.dll
 0001:00064cf0       _IsValidLocaleName@4       10065cf0 f   kernel32:KERNEL32.dll
 0001:00064cf6       _EnumSystemLocalesEx@16    10065cf6 f   kernel32:KERNEL32.dll
 0001:00064cfc       _HeapFree@12               10065cfc f   kernel32:KERNEL32.dll
 0001:00064d02       _HeapReAlloc@16            10065d02 f   kernel32:KERNEL32.dll
 0001:00064d08       _HeapSize@12               10065d08 f   kernel32:KERNEL32.dll
 0001:00064d0e       _HeapQueryInformation@20   10065d0e f   kernel32:KERNEL32.dll
 0001:00064d14       _HeapAlloc@12              10065d14 f   kernel32:KERNEL32.dll
 0001:00064d1a       _FreeLibrary@4             10065d1a f   kernel32:KERNEL32.dll
 0001:00064d20       _GetStringTypeW@16         10065d20 f   kernel32:KERNEL32.dll
 0001:00064d26       _SetStdHandle@8            10065d26 f   kernel32:KERNEL32.dll
 0001:00064d2c       _FlushFileBuffers@4        10065d2c f   kernel32:KERNEL32.dll
 0001:00064d32       _GetConsoleCP@0            10065d32 f   kernel32:KERNEL32.dll
 0001:00064d38       _VirtualQuery@12           10065d38 f   kernel32:KERNEL32.dll
 0001:00064d3e       _CreateFileW@28            10065d3e f   kernel32:KERNEL32.dll
 0001:00064d44       _SetEndOfFile@4            10065d44 f   kernel32:KERNEL32.dll
 0001:00064d4a       _MessageBoxA@16            10065d4a f   user32:USER32.dll
 0002:00000000       __imp__QueryPerformanceCounter@4 10069000     kernel32:KERNEL32.dll
 0002:00000004       __imp__InterlockedIncrement@4 10069004     kernel32:KERNEL32.dll
 0002:00000008       __imp__InterlockedDecrement@4 10069008     kernel32:KERNEL32.dll
 0002:0000000c       __imp__EnterCriticalSection@4 1006900c     kernel32:KERNEL32.dll
 0002:00000010       __imp__LeaveCriticalSection@4 10069010     kernel32:KERNEL32.dll
 0002:00000014       __imp__InitializeCriticalSectionEx@12 10069014     kernel32:KERNEL32.dll
 0002:00000018       __imp__DeleteCriticalSection@4 10069018     kernel32:KERNEL32.dll
 0002:0000001c       __imp__Sleep@4             1006901c     kernel32:KERNEL32.dll
 0002:00000020       __imp__InterlockedExchange@8 10069020     kernel32:KERNEL32.dll
 0002:00000024       __imp__EncodePointer@4     10069024     kernel32:KERNEL32.dll
 0002:00000028       __imp__DecodePointer@4     10069028     kernel32:KERNEL32.dll
 0002:0000002c       __imp__IsDebuggerPresent@0 1006902c     kernel32:KERNEL32.dll
 0002:00000030       __imp__IsProcessorFeaturePresent@4 10069030     kernel32:KERNEL32.dll
 0002:00000034       __imp__ReadFile@20         10069034     kernel32:KERNEL32.dll
 0002:00000038       __imp__GetModuleFileNameW@12 10069038     kernel32:KERNEL32.dll
 0002:0000003c       __imp__GetModuleHandleExW@12 1006903c     kernel32:KERNEL32.dll
 0002:00000040       __imp__RaiseException@16   10069040     kernel32:KERNEL32.dll
 0002:00000044       __imp__RtlUnwind@16        10069044     kernel32:KERNEL32.dll
 0002:00000048       __imp__GetCommandLineA@0   10069048     kernel32:KERNEL32.dll
 0002:0000004c       __imp__GetCurrentThreadId@0 1006904c     kernel32:KERNEL32.dll
 0002:00000050       __imp__InitializeCriticalSectionAndSpinCount@8 10069050     kernel32:KERNEL32.dll
 0002:00000054       __imp__FatalAppExitA@8     10069054     kernel32:KERNEL32.dll
 0002:00000058       __imp__GetStdHandle@4      10069058     kernel32:KERNEL32.dll
 0002:0000005c       __imp__WriteFile@20        1006905c     kernel32:KERNEL32.dll
 0002:00000060       __imp__GetLastError@0      10069060     kernel32:KERNEL32.dll
 0002:00000064       __imp__HeapValidate@12     10069064     kernel32:KERNEL32.dll
 0002:00000068       __imp__GetSystemInfo@4     10069068     kernel32:KERNEL32.dll
 0002:0000006c       __imp__ExitProcess@4       1006906c     kernel32:KERNEL32.dll
 0002:00000070       __imp__GetProcAddress@8    10069070     kernel32:KERNEL32.dll
 0002:00000074       __imp__AreFileApisANSI@0   10069074     kernel32:KERNEL32.dll
 0002:00000078       __imp__MultiByteToWideChar@24 10069078     kernel32:KERNEL32.dll
 0002:0000007c       __imp__UnhandledExceptionFilter@4 1006907c     kernel32:KERNEL32.dll
 0002:00000080       __imp__SetUnhandledExceptionFilter@4 10069080     kernel32:KERNEL32.dll
 0002:00000084       __imp__FlsAlloc@4          10069084     kernel32:KERNEL32.dll
 0002:00000088       __imp__FlsGetValue@4       10069088     kernel32:KERNEL32.dll
 0002:0000008c       __imp__FlsSetValue@8       1006908c     kernel32:KERNEL32.dll
 0002:00000090       __imp__FlsFree@4           10069090     kernel32:KERNEL32.dll
 0002:00000094       __imp__GetCurrentProcess@0 10069094     kernel32:KERNEL32.dll
 0002:00000098       __imp__TerminateProcess@8  10069098     kernel32:KERNEL32.dll
 0002:0000009c       __imp__GetStartupInfoW@4   1006909c     kernel32:KERNEL32.dll
 0002:000000a0       __imp__GetModuleHandleW@4  100690a0     kernel32:KERNEL32.dll
 0002:000000a4       __imp__IsValidCodePage@4   100690a4     kernel32:KERNEL32.dll
 0002:000000a8       __imp__GetACP@0            100690a8     kernel32:KERNEL32.dll
 0002:000000ac       __imp__GetOEMCP@0          100690ac     kernel32:KERNEL32.dll
 0002:000000b0       __imp__GetCPInfo@8         100690b0     kernel32:KERNEL32.dll
 0002:000000b4       __imp__WideCharToMultiByte@32 100690b4     kernel32:KERNEL32.dll
 0002:000000b8       __imp__SetLastError@4      100690b8     kernel32:KERNEL32.dll
 0002:000000bc       __imp__GetCurrentThread@0  100690bc     kernel32:KERNEL32.dll
 0002:000000c0       __imp__CloseHandle@4       100690c0     kernel32:KERNEL32.dll
 0002:000000c4       __imp__GetConsoleMode@8    100690c4     kernel32:KERNEL32.dll
 0002:000000c8       __imp__ReadConsoleW@20     100690c8     kernel32:KERNEL32.dll
 0002:000000cc       __imp__SetFilePointer@16   100690cc     kernel32:KERNEL32.dll
 0002:000000d0       __imp__SetFilePointerEx@20 100690d0     kernel32:KERNEL32.dll
 0002:000000d4       __imp__GetFileType@4       100690d4     kernel32:KERNEL32.dll
 0002:000000d8       __imp__InitOnceExecuteOnce@16 100690d8     kernel32:KERNEL32.dll
 0002:000000dc       __imp__SetConsoleCtrlHandler@8 100690dc     kernel32:KERNEL32.dll
 0002:000000e0       __imp__OutputDebugStringW@4 100690e0     kernel32:KERNEL32.dll
 0002:000000e4       __imp__WaitForSingleObjectEx@12 100690e4     kernel32:KERNEL32.dll
 0002:000000e8       __imp__CreateThread@24     100690e8     kernel32:KERNEL32.dll
 0002:000000ec       __imp__LoadLibraryExW@12   100690ec     kernel32:KERNEL32.dll
 0002:000000f0       __imp__LoadLibraryW@4      100690f0     kernel32:KERNEL32.dll
 0002:000000f4       __imp__OutputDebugStringA@4 100690f4     kernel32:KERNEL32.dll
 0002:000000f8       __imp__WriteConsoleW@20    100690f8     kernel32:KERNEL32.dll
 0002:000000fc       __imp__lstrlenA@4          100690fc     kernel32:KERNEL32.dll
 0002:00000100       __imp__GetProcessHeap@0    10069100     kernel32:KERNEL32.dll
 0002:00000104       __imp__GetModuleFileNameA@12 10069104     kernel32:KERNEL32.dll
 0002:00000108       __imp__GetSystemTimeAsFileTime@4 10069108     kernel32:KERNEL32.dll
 0002:0000010c       __imp__GetTickCount64@0    1006910c     kernel32:KERNEL32.dll
 0002:00000110       __imp__GetEnvironmentStringsW@0 10069110     kernel32:KERNEL32.dll
 0002:00000114       __imp__FreeEnvironmentStringsW@4 10069114     kernel32:KERNEL32.dll
 0002:00000118       __imp__GetTimeFormatEx@24  10069118     kernel32:KERNEL32.dll
 0002:0000011c       __imp__GetDateFormatEx@28  1006911c     kernel32:KERNEL32.dll
 0002:00000120       __imp__CompareStringEx@36  10069120     kernel32:KERNEL32.dll
 0002:00000124       __imp__GetLocaleInfoEx@16  10069124     kernel32:KERNEL32.dll
 0002:00000128       __imp__GetUserDefaultLocaleName@8 10069128     kernel32:KERNEL32.dll
 0002:0000012c       __imp__LCMapStringEx@36    1006912c     kernel32:KERNEL32.dll
 0002:00000130       __imp__IsValidLocaleName@4 10069130     kernel32:KERNEL32.dll
 0002:00000134       __imp__EnumSystemLocalesEx@16 10069134     kernel32:KERNEL32.dll
 0002:00000138       __imp__HeapFree@12         10069138     kernel32:KERNEL32.dll
 0002:0000013c       __imp__HeapReAlloc@16      1006913c     kernel32:KERNEL32.dll
 0002:00000140       __imp__HeapSize@12         10069140     kernel32:KERNEL32.dll
 0002:00000144       __imp__HeapQueryInformation@20 10069144     kernel32:KERNEL32.dll
 0002:00000148       __imp__HeapAlloc@12        10069148     kernel32:KERNEL32.dll
 0002:0000014c       __imp__FreeLibrary@4       1006914c     kernel32:KERNEL32.dll
 0002:00000150       __imp__GetStringTypeW@16   10069150     kernel32:KERNEL32.dll
 0002:00000154       __imp__SetStdHandle@8      10069154     kernel32:KERNEL32.dll
 0002:00000158       __imp__FlushFileBuffers@4  10069158     kernel32:KERNEL32.dll
 0002:0000015c       __imp__GetConsoleCP@0      1006915c     kernel32:KERNEL32.dll
 0002:00000160       __imp__VirtualQuery@12     10069160     kernel32:KERNEL32.dll
 0002:00000164       __imp__CreateFileW@28      10069164     kernel32:KERNEL32.dll
 0002:00000168       __imp__SetEndOfFile@4      10069168     kernel32:KERNEL32.dll
 0002:0000016c       \177KERNEL32_NULL_THUNK_DATA 1006916c     kernel32:KERNEL32.dll
 0002:00000170       __imp__MessageBoxA@16      10069170     user32:USER32.dll
 0002:00000174       \177USER32_NULL_THUNK_DATA 10069174     user32:USER32.dll
 0002:00000178       ___xc_a                    10069178     LIBCMTD:crt0init.obj
 0002:000001d4       ___xc_z                    100691d4     LIBCMTD:crt0init.obj
 0002:000001d8       ___xi_a                    100691d8     LIBCMTD:crt0init.obj
 0002:000001ec       ___xi_z                    100691ec     LIBCMTD:crt0init.obj
 0002:000001f0       ___xp_a                    100691f0     LIBCMTD:crt0init.obj
 0002:00000200       ___xp_z                    10069200     LIBCMTD:crt0init.obj
 0002:00000204       ___xt_a                    10069204     LIBCMTD:crt0init.obj
 0002:00000208       ___xt_z                    10069208     LIBCMTD:crt0init.obj
 0002:00000248       ?digits@?$numeric_limits@M@std@@2HB 10069248     aFont.obj
 0002:0000024c       ?digits10@?$numeric_limits@M@std@@2HB 1006924c     aFont.obj
 0002:00000250       ?max_digits10@?$numeric_limits@M@std@@2HB 10069250     aFont.obj
 0002:00000254       ?max_exponent@?$numeric_limits@M@std@@2HB 10069254     aFont.obj
 0002:00000258       ?max_exponent10@?$numeric_limits@M@std@@2HB 10069258     aFont.obj
 0002:0000025c       ?min_exponent@?$numeric_limits@M@std@@2HB 1006925c     aFont.obj
 0002:00000260       ?min_exponent10@?$numeric_limits@M@std@@2HB 10069260     aFont.obj
 0002:00000264       ?digits@?$numeric_limits@N@std@@2HB 10069264     aFont.obj
 0002:00000268       ?digits10@?$numeric_limits@N@std@@2HB 10069268     aFont.obj
 0002:0000026c       ?max_digits10@?$numeric_limits@N@std@@2HB 1006926c     aFont.obj
 0002:00000270       ?max_exponent@?$numeric_limits@N@std@@2HB 10069270     aFont.obj
 0002:00000274       ?max_exponent10@?$numeric_limits@N@std@@2HB 10069274     aFont.obj
 0002:00000278       ?value@?$integral_constant@_N$0A@@std@@2_NB 10069278     aFont.obj
 0002:0000027c       ?min_exponent@?$numeric_limits@N@std@@2HB 1006927c     aFont.obj
 0002:00000280       ?min_exponent10@?$numeric_limits@N@std@@2HB 10069280     aFont.obj
 0002:00000284       ?value@?$integral_constant@_N$00@std@@2_NB 10069284     aFont.obj
 0002:00000288       ?digits@?$numeric_limits@O@std@@2HB 10069288     aFont.obj
 0002:0000028c       ?digits10@?$numeric_limits@O@std@@2HB 1006928c     aFont.obj
 0002:00000290       ?max_digits10@?$numeric_limits@O@std@@2HB 10069290     aFont.obj
 0002:00000294       ?max_exponent@?$numeric_limits@O@std@@2HB 10069294     aFont.obj
 0002:00000298       ?max_exponent10@?$numeric_limits@O@std@@2HB 10069298     aFont.obj
 0002:0000029c       ?min_exponent@?$numeric_limits@O@std@@2HB 1006929c     aFont.obj
 0002:000002a0       ?min_exponent10@?$numeric_limits@O@std@@2HB 100692a0     aFont.obj
 0002:000002a4       ?value@?$_Sizeof@U_Nil@std@@U12@U12@U12@U12@U12@U12@U12@@std@@2IB 100692a4     aFont.obj
 0002:000002a8       ?has_denorm@_Num_base@std@@2W4float_denorm_style@2@B 100692a8     aFont.obj
 0002:000002ac       ?has_denorm_loss@_Num_base@std@@2_NB 100692ac     aFont.obj
 0002:000002ad       ?has_infinity@_Num_base@std@@2_NB 100692ad     aFont.obj
 0002:000002ae       ?has_quiet_NaN@_Num_base@std@@2_NB 100692ae     aFont.obj
 0002:000002af       ?has_signaling_NaN@_Num_base@std@@2_NB 100692af     aFont.obj
 0002:000002b0       ?is_bounded@_Num_base@std@@2_NB 100692b0     aFont.obj
 0002:000002b1       ?is_exact@_Num_base@std@@2_NB 100692b1     aFont.obj
 0002:000002b2       ?is_iec559@_Num_base@std@@2_NB 100692b2     aFont.obj
 0002:000002b3       ?is_integer@_Num_base@std@@2_NB 100692b3     aFont.obj
 0002:000002b4       ?is_modulo@_Num_base@std@@2_NB 100692b4     aFont.obj
 0002:000002b5       ?is_signed@_Num_base@std@@2_NB 100692b5     aFont.obj
 0002:000002b6       ?is_specialized@_Num_base@std@@2_NB 100692b6     aFont.obj
 0002:000002b7       ?tinyness_before@_Num_base@std@@2_NB 100692b7     aFont.obj
 0002:000002b8       ?traps@_Num_base@std@@2_NB 100692b8     aFont.obj
 0002:000002bc       ?round_style@_Num_base@std@@2W4float_round_style@2@B 100692bc     aFont.obj
 0002:000002c0       ?digits@_Num_base@std@@2HB 100692c0     aFont.obj
 0002:000002c4       ?digits10@_Num_base@std@@2HB 100692c4     aFont.obj
 0002:000002c8       ?max_digits10@_Num_base@std@@2HB 100692c8     aFont.obj
 0002:000002cc       ?max_exponent@_Num_base@std@@2HB 100692cc     aFont.obj
 0002:000002d0       ?max_exponent10@_Num_base@std@@2HB 100692d0     aFont.obj
 0002:000002d4       ?min_exponent@_Num_base@std@@2HB 100692d4     aFont.obj
 0002:000002d8       ?min_exponent10@_Num_base@std@@2HB 100692d8     aFont.obj
 0002:000002dc       ?radix@_Num_base@std@@2HB  100692dc     aFont.obj
 0002:000002e0       ?is_bounded@_Num_int_base@std@@2_NB 100692e0     aFont.obj
 0002:000002e1       ?is_exact@_Num_int_base@std@@2_NB 100692e1     aFont.obj
 0002:000002e2       ?is_integer@_Num_int_base@std@@2_NB 100692e2     aFont.obj
 0002:000002e3       ?is_modulo@_Num_int_base@std@@2_NB 100692e3     aFont.obj
 0002:000002e4       ?is_specialized@_Num_int_base@std@@2_NB 100692e4     aFont.obj
 0002:000002e8       ?radix@_Num_int_base@std@@2HB 100692e8     aFont.obj
 0002:000002ec       ?has_denorm@_Num_float_base@std@@2W4float_denorm_style@2@B 100692ec     aFont.obj
 0002:000002f0       ?has_denorm_loss@_Num_float_base@std@@2_NB 100692f0     aFont.obj
 0002:000002f1       ?has_infinity@_Num_float_base@std@@2_NB 100692f1     aFont.obj
 0002:000002f2       ?has_quiet_NaN@_Num_float_base@std@@2_NB 100692f2     aFont.obj
 0002:000002f3       ?has_signaling_NaN@_Num_float_base@std@@2_NB 100692f3     aFont.obj
 0002:000002f4       ?is_bounded@_Num_float_base@std@@2_NB 100692f4     aFont.obj
 0002:000002f5       ?is_exact@_Num_float_base@std@@2_NB 100692f5     aFont.obj
 0002:000002f6       ?is_iec559@_Num_float_base@std@@2_NB 100692f6     aFont.obj
 0002:000002f7       ?is_integer@_Num_float_base@std@@2_NB 100692f7     aFont.obj
 0002:000002f8       ?is_modulo@_Num_float_base@std@@2_NB 100692f8     aFont.obj
 0002:000002f9       ?is_signed@_Num_float_base@std@@2_NB 100692f9     aFont.obj
 0002:000002fa       ?is_specialized@_Num_float_base@std@@2_NB 100692fa     aFont.obj
 0002:000002fb       ?tinyness_before@_Num_float_base@std@@2_NB 100692fb     aFont.obj
 0002:000002fc       ?traps@_Num_float_base@std@@2_NB 100692fc     aFont.obj
 0002:00000300       ?round_style@_Num_float_base@std@@2W4float_round_style@2@B 10069300     aFont.obj
 0002:00000304       ?radix@_Num_float_base@std@@2HB 10069304     aFont.obj
 0002:00000308       ?skipws@?$_Iosb@H@std@@2W4_Fmtflags@12@B 10069308     aFont.obj
 0002:0000030c       ?unitbuf@?$_Iosb@H@std@@2W4_Fmtflags@12@B 1006930c     aFont.obj
 0002:00000310       ?is_signed@?$numeric_limits@D@std@@2_NB 10069310     aFont.obj
 0002:00000314       ?uppercase@?$_Iosb@H@std@@2W4_Fmtflags@12@B 10069314     aFont.obj
 0002:00000318       ?digits@?$numeric_limits@D@std@@2HB 10069318     aFont.obj
 0002:0000031c       ?showbase@?$_Iosb@H@std@@2W4_Fmtflags@12@B 1006931c     aFont.obj
 0002:00000320       ?digits10@?$numeric_limits@D@std@@2HB 10069320     aFont.obj
 0002:00000324       ?showpoint@?$_Iosb@H@std@@2W4_Fmtflags@12@B 10069324     aFont.obj
 0002:00000328       ?showpos@?$_Iosb@H@std@@2W4_Fmtflags@12@B 10069328     aFont.obj
 0002:0000032c       ?left@?$_Iosb@H@std@@2W4_Fmtflags@12@B 1006932c     aFont.obj
 0002:00000330       ?right@?$_Iosb@H@std@@2W4_Fmtflags@12@B 10069330     aFont.obj
 0002:00000334       ?internal@?$_Iosb@H@std@@2W4_Fmtflags@12@B 10069334     aFont.obj
 0002:00000338       ?dec@?$_Iosb@H@std@@2W4_Fmtflags@12@B 10069338     aFont.obj
 0002:0000033c       ?oct@?$_Iosb@H@std@@2W4_Fmtflags@12@B 1006933c     aFont.obj
 0002:00000340       ?hex@?$_Iosb@H@std@@2W4_Fmtflags@12@B 10069340     aFont.obj
 0002:00000344       ?scientific@?$_Iosb@H@std@@2W4_Fmtflags@12@B 10069344     aFont.obj
 0002:00000348       ?fixed@?$_Iosb@H@std@@2W4_Fmtflags@12@B 10069348     aFont.obj
 0002:0000034c       ?is_signed@?$numeric_limits@_W@std@@2_NB 1006934c     aFont.obj
 0002:00000350       ?hexfloat@?$_Iosb@H@std@@2W4_Fmtflags@12@B 10069350     aFont.obj
 0002:00000354       ?digits@?$numeric_limits@_W@std@@2HB 10069354     aFont.obj
 0002:00000358       ?boolalpha@?$_Iosb@H@std@@2W4_Fmtflags@12@B 10069358     aFont.obj
 0002:0000035c       ?digits10@?$numeric_limits@_W@std@@2HB 1006935c     aFont.obj
 0002:00000360       ?_Stdio@?$_Iosb@H@std@@2W4_Fmtflags@12@B 10069360     aFont.obj
 0002:00000364       ?adjustfield@?$_Iosb@H@std@@2W4_Fmtflags@12@B 10069364     aFont.obj
 0002:00000368       ?basefield@?$_Iosb@H@std@@2W4_Fmtflags@12@B 10069368     aFont.obj
 0002:0000036c       ?floatfield@?$_Iosb@H@std@@2W4_Fmtflags@12@B 1006936c     aFont.obj
 0002:00000370       ?goodbit@?$_Iosb@H@std@@2W4_Iostate@12@B 10069370     aFont.obj
 0002:00000374       ?eofbit@?$_Iosb@H@std@@2W4_Iostate@12@B 10069374     aFont.obj
 0002:00000378       ?value@?$_Sizeof@HU_Nil@std@@U12@U12@U12@U12@U12@U12@@std@@2IB 10069378     aFont.obj
 0002:0000037c       ?failbit@?$_Iosb@H@std@@2W4_Iostate@12@B 1006937c     aFont.obj
 0002:00000380       ?badbit@?$_Iosb@H@std@@2W4_Iostate@12@B 10069380     aFont.obj
 0002:00000384       ?_Hardfail@?$_Iosb@H@std@@2W4_Iostate@12@B 10069384     aFont.obj
 0002:00000388       ?in@?$_Iosb@H@std@@2W4_Openmode@12@B 10069388     aFont.obj
 0002:0000038c       ?is_modulo@?$numeric_limits@_N@std@@2_NB 1006938c     aFont.obj
 0002:00000390       ?out@?$_Iosb@H@std@@2W4_Openmode@12@B 10069390     aFont.obj
 0002:00000394       ?is_signed@?$numeric_limits@_N@std@@2_NB 10069394     aFont.obj
 0002:00000398       ?ate@?$_Iosb@H@std@@2W4_Openmode@12@B 10069398     aFont.obj
 0002:0000039c       ?digits@?$numeric_limits@_N@std@@2HB 1006939c     aFont.obj
 0002:000003a0       ?app@?$_Iosb@H@std@@2W4_Openmode@12@B 100693a0     aFont.obj
 0002:000003a4       ?digits10@?$numeric_limits@_N@std@@2HB 100693a4     aFont.obj
 0002:000003a8       ?trunc@?$_Iosb@H@std@@2W4_Openmode@12@B 100693a8     aFont.obj
 0002:000003ac       ?_Nocreate@?$_Iosb@H@std@@2W4_Openmode@12@B 100693ac     aFont.obj
 0002:000003b0       ?_Noreplace@?$_Iosb@H@std@@2W4_Openmode@12@B 100693b0     aFont.obj
 0002:000003b4       ?binary@?$_Iosb@H@std@@2W4_Openmode@12@B 100693b4     aFont.obj
 0002:000003b8       ?beg@?$_Iosb@H@std@@2W4_Seekdir@12@B 100693b8     aFont.obj
 0002:000003bc       ?cur@?$_Iosb@H@std@@2W4_Seekdir@12@B 100693bc     aFont.obj
 0002:000003c0       ?end@?$_Iosb@H@std@@2W4_Seekdir@12@B 100693c0     aFont.obj
 0002:000003c4       ?is_signed@?$numeric_limits@C@std@@2_NB 100693c4     aFont.obj
 0002:000003c8       ?digits@?$numeric_limits@C@std@@2HB 100693c8     aFont.obj
 0002:000003cc       ?digits10@?$numeric_limits@C@std@@2HB 100693cc     aFont.obj
 0002:000003d0       ?_Stream_err@failure@ios_base@std@@0W4io_errc@43@B 100693d0     aFont.obj
 0002:000003d4       ?is_signed@?$numeric_limits@E@std@@2_NB 100693d4     aFont.obj
 0002:000003d8       ?digits@?$numeric_limits@E@std@@2HB 100693d8     aFont.obj
 0002:000003dc       ?digits10@?$numeric_limits@E@std@@2HB 100693dc     aFont.obj
 0002:000003e0       ?is_signed@?$numeric_limits@F@std@@2_NB 100693e0     aFont.obj
 0002:000003e4       ?digits@?$numeric_limits@F@std@@2HB 100693e4     aFont.obj
 0002:000003e8       ?digits10@?$numeric_limits@F@std@@2HB 100693e8     aFont.obj
 0002:000003ec       ?is_signed@?$numeric_limits@G@std@@2_NB 100693ec     aFont.obj
 0002:000003f0       ?digits@?$numeric_limits@G@std@@2HB 100693f0     aFont.obj
 0002:000003f4       ?digits10@?$numeric_limits@G@std@@2HB 100693f4     aFont.obj
 0002:000003f8       ?is_signed@?$numeric_limits@H@std@@2_NB 100693f8     aFont.obj
 0002:000003fc       ?digits@?$numeric_limits@H@std@@2HB 100693fc     aFont.obj
 0002:00000400       ?digits10@?$numeric_limits@H@std@@2HB 10069400     aFont.obj
 0002:00000404       ?collate@?$_Locbase@H@std@@2HB 10069404     aFont.obj
 0002:00000408       ?ctype@?$_Locbase@H@std@@2HB 10069408     aFont.obj
 0002:0000040c       ?monetary@?$_Locbase@H@std@@2HB 1006940c     aFont.obj
 0002:00000410       ?numeric@?$_Locbase@H@std@@2HB 10069410     aFont.obj
 0002:00000414       ?time@?$_Locbase@H@std@@2HB 10069414     aFont.obj
 0002:00000418       ?messages@?$_Locbase@H@std@@2HB 10069418     aFont.obj
 0002:0000041c       ?all@?$_Locbase@H@std@@2HB 1006941c     aFont.obj
 0002:00000420       ?none@?$_Locbase@H@std@@2HB 10069420     aFont.obj
 0002:00000424       ?is_signed@?$numeric_limits@I@std@@2_NB 10069424     aFont.obj
 0002:00000428       ?digits@?$numeric_limits@I@std@@2HB 10069428     aFont.obj
 0002:0000042c       ?digits10@?$numeric_limits@I@std@@2HB 1006942c     aFont.obj
 0002:00000430       ?is_signed@?$numeric_limits@J@std@@2_NB 10069430     aFont.obj
 0002:00000434       ?value@?$integral_constant@I$0A@@std@@2IB 10069434     aFont.obj
 0002:00000438       ?digits@?$numeric_limits@J@std@@2HB 10069438     aFont.obj
 0002:0000043c       ?digits10@?$numeric_limits@J@std@@2HB 1006943c     aFont.obj
 0002:00000440       ?is_signed@?$numeric_limits@K@std@@2_NB 10069440     aFont.obj
 0002:00000444       ?digits@?$numeric_limits@K@std@@2HB 10069444     aFont.obj
 0002:00000448       ?digits10@?$numeric_limits@K@std@@2HB 10069448     aFont.obj
 0002:0000044c       ?is_signed@?$numeric_limits@_J@std@@2_NB 1006944c     aFont.obj
 0002:00000450       ?digits@?$numeric_limits@_J@std@@2HB 10069450     aFont.obj
 0002:00000454       ?digits10@?$numeric_limits@_J@std@@2HB 10069454     aFont.obj
 0002:00000458       ?is_signed@?$numeric_limits@_K@std@@2_NB 10069458     aFont.obj
 0002:0000045c       ?digits@?$numeric_limits@_K@std@@2HB 1006945c     aFont.obj
 0002:00000460       ?digits10@?$numeric_limits@_K@std@@2HB 10069460     aFont.obj
 0002:00000464       ?table_size@?$ctype@D@std@@2IB 10069464     aFont.obj
 0002:00000468       ??_C@_1JA@MHFMCCH@?$AAc?$AA?3?$AA?2?$AAp?$AAr?$AAo?$AAg?$AAr?$AAa?$AAm?$AA?5?$AAf?$AAi?$AAl?$AAe?$AAs?$AA?5?$AA?$CI?$AAx?$AA8?$AA6?$AA?$CJ?$AA?2?$AAm?$AAi?$AAc?$AAr?$AAo?$AAs?$AAo?$AAf?$AAt@ 10069468     aFont.obj
 0002:000004f8       ??_C@_1DC@POOIKBAO@?$AAI?$AAT?$AAE?$AAR?$AAA?$AAT?$AAO?$AAR?$AA?5?$AAL?$AAI?$AAS?$AAT?$AA?5?$AAC?$AAO?$AAR?$AAR?$AAU?$AAP?$AAT?$AAE?$AAD?$AA?$CB?$AA?$AA@ 100694f8     aFont.obj
 0002:0000052c       ??_C@_02MDDDDAID@0x?$AA@   1006952c     aFont.obj
 0002:00000534       ??_7error_category@std@@6B@ 10069534     aFont.obj
 0002:00000550       ??_7_Generic_error_category@std@@6B@ 10069550     aFont.obj
 0002:00000568       ??_C@_07DCLBNMLN@generic?$AA@ 10069568     aFont.obj
 0002:00000570       ??_C@_0O@BFJCFAAK@unknown?5error?$AA@ 10069570     aFont.obj
 0002:00000584       ??_7_Iostream_error_category@std@@6B@ 10069584     aFont.obj
 0002:0000059c       ??_C@_08LLGCOLLL@iostream?$AA@ 1006959c     aFont.obj
 0002:000005a8       ??_C@_0BG@PADBLCHM@iostream?5stream?5error?$AA@ 100695a8     aFont.obj
 0002:000005c4       ??_7_System_error_category@std@@6B@ 100695c4     aFont.obj
 0002:000005dc       ??_C@_06FHFOAHML@system?$AA@ 100695dc     aFont.obj
 0002:000005e4       ??_C@_01LFCBOECM@?4?$AA@   100695e4     aFont.obj
 0002:000005e8       ??_C@_0DD@BFGCHGNJ@e?3?2projects?2deity?2code?2system?2ty@ 100695e8     aFont.obj
 0002:00000620       ??_C@_0IK@FCNEICMB@Packet?3?3BaseClass?5?9?5You?5are?5a?5fu@ 10069620     aFont.obj
 0002:000006ac       ??_C@_0BG@PCBNFCGO@params?4numParams?5?$DO?516?$AA@ 100696ac     aFont.obj
 0002:000006c4       ??_C@_0CG@NKFEJDCG@Packet?3?3BaseClass?5data?5is?5null?5i@ 100696c4     aFont.obj
 0002:000006ec       ??_C@_07CGOILIOA@data?$DN?$DN0?$AA@ 100696ec     aFont.obj
 0002:000006f4       ??_C@_0CH@NEFKEIKL@Packet?3?3BaseClass?5Packet?5size?5ex@ 100696f4     aFont.obj
 0002:0000071c       ??_C@_0BH@JCPBNIPA@dataSize?5?$CL?5size?5?$DO?50x80?$AA@ 1006971c     aFont.obj
 0002:00000734       ??_C@_0DD@BFPHJENG@e?3?2projects?2deity?2code?2system?2ty@ 10069734     aFont.obj
 0002:00000768       ??_C@_0BB@JEHEICAP@Invalid?5DataSize?$AA@ 10069768     aFont.obj
 0002:0000077c       ??_C@_0O@BOIMJCNC@dataSize?5?$DM?$DN?50?$AA@ 1006977c     aFont.obj
 0002:0000078c       ??_C@_0L@BFGENLGA@Bad?5offset?$AA@ 1006978c     aFont.obj
 0002:00000798       ??_C@_0BP@ILENAFA@?$CIoffset?5?$DO?5max?$CJ?5?$HM?$HM?5?$CIoffset?5?$DM?50?$CJ?$AA@ 10069798     aFont.obj
 0002:000007b8       ??_C@_0DB@ELIDOMDG@e?3?2projects?2deity?2code?2system?2ty@ 100697b8     aFont.obj
 0002:000007ec       ??_C@_0L@ICHJAFL@File?3?3Open?$AA@ 100697ec     aFont.obj
 0002:000007f8       ??_C@_0L@IBBIEMAK@fname?5?$DN?$DN?50?$AA@ 100697f8     aFont.obj
 0002:00000804       ??_C@_0M@MGCIJLNN@method?5?$DN?$DN?50?$AA@ 10069804     aFont.obj
 0002:00000810       ??_C@_0BA@FALKFDBB@File?3?3CloseFile?$AA@ 10069810     aFont.obj
 0002:00000820       ??_C@_0M@BABCHBCN@handle?5?$DN?$DN?50?$AA@ 10069820     aFont.obj
 0002:0000082c       ??_C@_0BC@NEIAMEMA@File?3?3ReadBinFile?$AA@ 1006982c     aFont.obj
 0002:00000840       ??_C@_0BB@CHOMHGCC@Zero?5sized?5file?$CB?$AA@ 10069840     aFont.obj
 0002:00000854       ??_C@_09JDOCHACJ@size?5?$DM?$DN?50?$AA@ 10069854     aFont.obj
 0002:00000860       ??_C@_01MIFGBAGJ@?$CL?$AA@ 10069860     aFont.obj
 0002:00000864       ??_C@_01KDCPPGHE@r?$AA@    10069864     aFont.obj
 0002:00000868       ??_C@_01NOFIACDB@w?$AA@    10069868     aFont.obj
 0002:0000086c       ??_C@_01OJONOECF@b?$AA@    1006986c     aFont.obj
 0002:00000870       ??_C@_04LLJCPOLH@Init?$AA@ 10069870     aFont.obj
 0002:00000878       ??_C@_04NIFFMPNM@Kill?$AA@ 10069878     aFont.obj
 0002:00000880       ??_C@_04IPBPFFEL@Load?$AA@ 10069880     aFont.obj
 0002:00000888       ??_C@_06FGIDPKBG@Unload?$AA@ 10069888     aFont.obj
 0002:00000890       ??_C@_04OLJIFFAL@Find?$AA@ 10069890     aFont.obj
 0002:00000898       ??_C@_03CEMDFJG@Set?$AA@   10069898     aFont.obj
 0002:0000089c       ??_C@_0M@KIMHAOOM@RenderChars?$AA@ 1006989c     aFont.obj
 0002:000008a8       ??_C@_0L@FNOOKKDE@RenderLine?$AA@ 100698a8     aFont.obj
 0002:000008b4       ??_C@_0L@DCJLMDNH@RenderPage?$AA@ 100698b4     aFont.obj
 0002:000008c0       ??_C@_0BH@EBEKKHE@Render?4PrepareFontMesh?$AA@ 100698c0     aFont.obj
 0002:000008d8       ??_C@_04IEDBBIIG@Font?$AA@ 100698d8     aFont.obj
 0002:000008e0       ??_C@_0BK@PELAACAD@Material?4LoadFontMaterial?$AA@ 100698e0     aFont.obj
 0002:000008fc       ??_C@_0CO@LPDJCGOH@e?3?2projects?2deity?2code?2apollo?2af@ 100698fc     aFont.obj
 0002:0000092c       ??_C@_0BL@OJJDGANC@No?5Fonts?5Loaded?5Butt?5Head?$CB?$AA@ 1006992c     aFont.obj
 0002:00000948       ??_C@_0BF@CKMAFHNI@FontList?4size?$CI?$CJ?5?$DM?$DN?50?$AA@ 10069948     aFont.obj
 0002:00000960       ??_C@_0BD@JGJIHCMB@Invalid?5Font?5index?$AA@ 10069960     aFont.obj
 0002:00000974       ??_C@_0CI@NOCDNLKP@FontList?4find?$CIfontid?$CJ?5?$DN?$DN?5FontLis@ 10069974     aFont.obj
 0002:0000099c       ??_C@_0BH@PALDANDD@Render?4SetMeshMaterial?$AA@ 1006999c     aFont.obj
 0002:000009b4       ??_C@_0BE@DLDFEKCD@Render?4PrimFontChar?$AA@ 100699b4     aFont.obj
 0002:000009c8       ??_C@_1IO@BLKJFPEG@?$AAc?$AA?3?$AA?2?$AAp?$AAr?$AAo?$AAg?$AAr?$AAa?$AAm?$AA?5?$AAf?$AAi?$AAl?$AAe?$AAs?$AA?5?$AA?$CI?$AAx?$AA8?$AA6?$AA?$CJ?$AA?2?$AAm?$AAi?$AAc?$AAr?$AAo?$AAs?$AAo?$AAf?$AAt@ 100699c8     aFont.obj
 0002:00000a58       ??_C@_0CE@OFMIGAMM@Standard?5C?$CL?$CL?5Libraries?5Out?5of?5Ra@ 10069a58     aFont.obj
 0002:00000a80       ??_C@_1FG@IBPIFFN@?$AA?$CC?$AAS?$AAt?$AAa?$AAn?$AAd?$AAa?$AAr?$AAd?$AA?5?$AAC?$AA?$CL?$AA?$CL?$AA?5?$AAL?$AAi?$AAb?$AAr?$AAa?$AAr?$AAi?$AAe?$AAs?$AA?5?$AAO?$AAu?$AAt?$AA?5?$AAo?$AAf?$AA?5?$AAR@ 10069a80     aFont.obj
 0002:00000ad8       ??_C@_15GANGMFKL@?$AA?$CF?$AAs?$AA?$AA@ 10069ad8     aFont.obj
 0002:00000ae0       ??_C@_1BO@MEPPHOO@?$AA?$CC?$AAo?$AAu?$AAt?$AA?5?$AAo?$AAf?$AA?5?$AAr?$AAa?$AAn?$AAg?$AAe?$AA?$CC?$AA?$AA@ 10069ae0     aFont.obj
 0002:00000b00       ??_C@_1IK@EJDFLFME@?$AAc?$AA?3?$AA?2?$AAp?$AAr?$AAo?$AAg?$AAr?$AAa?$AAm?$AA?5?$AAf?$AAi?$AAl?$AAe?$AAs?$AA?5?$AA?$CI?$AAx?$AA8?$AA6?$AA?$CJ?$AA?2?$AAm?$AAi?$AAc?$AAr?$AAo?$AAs?$AAo?$AAf?$AAt@ 10069b00     aFont.obj
 0002:00000b8c       ??_C@_1DO@CFEEPGGJ@?$AAm?$AAa?$AAp?$AA?1?$AAs?$AAe?$AAt?$AA?5?$AAi?$AAt?$AAe?$AAr?$AAa?$AAt?$AAo?$AAr?$AAs?$AA?5?$AAi?$AAn?$AAc?$AAo?$AAm?$AAp?$AAa?$AAt?$AAi?$AAb?$AAl?$AAe?$AA?$AA@ 10069b8c     aFont.obj
 0002:00000bcc       ??_C@_0CI@FNPHFCCM@Standard?5C?$CL?$CL?5Libraries?5Invalid?5A@ 10069bcc     aFont.obj
 0002:00000bf8       ??_C@_1FO@GJIHNDLM@?$AA?$CC?$AAS?$AAt?$AAa?$AAn?$AAd?$AAa?$AAr?$AAd?$AA?5?$AAC?$AA?$CL?$AA?$CL?$AA?5?$AAL?$AAi?$AAb?$AAr?$AAa?$AAr?$AAi?$AAe?$AAs?$AA?5?$AAI?$AAn?$AAv?$AAa?$AAl?$AAi?$AAd?$AA?5@ 10069bf8     aFont.obj
 0002:00000c58       ??_C@_1BBO@FBJMEKAM@?$AAs?$AAt?$AAd?$AA?3?$AA?3?$AA_?$AAT?$AAr?$AAe?$AAe?$AA_?$AAc?$AAo?$AAn?$AAs?$AAt?$AA_?$AAi?$AAt?$AAe?$AAr?$AAa?$AAt?$AAo?$AAr?$AA?$DM?$AAc?$AAl?$AAa?$AAs?$AAs?$AA?5@ 10069c58     aFont.obj
 0002:00000d78       ??_C@_1CG@JNLFBNGN@?$AA?$CC?$AAi?$AAn?$AAv?$AAa?$AAl?$AAi?$AAd?$AA?5?$AAa?$AAr?$AAg?$AAu?$AAm?$AAe?$AAn?$AAt?$AA?$CC?$AA?$AA@ 10069d78     aFont.obj
 0002:00000da0       ??_C@_1EI@FHEHNNNM@?$AAm?$AAa?$AAp?$AA?1?$AAs?$AAe?$AAt?$AA?5?$AAi?$AAt?$AAe?$AAr?$AAa?$AAt?$AAo?$AAr?$AA?5?$AAn?$AAo?$AAt?$AA?5?$AAd?$AAe?$AAr?$AAe?$AAf?$AAe?$AAr?$AAe?$AAn?$AAc?$AAa@ 10069da0     aFont.obj
 0002:00000de8       ??_C@_1BDA@DJPFOHEE@?$AAs?$AAt?$AAd?$AA?3?$AA?3?$AA_?$AAT?$AAr?$AAe?$AAe?$AA_?$AAc?$AAo?$AAn?$AAs?$AAt?$AA_?$AAi?$AAt?$AAe?$AAr?$AAa?$AAt?$AAo?$AAr?$AA?$DM?$AAc?$AAl?$AAa?$AAs?$AAs?$AA?5@ 10069de8     aFont.obj
 0002:00000f18       ??_C@_1BDC@LGOJNGHA@?$AAs?$AAt?$AAd?$AA?3?$AA?3?$AA_?$AAT?$AAr?$AAe?$AAe?$AA_?$AAc?$AAo?$AAn?$AAs?$AAt?$AA_?$AAi?$AAt?$AAe?$AAr?$AAa?$AAt?$AAo?$AAr?$AA?$DM?$AAc?$AAl?$AAa?$AAs?$AAs?$AA?5@ 10069f18     aFont.obj
 0002:0000104c       ??_C@_0BI@CFPLBAOH@invalid?5string?5position?$AA@ 1006a04c     aFont.obj
 0002:00001068       ??_C@_1BBM@FPIIHKLB@?$AAs?$AAt?$AAd?$AA?3?$AA?3?$AA_?$AAT?$AAr?$AAe?$AAe?$AA_?$AAc?$AAo?$AAn?$AAs?$AAt?$AA_?$AAi?$AAt?$AAe?$AAr?$AAa?$AAt?$AAo?$AAr?$AA?$DM?$AAc?$AAl?$AAa?$AAs?$AAs?$AA?5@ 1006a068     aFont.obj
 0002:00001188       ??_C@_1EG@EHJFMBHJ@?$AAm?$AAa?$AAp?$AA?1?$AAs?$AAe?$AAt?$AA?5?$AAi?$AAt?$AAe?$AAr?$AAa?$AAt?$AAo?$AAr?$AA?5?$AAn?$AAo?$AAt?$AA?5?$AAi?$AAn?$AAc?$AAr?$AAe?$AAm?$AAe?$AAn?$AAt?$AAa?$AAb@ 1006a188     aFont.obj
 0002:000011d0       ??_C@_1BBO@PBGBKDMJ@?$AAs?$AAt?$AAd?$AA?3?$AA?3?$AA_?$AAT?$AAr?$AAe?$AAe?$AA_?$AAc?$AAo?$AAn?$AAs?$AAt?$AA_?$AAi?$AAt?$AAe?$AAr?$AAa?$AAt?$AAo?$AAr?$AA?$DM?$AAc?$AAl?$AAa?$AAs?$AAs?$AA?5@ 1006a1d0     aFont.obj
 0002:000012f0       ??_C@_0BA@JFNIOLAK@string?5too?5long?$AA@ 1006a2f0     aFont.obj
 0002:00001300       ??_C@_1EK@PPDBPCAN@?$AAm?$AAa?$AAp?$AA?1?$AAs?$AAe?$AAt?$AA?5?$AAe?$AAr?$AAa?$AAs?$AAe?$AA?5?$AAi?$AAt?$AAe?$AAr?$AAa?$AAt?$AAo?$AAr?$AA?5?$AAo?$AAu?$AAt?$AAs?$AAi?$AAd?$AAe?$AA?5?$AAr@ 1006a300     aFont.obj
 0002:00001350       ??_C@_1BBM@PCMLEJOD@?$AAs?$AAt?$AAd?$AA?3?$AA?3?$AA_?$AAT?$AAr?$AAe?$AAe?$AA_?$AAc?$AAo?$AAn?$AAs?$AAt?$AA_?$AAi?$AAt?$AAe?$AAr?$AAa?$AAt?$AAo?$AAr?$AA?$DM?$AAc?$AAl?$AAa?$AAs?$AAs?$AA?5@ 1006a350     aFont.obj
 0002:00001470       ??_C@_1BDC@BGBEDPLF@?$AAs?$AAt?$AAd?$AA?3?$AA?3?$AA_?$AAT?$AAr?$AAe?$AAe?$AA_?$AAc?$AAo?$AAn?$AAs?$AAt?$AA_?$AAi?$AAt?$AAe?$AAr?$AAa?$AAt?$AAo?$AAr?$AA?$DM?$AAc?$AAl?$AAa?$AAs?$AAs?$AA?5@ 1006a470     aFont.obj
 0002:000015a8       ??_C@_1BBM@FCDGKACG@?$AAs?$AAt?$AAd?$AA?3?$AA?3?$AA_?$AAT?$AAr?$AAe?$AAe?$AA_?$AAc?$AAo?$AAn?$AAs?$AAt?$AA_?$AAi?$AAt?$AAe?$AAr?$AAa?$AAt?$AAo?$AAr?$AA?$DM?$AAc?$AAl?$AAa?$AAs?$AAs?$AA?5@ 1006a5a8     aFont.obj
 0002:000016c4       ??_C@_1CK@EOPGIILJ@?$AAi?$AAn?$AAv?$AAa?$AAl?$AAi?$AAd?$AA?5?$AAn?$AAu?$AAl?$AAl?$AA?5?$AAp?$AAo?$AAi?$AAn?$AAt?$AAe?$AAr?$AA?$AA@ 1006a6c4     aFont.obj
 0002:000016f0       ??_C@_1CE@IGJMOCCK@?$AAi?$AAn?$AAv?$AAa?$AAl?$AAi?$AAd?$AA?5?$AAo?$AAp?$AAe?$AAr?$AAa?$AAt?$AAo?$AAr?$AA?$DM?$AA?$AA@ 1006a6f0     aFont.obj
 0002:00001718       ??_C@_1EM@MHOKKPFH@?$AAm?$AAa?$AAp?$AA?1?$AAs?$AAe?$AAt?$AA?5?$AAi?$AAn?$AAs?$AAe?$AAr?$AAt?$AA?5?$AAi?$AAt?$AAe?$AAr?$AAa?$AAt?$AAo?$AAr?$AA?5?$AAo?$AAu?$AAt?$AAs?$AAi?$AAd?$AAe?$AA?5@ 1006a718     aFont.obj
 0002:00001768       ??_C@_1EG@OKCGOALM@?$AAm?$AAa?$AAp?$AA?1?$AAs?$AAe?$AAt?$AA?5?$AAi?$AAt?$AAe?$AAr?$AAa?$AAt?$AAo?$AAr?$AA?5?$AAn?$AAo?$AAt?$AA?5?$AAd?$AAe?$AAc?$AAr?$AAe?$AAm?$AAe?$AAn?$AAt?$AAa?$AAb@ 1006a768     aFont.obj
 0002:000017b0       ??_C@_1BDC@OFCGIDHE@?$AAs?$AAt?$AAd?$AA?3?$AA?3?$AA_?$AAT?$AAr?$AAe?$AAe?$AA_?$AAc?$AAo?$AAn?$AAs?$AAt?$AA_?$AAi?$AAt?$AAe?$AAr?$AAa?$AAt?$AAo?$AAr?$AA?$DM?$AAc?$AAl?$AAa?$AAs?$AAs?$AA?5@ 1006a7b0     aFont.obj
 0002:000018e8       ??_C@_1BBO@CFDBPAI@?$AAs?$AAt?$AAd?$AA?3?$AA?3?$AA_?$AAT?$AAr?$AAe?$AAe?$AA_?$AAc?$AAo?$AAn?$AAs?$AAt?$AA_?$AAi?$AAt?$AAe?$AAr?$AAa?$AAt?$AAo?$AAr?$AA?$DM?$AAc?$AAl?$AAa?$AAs?$AAs?$AA?5@ 1006a8e8     aFont.obj
 0002:00001a08       ??_C@_0BE@JONHPENG@map?1set?$DMT?$DO?5too?5long?$AA@ 1006aa08     aFont.obj
 0002:00001a1c       __real@3b000000            1006aa1c     aFont.obj
 0002:00001a20       __real@3d800000            1006aa20     aFont.obj
 0002:00001a24       __real@41000000            1006aa24     aFont.obj
 0002:00001a28       ??_C@_0CF@LAJDCDGA@expr?3?7?$CFs?6file?3?7?$CFs?6line?3?7?$CFd?6desc?3@ 1006aa28     System:Error_types.obj
 0002:00001a50       ??_C@_0O@GNPFIAKM@Error?3?3ASSERT?$AA@ 1006aa50     System:Error_types.obj
 0002:00001a60       ??_C@_0BP@MBGHDOJI@file?3?7?$CFs?6line?3?7?$CFd?6message?3?7?$CFs?6?$AA@ 1006aa60     System:Error_types.obj
 0002:00001a80       ??_C@_0P@IFGCEG@Error?3?3WARNING?$AA@ 1006aa80     System:Error_types.obj
 0002:00001a90       ??_C@_08JDGDAJBI@Zeus?4Log?$AA@ 1006aa90     System:Error_types.obj
 0002:00001a9c       ??_C@_06CICIPMFN@Printf?$AA@ 1006aa9c     System:Error_types.obj
 0002:00001aa4       ?_VBITS@?$vector@_NV?$allocator@_N@std@@@std@@2HB 1006aaa4     libcpmtd:xthrow.obj
 0002:00001aa8       ?value@?$integral_constant@H$0A@@std@@2HB 1006aaa8     libcpmtd:xthrow.obj
 0002:00001ab0       ?_Names@?$_Regex_traits@D@std@@0QBU?$_Cl_names@D@2@B 1006aab0     libcpmtd:xthrow.obj
 0002:00001b70       ??_C@_05IIMHCHIO@alnum?$AA@ 1006ab70     libcpmtd:xthrow.obj
 0002:00001b78       ??_C@_05IAEKHIAN@alpha?$AA@ 1006ab78     libcpmtd:xthrow.obj
 0002:00001b80       ??_C@_05BABJKOGB@blank?$AA@ 1006ab80     libcpmtd:xthrow.obj
 0002:00001b88       ??_C@_05JMDPEFNK@cntrl?$AA@ 1006ab88     libcpmtd:xthrow.obj
 0002:00001b90       ??_C@_01LPLHEDKD@d?$AA@    1006ab90     libcpmtd:xthrow.obj
 0002:00001b94       ??_C@_05ODNOIFML@digit?$AA@ 1006ab94     libcpmtd:xthrow.obj
 0002:00001b9c       ??_C@_05KCJBMLII@graph?$AA@ 1006ab9c     libcpmtd:xthrow.obj
 0002:00001ba4       ??_C@_05IPJEPLHL@lower?$AA@ 1006aba4     libcpmtd:xthrow.obj
 0002:00001bac       ??_C@_05IJDJACGD@print?$AA@ 1006abac     libcpmtd:xthrow.obj
 0002:00001bb4       ??_C@_05KOBGHFJJ@punct?$AA@ 1006abb4     libcpmtd:xthrow.obj
 0002:00001bbc       ??_C@_05OLNILLAB@space?$AA@ 1006abbc     libcpmtd:xthrow.obj
 0002:00001bc4       ??_C@_01LKDEMHDF@s?$AA@    1006abc4     libcpmtd:xthrow.obj
 0002:00001bc8       ??_C@_05NECKJAMC@upper?$AA@ 1006abc8     libcpmtd:xthrow.obj
 0002:00001bd0       ??_C@_06BAPHGFFK@xdigit?$AA@ 1006abd0     libcpmtd:xthrow.obj
 0002:00001bd8       ?_Names@?$_Regex_traits@_W@std@@0QBU?$_Cl_names@_W@2@B 1006abd8     libcpmtd:xthrow.obj
 0002:00001c98       ??_C@_1M@KLMEPMCM@?$AAa?$AAl?$AAn?$AAu?$AAm?$AA?$AA@ 1006ac98     libcpmtd:xthrow.obj
 0002:00001ca4       ??_C@_1M@DHGLHBMI@?$AAa?$AAl?$AAp?$AAh?$AAa?$AA?$AA@ 1006aca4     libcpmtd:xthrow.obj
 0002:00001cb0       ??_C@_1M@EJAAJBPE@?$AAb?$AAl?$AAa?$AAn?$AAk?$AA?$AA@ 1006acb0     libcpmtd:xthrow.obj
 0002:00001cbc       ??_C@_1M@LMIMILA@?$AAc?$AAn?$AAt?$AAr?$AAl?$AA?$AA@ 1006acbc     libcpmtd:xthrow.obj
 0002:00001cc8       ??_C@_13GKPPEALH@?$AAd?$AA?$AA@ 1006acc8     libcpmtd:xthrow.obj
 0002:00001ccc       ??_C@_1M@JDAEIBKG@?$AAd?$AAi?$AAg?$AAi?$AAt?$AA?$AA@ 1006accc     libcpmtd:xthrow.obj
 0002:00001cd8       ??_C@_1M@MDKNJLLK@?$AAg?$AAr?$AAa?$AAp?$AAh?$AA?$AA@ 1006acd8     libcpmtd:xthrow.obj
 0002:00001ce4       ??_C@_1M@LGAECJJD@?$AAl?$AAo?$AAw?$AAe?$AAr?$AA?$AA@ 1006ace4     libcpmtd:xthrow.obj
 0002:00001cf0       ??_C@_1M@ELNLAPLA@?$AAp?$AAr?$AAi?$AAn?$AAt?$AA?$AA@ 1006acf0     libcpmtd:xthrow.obj
 0002:00001cfc       ??_C@_1M@BPFMAOAO@?$AAp?$AAu?$AAn?$AAc?$AAt?$AA?$AA@ 1006acfc     libcpmtd:xthrow.obj
 0002:00001d08       ??_C@_1M@LPGODFOM@?$AAs?$AAp?$AAa?$AAc?$AAe?$AA?$AA@ 1006ad08     libcpmtd:xthrow.obj
 0002:00001d14       ??_C@_13KHDBCPJB@?$AAs?$AA?$AA@ 1006ad14     libcpmtd:xthrow.obj
 0002:00001d18       ??_C@_1M@PLNFCNIC@?$AAu?$AAp?$AAp?$AAe?$AAr?$AA?$AA@ 1006ad18     libcpmtd:xthrow.obj
 0002:00001d24       ??_C@_13CIFDLIMG@?$AAw?$AA?$AA@ 1006ad24     libcpmtd:xthrow.obj
 0002:00001d28       ??_C@_1O@OAFMJDHN@?$AAx?$AAd?$AAi?$AAg?$AAi?$AAt?$AA?$AA@ 1006ad28     libcpmtd:xthrow.obj
 0002:00001d3c       ??_7bad_alloc@std@@6B@     1006ad3c     libcpmtd:xthrow.obj
 0002:00001d44       ??_C@_0P@GHFPNOJB@bad?5allocation?$AA@ 1006ad44     libcpmtd:xthrow.obj
 0002:00001d58       ??_7logic_error@std@@6B@   1006ad58     libcpmtd:xthrow.obj
 0002:00001d64       ??_7invalid_argument@std@@6B@ 1006ad64     libcpmtd:xthrow.obj
 0002:00001d70       ??_7length_error@std@@6B@  1006ad70     libcpmtd:xthrow.obj
 0002:00001d7c       ??_7out_of_range@std@@6B@  1006ad7c     libcpmtd:xthrow.obj
 0002:00001d88       ??_7runtime_error@std@@6B@ 1006ad88     libcpmtd:xthrow.obj
 0002:00001d94       ??_7overflow_error@std@@6B@ 1006ad94     libcpmtd:xthrow.obj
 0002:00001da0       ??_7bad_function_call@std@@6B@ 1006ada0     libcpmtd:xthrow.obj
 0002:00001da8       ??_C@_0BC@DPJNKNAF@bad?5function?5call?$AA@ 1006ada8     libcpmtd:xthrow.obj
 0002:00001dc0       ??_7regex_error@std@@6B@   1006adc0     libcpmtd:xthrow.obj
 0002:00001dc8       ??_C@_0FI@CMNGHIFF@regex_error?$CIerror_collate?$CJ?3?5The?5@ 1006adc8     libcpmtd:xthrow.obj
 0002:00001e20       ??_C@_0FE@LJMHKIOC@regex_error?$CIerror_ctype?$CJ?3?5The?5ex@ 1006ae20     libcpmtd:xthrow.obj
 0002:00001e78       ??_C@_0GI@HEGGMMDL@regex_error?$CIerror_escape?$CJ?3?5The?5e@ 1006ae78     libcpmtd:xthrow.obj
 0002:00001ee0       ??_C@_0FA@HFMLPGNN@regex_error?$CIerror_backref?$CJ?3?5The?5@ 1006aee0     libcpmtd:xthrow.obj
 0002:00001f30       ??_C@_0EH@LGEANNAL@regex_error?$CIerror_brack?$CJ?3?5The?5ex@ 1006af30     libcpmtd:xthrow.obj
 0002:00001f78       ??_C@_0EH@CAGOJGLE@regex_error?$CIerror_paren?$CJ?3?5The?5ex@ 1006af78     libcpmtd:xthrow.obj
 0002:00001fc0       ??_C@_0EH@DICJJKLO@regex_error?$CIerror_brace?$CJ?3?5The?5ex@ 1006afc0     libcpmtd:xthrow.obj
 0002:00002008       ??_C@_0FM@BLDIHIBB@regex_error?$CIerror_badbrace?$CJ?3?5The@ 1006b008     libcpmtd:xthrow.obj
 0002:00002068       ??_C@_0HA@ICNJLCMC@regex_error?$CIerror_range?$CJ?3?5The?5ex@ 1006b068     libcpmtd:xthrow.obj
 0002:000020d8       ??_C@_0GP@PICOBCHA@regex_error?$CIerror_space?$CJ?3?5There?5@ 1006b0d8     libcpmtd:xthrow.obj
 0002:00002148       ??_C@_0FK@LCHHHEOA@regex_error?$CIerror_badrepeat?$CJ?3?5On@ 1006b148     libcpmtd:xthrow.obj
 0002:000021a8       ??_C@_0HL@NEKOFBJA@regex_error?$CIerror_complexity?$CJ?3?5T@ 1006b1a8     libcpmtd:xthrow.obj
 0002:00002228       ??_C@_0JC@HCDLJLGO@regex_error?$CIerror_stack?$CJ?3?5There?5@ 1006b228     libcpmtd:xthrow.obj
 0002:000022bc       ??_C@_0BJ@CHBLKGNM@regex_error?$CIerror_parse?$CJ?$AA@ 1006b2bc     libcpmtd:xthrow.obj
 0002:000022d8       ??_C@_0BK@DFJCACNI@regex_error?$CIerror_syntax?$CJ?$AA@ 1006b2d8     libcpmtd:xthrow.obj
 0002:000022f4       ??_C@_0M@KGKAAGCA@regex_error?$AA@ 1006b2f4     libcpmtd:xthrow.obj
 0002:00002300       ??_C@_1FO@BEGKGBFG@?$AAf?$AA?3?$AA?2?$AAd?$AAd?$AA?2?$AAv?$AAc?$AAt?$AAo?$AAo?$AAl?$AAs?$AA?2?$AAc?$AAr?$AAt?$AA_?$AAb?$AAl?$AAd?$AA?2?$AAs?$AAe?$AAl?$AAf?$AA_?$AAx?$AA8?$AA6?$AA?2?$AAc@ 1006b300     libcpmtd:xthrow.obj
 0002:00002830       ??_C@_0BC@CIJDGCDI@permission?5denied?$AA@ 1006b830     libcpmtd:syserror.obj
 0002:00002844       ??_C@_0M@MIDIAGJP@file?5exists?$AA@ 1006b844     libcpmtd:syserror.obj
 0002:00002850       ??_C@_0P@FDINDDOK@no?5such?5device?$AA@ 1006b850     libcpmtd:syserror.obj
 0002:00002860       ??_C@_0BC@EJHOMAAK@filename?5too?5long?$AA@ 1006b860     libcpmtd:syserror.obj
 0002:00002874       ??_C@_0BI@NGCEHDD@device?5or?5resource?5busy?$AA@ 1006b874     libcpmtd:syserror.obj
 0002:0000288c       ??_C@_08GLNPIFBN@io?5error?$AA@ 1006b88c     libcpmtd:syserror.obj
 0002:00002898       ??_C@_0BE@JIDOCPHM@directory?5not?5empty?$AA@ 1006b898     libcpmtd:syserror.obj
 0002:000028ac       ??_C@_0BB@FCMFBGOM@invalid?5argument?$AA@ 1006b8ac     libcpmtd:syserror.obj
 0002:000028c0       ??_C@_0BD@IJDJKDEA@no?5space?5on?5device?$AA@ 1006b8c0     libcpmtd:syserror.obj
 0002:000028d4       ??_C@_0BK@NDOCBPGE@no?5such?5file?5or?5directory?$AA@ 1006b8d4     libcpmtd:syserror.obj
 0002:000028f0       ??_C@_0BH@KEFGLDAF@function?5not?5supported?$AA@ 1006b8f0     libcpmtd:syserror.obj
 0002:00002908       ??_C@_0BC@NJECKMKE@no?5lock?5available?$AA@ 1006b908     libcpmtd:syserror.obj
 0002:0000291c       ??_C@_0BC@ENOOLCNF@not?5enough?5memory?$AA@ 1006b91c     libcpmtd:syserror.obj
 0002:00002930       ??_C@_0BP@LKNGHENJ@resource?5unavailable?5try?5again?$AA@ 1006b930     libcpmtd:syserror.obj
 0002:00002950       ??_C@_0BC@PPHBOELF@cross?5device?5link?$AA@ 1006b950     libcpmtd:syserror.obj
 0002:00002964       ??_C@_0BD@MOLBPMEA@operation?5canceled?$AA@ 1006b964     libcpmtd:syserror.obj
 0002:00002978       ??_C@_0BE@GHAFMPAH@too?5many?5files?5open?$AA@ 1006b978     libcpmtd:syserror.obj
 0002:0000298c       ??_C@_0BC@FNODOBAE@permission_denied?$AA@ 1006b98c     libcpmtd:syserror.obj
 0002:000029a0       ??_C@_0P@LNDJPBFK@address_in_use?$AA@ 1006b9a0     libcpmtd:syserror.obj
 0002:000029b0       ??_C@_0BG@IPMGOJF@address_not_available?$AA@ 1006b9b0     libcpmtd:syserror.obj
 0002:000029c8       ??_C@_0BN@LCBDHODA@address_family_not_supported?$AA@ 1006b9c8     libcpmtd:syserror.obj
 0002:000029e8       ??_C@_0BP@FOJJHMCC@connection_already_in_progress?$AA@ 1006b9e8     libcpmtd:syserror.obj
 0002:00002a08       ??_C@_0BE@DLHHIBGN@bad_file_descriptor?$AA@ 1006ba08     libcpmtd:syserror.obj
 0002:00002a1c       ??_C@_0BD@OJMJDIGI@connection_aborted?$AA@ 1006ba1c     libcpmtd:syserror.obj
 0002:00002a30       ??_C@_0BD@NGKCIFEP@connection_refused?$AA@ 1006ba30     libcpmtd:syserror.obj
 0002:00002a44       ??_C@_0BB@JOANDNCK@connection_reset?$AA@ 1006ba44     libcpmtd:syserror.obj
 0002:00002a58       ??_C@_0BN@JLJNLKLK@destination_address_required?$AA@ 1006ba58     libcpmtd:syserror.obj
 0002:00002a78       ??_C@_0M@IJGMGFGP@bad_address?$AA@ 1006ba78     libcpmtd:syserror.obj
 0002:00002a84       ??_C@_0BB@KKNHPPIN@host_unreachable?$AA@ 1006ba84     libcpmtd:syserror.obj
 0002:00002a98       ??_C@_0BG@DJGBJIIK@operation_in_progress?$AA@ 1006ba98     libcpmtd:syserror.obj
 0002:00002ab0       ??_C@_0M@EGEKIIMP@interrupted?$AA@ 1006bab0     libcpmtd:syserror.obj
 0002:00002abc       ??_C@_0BB@FFIHMIPJ@invalid_argument?$AA@ 1006babc     libcpmtd:syserror.obj
 0002:00002ad0       ??_C@_0BC@FIFLCHLO@already_connected?$AA@ 1006bad0     libcpmtd:syserror.obj
 0002:00002ae4       ??_C@_0BE@GJJJJDDA@too_many_files_open?$AA@ 1006bae4     libcpmtd:syserror.obj
 0002:00002af8       ??_C@_0N@HPMLKHPL@message_size?$AA@ 1006baf8     libcpmtd:syserror.obj
 0002:00002b08       ??_C@_0BC@LEEIKBAL@filename_too_long?$AA@ 1006bb08     libcpmtd:syserror.obj
 0002:00002b1c       ??_C@_0N@FCPALPJK@network_down?$AA@ 1006bb1c     libcpmtd:syserror.obj
 0002:00002b2c       ??_C@_0O@EHNDLHIG@network_reset?$AA@ 1006bb2c     libcpmtd:syserror.obj
 0002:00002b3c       ??_C@_0BE@JFNJIDNF@network_unreachable?$AA@ 1006bb3c     libcpmtd:syserror.obj
 0002:00002b50       ??_C@_0BA@FDIJKJCL@no_buffer_space?$AA@ 1006bb50     libcpmtd:syserror.obj
 0002:00002b60       ??_C@_0BD@JHIHCGKP@no_protocol_option?$AA@ 1006bb60     libcpmtd:syserror.obj
 0002:00002b74       ??_C@_0O@GBCLHHD@not_connected?$AA@ 1006bb74     libcpmtd:syserror.obj
 0002:00002b84       ??_C@_0N@IMHKKLEM@not_a_socket?$AA@ 1006bb84     libcpmtd:syserror.obj
 0002:00002b94       ??_C@_0BI@ICEIDKLJ@operation_not_supported?$AA@ 1006bb94     libcpmtd:syserror.obj
 0002:00002bac       ??_C@_0BH@KAPBAIJF@protocol_not_supported?$AA@ 1006bbac     libcpmtd:syserror.obj
 0002:00002bc4       ??_C@_0BE@GAOJJFPC@wrong_protocol_type?$AA@ 1006bbc4     libcpmtd:syserror.obj
 0002:00002bd8       ??_C@_09NCHNLHPG@timed_out?$AA@ 1006bbd8     libcpmtd:syserror.obj
 0002:00002be4       ??_C@_0BG@GDGHKFDH@operation_would_block?$AA@ 1006bbe4     libcpmtd:syserror.obj
 0002:00002bfc       ??_C@_0BN@LKKBCCDB@address?5family?5not?5supported?$AA@ 1006bbfc     libcpmtd:syserror.obj
 0002:00002c1c       ??_C@_0P@LDMLAFHI@address?5in?5use?$AA@ 1006bc1c     libcpmtd:syserror.obj
 0002:00002c2c       ??_C@_0BG@DHPCNBJB@address?5not?5available?$AA@ 1006bc2c     libcpmtd:syserror.obj
 0002:00002c44       ??_C@_0BC@DFIBIBIL@already?5connected?$AA@ 1006bc44     libcpmtd:syserror.obj
 0002:00002c58       ??_C@_0BH@CAKOHOMI@argument?5list?5too?5long?$AA@ 1006bc58     libcpmtd:syserror.obj
 0002:00002c70       ??_C@_0BH@CGIMPKIM@argument?5out?5of?5domain?$AA@ 1006bc70     libcpmtd:syserror.obj
 0002:00002c88       ??_C@_0M@KGHGGJGL@bad?5address?$AA@ 1006bc88     libcpmtd:syserror.obj
 0002:00002c94       ??_C@_0BE@MPJPGCEO@bad?5file?5descriptor?$AA@ 1006bc94     libcpmtd:syserror.obj
 0002:00002ca8       ??_C@_0M@PMMIEFCP@bad?5message?$AA@ 1006bca8     libcpmtd:syserror.obj
 0002:00002cb4       ??_C@_0M@KPHOFDBE@broken?5pipe?$AA@ 1006bcb4     libcpmtd:syserror.obj
 0002:00002cc0       ??_C@_0BD@MGNDDEGM@connection?5aborted?$AA@ 1006bcc0     libcpmtd:syserror.obj
 0002:00002cd4       ??_C@_0BP@KAIHPOGN@connection?5already?5in?5progress?$AA@ 1006bcd4     libcpmtd:syserror.obj
 0002:00002cf4       ??_C@_0BD@PJLIIJEL@connection?5refused?$AA@ 1006bcf4     libcpmtd:syserror.obj
 0002:00002d08       ??_C@_0BB@IECNJNOI@connection?5reset?$AA@ 1006bd08     libcpmtd:syserror.obj
 0002:00002d1c       ??_C@_0BN@KDMIFEIP@destination?5address?5required?$AA@ 1006bd1c     libcpmtd:syserror.obj
 0002:00002d3c       ??_C@_0BI@BNCLIGPB@executable?5format?5error?$AA@ 1006bd3c     libcpmtd:syserror.obj
 0002:00002d54       ??_C@_0P@DNAJLBJK@file?5too?5large?$AA@ 1006bd54     libcpmtd:syserror.obj
 0002:00002d64       ??_C@_0BB@DHFDFGDM@host?5unreachable?$AA@ 1006bd64     libcpmtd:syserror.obj
 0002:00002d78       ??_C@_0BD@JPHBMONG@identifier?5removed?$AA@ 1006bd78     libcpmtd:syserror.obj
 0002:00002d8c       ??_C@_0BG@CDNPAGJK@illegal?5byte?5sequence?$AA@ 1006bd8c     libcpmtd:syserror.obj
 0002:00002da4       ??_C@_0CD@BNPLBMNA@inappropriate?5io?5control?5operati@ 1006bda4     libcpmtd:syserror.obj
 0002:00002dc8       ??_C@_0N@OHAFKDEK@invalid?5seek?$AA@ 1006bdc8     libcpmtd:syserror.obj
 0002:00002dd8       ??_C@_0P@FLLDBIDK@is?5a?5directory?$AA@ 1006bdd8     libcpmtd:syserror.obj
 0002:00002de8       ??_C@_0N@IFLPBIOP@message?5size?$AA@ 1006bde8     libcpmtd:syserror.obj
 0002:00002df8       ??_C@_0N@KIIEAAIO@network?5down?$AA@ 1006bdf8     libcpmtd:syserror.obj
 0002:00002e08       ??_C@_0O@FNPDBHEE@network?5reset?$AA@ 1006be08     libcpmtd:syserror.obj
 0002:00002e18       ??_C@_0BE@IFNCKGE@network?5unreachable?$AA@ 1006be18     libcpmtd:syserror.obj
 0002:00002e2c       ??_C@_0BA@PFFCAOFK@no?5buffer?5space?$AA@ 1006be2c     libcpmtd:syserror.obj
 0002:00002e3c       ??_C@_0BB@IEPBLJHK@no?5child?5process?$AA@ 1006be3c     libcpmtd:syserror.obj
 0002:00002e50       ??_C@_07PLECNNKG@no?5link?$AA@ 1006be50     libcpmtd:syserror.obj
 0002:00002e58       ??_C@_0BF@PBGGPKKE@no?5message?5available?$AA@ 1006be58     libcpmtd:syserror.obj
 0002:00002e70       ??_C@_0L@EDOLMPAK@no?5message?$AA@ 1006be70     libcpmtd:syserror.obj
 0002:00002e7c       ??_C@_0BD@EAMBFIDF@no?5protocol?5option?$AA@ 1006be7c     libcpmtd:syserror.obj
 0002:00002e90       ??_C@_0BE@MKFDAFMP@no?5stream?5resources?$AA@ 1006be90     libcpmtd:syserror.obj
 0002:00002ea4       ??_C@_0BK@IMCPHCBI@no?5such?5device?5or?5address?$AA@ 1006bea4     libcpmtd:syserror.obj
 0002:00002ec0       ??_C@_0BA@ENLPPKBN@no?5such?5process?$AA@ 1006bec0     libcpmtd:syserror.obj
 0002:00002ed0       ??_C@_0BA@DOCPFFJG@not?5a?5directory?$AA@ 1006bed0     libcpmtd:syserror.obj
 0002:00002ee0       ??_C@_0N@POEIPGGF@not?5a?5socket?$AA@ 1006bee0     libcpmtd:syserror.obj
 0002:00002ef0       ??_C@_0N@LGAPMMPI@not?5a?5stream?$AA@ 1006bef0     libcpmtd:syserror.obj
 0002:00002f00       ??_C@_0O@GLMIBBEG@not?5connected?$AA@ 1006bf00     libcpmtd:syserror.obj
 0002:00002f10       ??_C@_0O@NHEDABJP@not?5supported?$AA@ 1006bf10     libcpmtd:syserror.obj
 0002:00002f20       ??_C@_0BG@KDKHOPCO@operation?5in?5progress?$AA@ 1006bf20     libcpmtd:syserror.obj
 0002:00002f38       ??_C@_0BI@OHIEJAAB@operation?5not?5permitted?$AA@ 1006bf38     libcpmtd:syserror.obj
 0002:00002f50       ??_C@_0BI@LNEGIFLN@operation?5not?5supported?$AA@ 1006bf50     libcpmtd:syserror.obj
 0002:00002f68       ??_C@_0BG@OEMDKMEE@operation?5would?5block?$AA@ 1006bf68     libcpmtd:syserror.obj
 0002:00002f80       ??_C@_0L@BLPOFLNJ@owner?5dead?$AA@ 1006bf80     libcpmtd:syserror.obj
 0002:00002f8c       ??_C@_0P@FNPOCJBE@protocol?5error?$AA@ 1006bf8c     libcpmtd:syserror.obj
 0002:00002f9c       ??_C@_0BH@JPPPLHJB@protocol?5not?5supported?$AA@ 1006bf9c     libcpmtd:syserror.obj
 0002:00002fb4       ??_C@_0BG@EICBIHDP@read?5only?5file?5system?$AA@ 1006bfb4     libcpmtd:syserror.obj
 0002:00002fcc       ??_C@_0BO@BJBOMOEJ@resource?5deadlock?5would?5occur?$AA@ 1006bfcc     libcpmtd:syserror.obj
 0002:00002fec       ??_C@_0BE@GOIPJJHG@result?5out?5of?5range?$AA@ 1006bfec     libcpmtd:syserror.obj
 0002:00003000       ??_C@_0BG@MPLKFPAE@state?5not?5recoverable?$AA@ 1006c000     libcpmtd:syserror.obj
 0002:00003018       ??_C@_0P@DIIFGFCG@stream?5timeout?$AA@ 1006c018     libcpmtd:syserror.obj
 0002:00003028       ??_C@_0P@IPFDMIFL@text?5file?5busy?$AA@ 1006c028     libcpmtd:syserror.obj
 0002:00003038       ??_C@_09KJPPMAOI@timed?5out?$AA@ 1006c038     libcpmtd:syserror.obj
 0002:00003044       ??_C@_0BO@HACHBEKI@too?5many?5files?5open?5in?5system?$AA@ 1006c044     libcpmtd:syserror.obj
 0002:00003064       ??_C@_0P@HCOMKFCC@too?5many?5links?$AA@ 1006c064     libcpmtd:syserror.obj
 0002:00003074       ??_C@_0BO@EFGOJEF@too?5many?5symbolic?5link?5levels?$AA@ 1006c074     libcpmtd:syserror.obj
 0002:00003094       ??_C@_0BA@KGKGOOJA@value?5too?5large?$AA@ 1006c094     libcpmtd:syserror.obj
 0002:000030a4       ??_C@_0BE@MIEJDDNH@wrong?5protocol?5type?$AA@ 1006c0a4     libcpmtd:syserror.obj
 0002:000030b8       ??_C@_1EO@LHDAJOCM@?$AA_?$AAB?$AAL?$AAO?$AAC?$AAK?$AA_?$AAT?$AAY?$AAP?$AAE?$AA_?$AAI?$AAS?$AA_?$AAV?$AAA?$AAL?$AAI?$AAD?$AA?$CI?$AAp?$AAH?$AAe?$AAa?$AAd?$AA?9?$AA?$DO?$AAn?$AAB?$AAl?$AAo@ 1006c0b8     LIBCMTD:dbgdel.obj
 0002:00003108       ??_C@_1GE@BDAODJCD@?$AAf?$AA?3?$AA?2?$AAd?$AAd?$AA?2?$AAv?$AAc?$AAt?$AAo?$AAo?$AAl?$AAs?$AA?2?$AAc?$AAr?$AAt?$AA_?$AAb?$AAl?$AAd?$AA?2?$AAs?$AAe?$AAl?$AAf?$AA_?$AAx?$AA8?$AA6?$AA?2?$AAc@ 1006c108     LIBCMTD:dbgdel.obj
 0002:0000316c       ??_C@_0DA@HMCPFNKN@f?3?2dd?2vctools?2crt_bld?2self_x86?2c@ 1006c16c     LIBCMTD:onexit.obj
 0002:0000319c       ?ProcessDetach@NativeDll@<CrtImplementationDetails>@@0IB 1006c19c     LIBCMTD:invarg.obj
 0002:000031a0       ?ProcessAttach@NativeDll@<CrtImplementationDetails>@@0IB 1006c1a0     LIBCMTD:invarg.obj
 0002:000031a4       ?ThreadAttach@NativeDll@<CrtImplementationDetails>@@0IB 1006c1a4     LIBCMTD:invarg.obj
 0002:000031a8       ?ThreadDetach@NativeDll@<CrtImplementationDetails>@@0IB 1006c1a8     LIBCMTD:invarg.obj
 0002:000031ac       ?ProcessVerifier@NativeDll@<CrtImplementationDetails>@@0IB 1006c1ac     LIBCMTD:invarg.obj
 0002:000031b0       ??_C@_1BO@JIBAMMGI@?$AAs?$AAt?$AAr?$AAi?$AAn?$AAg?$AA?5?$AA?$CB?$AA?$DN?$AA?5?$AAN?$AAU?$AAL?$AAL?$AA?$AA@ 1006c1b0     LIBCMTD:strlwr.obj
 0002:000031d0       ??_C@_1GA@NICGNHEP@?$AAf?$AA?3?$AA?2?$AAd?$AAd?$AA?2?$AAv?$AAc?$AAt?$AAo?$AAo?$AAl?$AAs?$AA?2?$AAc?$AAr?$AAt?$AA_?$AAb?$AAl?$AAd?$AA?2?$AAs?$AAe?$AAl?$AAf?$AA_?$AAx?$AA8?$AA6?$AA?2?$AAc@ 1006c1d0     LIBCMTD:strlwr.obj
 0002:00003230       ??_C@_1BA@EGFMICNO@?$AA_?$AAs?$AAt?$AAr?$AAl?$AAw?$AAr?$AA?$AA@ 1006c230     LIBCMTD:strlwr.obj
 0002:00003240       ??_C@_1CC@PMAIDLKG@?$AA_?$AAs?$AAt?$AAr?$AAl?$AAw?$AAr?$AA_?$AAs?$AA_?$AAl?$AA_?$AAs?$AAt?$AAa?$AAt?$AA?$AA@ 1006c240     LIBCMTD:strlwr.obj
 0002:00003264       ??_C@_1DM@FHLMIEG@?$AAS?$AAt?$AAr?$AAi?$AAn?$AAg?$AA?5?$AAi?$AAs?$AA?5?$AAn?$AAo?$AAt?$AA?5?$AAn?$AAu?$AAl?$AAl?$AA?5?$AAt?$AAe?$AAr?$AAm?$AAi?$AAn?$AAa?$AAt?$AAe?$AAd?$AA?$AA@ 1006c264     LIBCMTD:strlwr.obj
 0002:000032a0       ??_C@_1FA@MJKDNFFB@?$AA?$CI?$AAL?$AA?$CC?$AAS?$AAt?$AAr?$AAi?$AAn?$AAg?$AA?5?$AAi?$AAs?$AA?5?$AAn?$AAo?$AAt?$AA?5?$AAn?$AAu?$AAl?$AAl?$AA?5?$AAt?$AAe?$AAr?$AAm?$AAi?$AAn?$AAa?$AAt?$AAe?$AAd@ 1006c2a0     LIBCMTD:strlwr.obj
 0002:000032f0       ??_C@_1CI@HCPHDDLE@?$AAB?$AAu?$AAf?$AAf?$AAe?$AAr?$AA?5?$AAi?$AAs?$AA?5?$AAt?$AAo?$AAo?$AA?5?$AAs?$AAm?$AAa?$AAl?$AAl?$AA?$AA@ 1006c2f0     LIBCMTD:strlwr.obj
 0002:00003318       ??_C@_1DM@MADKGDLO@?$AA?$CI?$AAL?$AA?$CC?$AAB?$AAu?$AAf?$AAf?$AAe?$AAr?$AA?5?$AAi?$AAs?$AA?5?$AAt?$AAo?$AAo?$AA?5?$AAs?$AAm?$AAa?$AAl?$AAl?$AA?$CC?$AA?5?$AA?$CG?$AA?$CG?$AA?5?$AA0?$AA?$CJ?$AA?$AA@ 1006c318     LIBCMTD:strlwr.obj
 0002:00003354       ??_C@_1CC@FADMNIL@?$AA?$CI?$AAs?$AAt?$AAr?$AAe?$AAa?$AAm?$AA?5?$AA?$CB?$AA?$DN?$AA?5?$AAN?$AAU?$AAL?$AAL?$AA?$CJ?$AA?$AA@ 1006c354     LIBCMTD:fclose.obj
 0002:00003378       ??_C@_1GA@KMIDAPAP@?$AAf?$AA?3?$AA?2?$AAd?$AAd?$AA?2?$AAv?$AAc?$AAt?$AAo?$AAo?$AAl?$AAs?$AA?2?$AAc?$AAr?$AAt?$AA_?$AAb?$AAl?$AAd?$AA?2?$AAs?$AAe?$AAl?$AAf?$AA_?$AAx?$AA8?$AA6?$AA?2?$AAc@ 1006c378     LIBCMTD:fclose.obj
 0002:000033d8       ??_C@_1O@EGMJNCOI@?$AAf?$AAc?$AAl?$AAo?$AAs?$AAe?$AA?$AA@ 1006c3d8     LIBCMTD:fclose.obj
 0002:000033e8       ??_C@_1BM@JMKHIAHP@?$AA?$CI?$AAs?$AAt?$AAr?$AA?5?$AA?$CB?$AA?$DN?$AA?5?$AAN?$AAU?$AAL?$AAL?$AA?$CJ?$AA?$AA@ 1006c3e8     LIBCMTD:fclose.obj
 0002:00003404       ??_C@_1BO@JINCABEC@?$AA_?$AAf?$AAc?$AAl?$AAo?$AAs?$AAe?$AA_?$AAn?$AAo?$AAl?$AAo?$AAc?$AAk?$AA?$AA@ 1006c404     LIBCMTD:fclose.obj
 0002:00003424       ??_C@_1BO@CLGIAEOJ@?$AA?$CI?$AAf?$AAi?$AAl?$AAe?$AA?5?$AA?$CB?$AA?$DN?$AA?5?$AAN?$AAU?$AAL?$AAL?$AA?$CJ?$AA?$AA@ 1006c424     LIBCMTD:fopen.obj
 0002:00003448       ??_C@_1FO@NCADDBOO@?$AAf?$AA?3?$AA?2?$AAd?$AAd?$AA?2?$AAv?$AAc?$AAt?$AAo?$AAo?$AAl?$AAs?$AA?2?$AAc?$AAr?$AAt?$AA_?$AAb?$AAl?$AAd?$AA?2?$AAs?$AAe?$AAl?$AAf?$AA_?$AAx?$AA8?$AA6?$AA?2?$AAc@ 1006c448     LIBCMTD:fopen.obj
 0002:000034a8       ??_C@_1BA@HNEAFMNL@?$AA_?$AAf?$AAs?$AAo?$AAp?$AAe?$AAn?$AA?$AA@ 1006c4a8     LIBCMTD:fopen.obj
 0002:000034b8       ??_C@_1BO@MJMKAKCJ@?$AA?$CI?$AAm?$AAo?$AAd?$AAe?$AA?5?$AA?$CB?$AA?$DN?$AA?5?$AAN?$AAU?$AAL?$AAL?$AA?$CJ?$AA?$AA@ 1006c4b8     LIBCMTD:fopen.obj
 0002:000034d8       ??_C@_1CI@HBNALCBB@?$AA?$CI?$AA?$CK?$AAm?$AAo?$AAd?$AAe?$AA?5?$AA?$CB?$AA?$DN?$AA?5?$AA_?$AAT?$AA?$CI?$AA?8?$AA?2?$AA0?$AA?8?$AA?$CJ?$AA?$CJ?$AA?$AA@ 1006c4d8     LIBCMTD:fopen.obj
 0002:00003500       ??_C@_1CA@LLJLFCDN@?$AA?$CI?$AAp?$AAf?$AAi?$AAl?$AAe?$AA?5?$AA?$CB?$AA?$DN?$AA?5?$AAN?$AAU?$AAL?$AAL?$AA?$CJ?$AA?$AA@ 1006c500     LIBCMTD:fopen.obj
 0002:00003520       ??_C@_1BA@PBGKCCAP@?$AAf?$AAo?$AAp?$AAe?$AAn?$AA_?$AAs?$AA?$AA@ 1006c520     LIBCMTD:fopen.obj
 0002:00003530       ??_C@_1FO@PNLFLIH@?$AAf?$AA?3?$AA?2?$AAd?$AAd?$AA?2?$AAv?$AAc?$AAt?$AAo?$AAo?$AAl?$AAs?$AA?2?$AAc?$AAr?$AAt?$AA_?$AAb?$AAl?$AAd?$AA?2?$AAs?$AAe?$AAl?$AAf?$AA_?$AAx?$AA8?$AA6?$AA?2?$AAc@ 1006c530     LIBCMTD:fread.obj
 0002:00003590       ??_C@_1BA@CMLCEIGG@?$AAf?$AAr?$AAe?$AAa?$AAd?$AA_?$AAs?$AA?$AA@ 1006c590     LIBCMTD:fread.obj
 0002:000035a0       ??_C@_1CC@CGFEEBMC@?$AA?$CI?$AAb?$AAu?$AAf?$AAf?$AAe?$AAr?$AA?5?$AA?$CB?$AA?$DN?$AA?5?$AAN?$AAU?$AAL?$AAL?$AA?$CJ?$AA?$AA@ 1006c5a0     LIBCMTD:fread.obj
 0002:000035c4       ??_C@_1CA@IDPOGFL@?$AA_?$AAf?$AAr?$AAe?$AAa?$AAd?$AA_?$AAn?$AAo?$AAl?$AAo?$AAc?$AAk?$AA_?$AAs?$AA?$AA@ 1006c5c4     LIBCMTD:fread.obj
 0002:000035e8       ??_C@_1EA@FAMECDND@?$AAn?$AAu?$AAm?$AA?5?$AA?$DM?$AA?$DN?$AA?5?$AA?$CI?$AAS?$AAI?$AAZ?$AAE?$AA_?$AAM?$AAA?$AAX?$AA?5?$AA?1?$AA?5?$AAe?$AAl?$AAe?$AAm?$AAe?$AAn?$AAt?$AAS?$AAi?$AAz?$AAe?$AA?$CJ?$AA?$AA@ 1006c5e8     LIBCMTD:fread.obj
 0002:00003628       ??_C@_1LG@DCNDJCHK@?$AA?$CI?$AA?$CC?$AAI?$AAn?$AAc?$AAo?$AAn?$AAs?$AAi?$AAs?$AAt?$AAe?$AAn?$AAt?$AA?5?$AAS?$AAt?$AAr?$AAe?$AAa?$AAm?$AA?5?$AAC?$AAo?$AAu?$AAn?$AAt?$AA?4?$AA?5?$AAF?$AAl?$AAu@ 1006c628     LIBCMTD:fread.obj
 0002:000036e0       ??_C@_1DA@DKEFLDMG@?$AA?$CI?$AA?$CC?$AAb?$AAu?$AAf?$AAf?$AAe?$AAr?$AA?5?$AAt?$AAo?$AAo?$AA?5?$AAs?$AAm?$AAa?$AAl?$AAl?$AA?$CC?$AA?0?$AA?5?$AA0?$AA?$CJ?$AA?$AA@ 1006c6e0     LIBCMTD:fread.obj
 0002:00003710       ??_C@_1FO@ECBPAICH@?$AAf?$AA?3?$AA?2?$AAd?$AAd?$AA?2?$AAv?$AAc?$AAt?$AAo?$AAo?$AAl?$AAs?$AA?2?$AAc?$AAr?$AAt?$AA_?$AAb?$AAl?$AAd?$AA?2?$AAs?$AAe?$AAl?$AAf?$AA_?$AAx?$AA8?$AA6?$AA?2?$AAc@ 1006c710     LIBCMTD:fseek.obj
 0002:00003770       ??_C@_1M@HCCOIONH@?$AAf?$AAs?$AAe?$AAe?$AAk?$AA?$AA@ 1006c770     LIBCMTD:fseek.obj
 0002:00003780       ??_C@_1IO@PMHBOLJK@?$AA?$CI?$AA?$CI?$AAw?$AAh?$AAe?$AAn?$AAc?$AAe?$AA?5?$AA?$DN?$AA?$DN?$AA?5?$AAS?$AAE?$AAE?$AAK?$AA_?$AAS?$AAE?$AAT?$AA?$CJ?$AA?5?$AA?$HM?$AA?$HM?$AA?5?$AA?$CI?$AAw?$AAh?$AAe?$AAn?$AAc?$AAe@ 1006c780     LIBCMTD:fseek.obj
 0002:00003810       ??_C@_1FO@NBACIADE@?$AAf?$AA?3?$AA?2?$AAd?$AAd?$AA?2?$AAv?$AAc?$AAt?$AAo?$AAo?$AAl?$AAs?$AA?2?$AAc?$AAr?$AAt?$AA_?$AAb?$AAl?$AAd?$AA?2?$AAs?$AAe?$AAl?$AAf?$AA_?$AAx?$AA8?$AA6?$AA?2?$AAc@ 1006c810     LIBCMTD:ftell.obj
 0002:00003870       ??_C@_1M@CKCKPMNP@?$AAf?$AAt?$AAe?$AAl?$AAl?$AA?$AA@ 1006c870     LIBCMTD:ftell.obj
 0002:0000387c       ??_C@_1BM@EPIDANEK@?$AA_?$AAf?$AAt?$AAe?$AAl?$AAl?$AA_?$AAn?$AAo?$AAl?$AAo?$AAc?$AAk?$AA?$AA@ 1006c87c     LIBCMTD:ftell.obj
 0002:000038a4       ??_C@_1BA@GLMCNLEM@?$AAW?$AAa?$AAr?$AAn?$AAi?$AAn?$AAg?$AA?$AA@ 1006c8a4     LIBCMTD:dbgrptw.obj
 0002:000038b4       ??_C@_1M@ILHOPKA@?$AAE?$AAr?$AAr?$AAo?$AAr?$AA?$AA@ 1006c8b4     LIBCMTD:dbgrptw.obj
 0002:000038c0       ??_C@_1CC@CGHMNGDG@?$AAA?$AAs?$AAs?$AAe?$AAr?$AAt?$AAi?$AAo?$AAn?$AA?5?$AAF?$AAa?$AAi?$AAl?$AAe?$AAd?$AA?$AA@ 1006c8c0     LIBCMTD:dbgrptw.obj
 0002:000038e4       ??_C@_17LGKOMLJ@?$AA?4?$AA?4?$AA?4?$AA?$AA@ 1006c8e4     LIBCMTD:dbgrptw.obj
 0002:000038f0       ??_C@_1HI@OFEHGPPC@?$AAm?$AAo?$AAd?$AAe?$AA?5?$AA?$DN?$AA?$DN?$AA?5?$AA_?$AAC?$AAR?$AAT?$AA_?$AAR?$AAP?$AAT?$AAH?$AAO?$AAO?$AAK?$AA_?$AAI?$AAN?$AAS?$AAT?$AAA?$AAL?$AAL?$AA?5?$AA?$HM?$AA?$HM?$AA?5@ 1006c8f0     LIBCMTD:dbgrptw.obj
 0002:00003968       ??_C@_1GA@IBJGKIFE@?$AAf?$AA?3?$AA?2?$AAd?$AAd?$AA?2?$AAv?$AAc?$AAt?$AAo?$AAo?$AAl?$AAs?$AA?2?$AAc?$AAr?$AAt?$AA_?$AAb?$AAl?$AAd?$AA?2?$AAs?$AAe?$AAl?$AAf?$AA_?$AAx?$AA8?$AA6?$AA?2?$AAc@ 1006c968     LIBCMTD:dbgrptw.obj
 0002:000039c8       ??_C@_1CI@IIHEAKEI@?$AA_?$AAC?$AAr?$AAt?$AAS?$AAe?$AAt?$AAR?$AAe?$AAp?$AAo?$AAr?$AAt?$AAH?$AAo?$AAo?$AAk?$AAW?$AA2?$AA?$AA@ 1006c9c8     LIBCMTD:dbgrptw.obj
 0002:000039f0       ??_C@_1CG@JBJEFOCM@?$AAp?$AAf?$AAn?$AAN?$AAe?$AAw?$AAH?$AAo?$AAo?$AAk?$AA?5?$AA?$CB?$AA?$DN?$AA?5?$AAN?$AAU?$AAL?$AAL?$AA?$AA@ 1006c9f0     LIBCMTD:dbgrptw.obj
 0002:00003a18       ??_C@_1FI@PHIAFFHM@?$AA?$CI?$AA?$CC?$AAT?$AAh?$AAe?$AA?5?$AAh?$AAo?$AAo?$AAk?$AA?5?$AAf?$AAu?$AAn?$AAc?$AAt?$AAi?$AAo?$AAn?$AA?5?$AAi?$AAs?$AA?5?$AAn?$AAo?$AAt?$AA?5?$AAi?$AAn?$AA?5?$AAt?$AAh@ 1006ca18     LIBCMTD:dbgrptw.obj
 0002:00003a70       ??_C@_0DA@PCCBBBID@f?3?2dd?2vctools?2crt_bld?2self_x86?2c@ 1006ca70     LIBCMTD:dbgrptw.obj
 0002:00003aa0       ??_C@_1CI@PGJIFDEK@?$AA_?$AA_?$AAc?$AAr?$AAt?$AAM?$AAe?$AAs?$AAs?$AAa?$AAg?$AAe?$AAW?$AAi?$AAn?$AAd?$AAo?$AAw?$AAW?$AA?$AA@ 1006caa0     LIBCMTD:dbgrptw.obj
 0002:00003ac8       ??_C@_1GI@DEDNNLCI@?$AAw?$AAc?$AAs?$AAc?$AAp?$AAy?$AA_?$AAs?$AA?$CI?$AAs?$AAz?$AAE?$AAx?$AAe?$AAN?$AAa?$AAm?$AAe?$AA?0?$AA?5?$AA2?$AA6?$AA0?$AA?0?$AA?5?$AAL?$AA?$CC?$AA?$DM?$AAp?$AAr?$AAo?$AAg@ 1006cac8     LIBCMTD:dbgrptw.obj
 0002:00003b30       ??_C@_1CO@EAEJAADC@?$AA?$DM?$AAp?$AAr?$AAo?$AAg?$AAr?$AAa?$AAm?$AA?5?$AAn?$AAa?$AAm?$AAe?$AA?5?$AAu?$AAn?$AAk?$AAn?$AAo?$AAw?$AAn?$AA?$DO?$AA?$AA@ 1006cb30     LIBCMTD:dbgrptw.obj
 0002:00003b60       ??_C@_1NO@LECLLHOL@?$AAm?$AAe?$AAm?$AAc?$AAp?$AAy?$AA_?$AAs?$AA?$CI?$AAs?$AAz?$AAS?$AAh?$AAo?$AAr?$AAt?$AAP?$AAr?$AAo?$AAg?$AAN?$AAa?$AAm?$AAe?$AA?0?$AA?5?$AAs?$AAi?$AAz?$AAe?$AAo?$AAf@ 1006cb60     LIBCMTD:dbgrptw.obj
 0002:00003c40       ??_C@_1OG@PMPPFHAF@?$AA?6?$AA?6?$AAF?$AAo?$AAr?$AA?5?$AAi?$AAn?$AAf?$AAo?$AAr?$AAm?$AAa?$AAt?$AAi?$AAo?$AAn?$AA?5?$AAo?$AAn?$AA?5?$AAh?$AAo?$AAw?$AA?5?$AAy?$AAo?$AAu?$AAr?$AA?5?$AAp?$AAr@ 1006cc40     LIBCMTD:dbgrptw.obj
 0002:00003d28       ??_C@_11LOCGONAA@?$AA?$AA@ 1006cd28     LIBCMTD:dbgrptw.obj
 0002:00003d2c       ??_C@_1BK@PEDCIPMA@?$AAE?$AAx?$AAp?$AAr?$AAe?$AAs?$AAs?$AAi?$AAo?$AAn?$AA?3?$AA?5?$AA?$AA@ 1006cd2c     LIBCMTD:dbgrptw.obj
 0002:00003d48       ??_C@_15IABLJNFO@?$AA?6?$AA?6?$AA?$AA@ 1006cd48     LIBCMTD:dbgrptw.obj
 0002:00003d50       ??_C@_1BA@GLLGCPCK@?$AA?6?$AAL?$AAi?$AAn?$AAe?$AA?3?$AA?5?$AA?$AA@ 1006cd50     LIBCMTD:dbgrptw.obj
 0002:00003d60       ??_C@_1BA@LNHECFIM@?$AA?6?$AAF?$AAi?$AAl?$AAe?$AA?3?$AA?5?$AA?$AA@ 1006cd60     LIBCMTD:dbgrptw.obj
 0002:00003d70       ??_C@_1BE@CGCJKGHI@?$AA?6?$AAM?$AAo?$AAd?$AAu?$AAl?$AAe?$AA?3?$AA?5?$AA?$AA@ 1006cd70     LIBCMTD:dbgrptw.obj
 0002:00003d88       ??_C@_1KM@HNMIBKJH@?$AAD?$AAe?$AAb?$AAu?$AAg?$AA?5?$AA?$CF?$AAs?$AA?$CB?$AA?6?$AA?6?$AAP?$AAr?$AAo?$AAg?$AAr?$AAa?$AAm?$AA?3?$AA?5?$AA?$CF?$AAs?$AA?$CF?$AAs?$AA?$CF?$AAs?$AA?$CF?$AAs?$AA?$CF?$AAs?$AA?$CF?$AAs@ 1006cd88     LIBCMTD:dbgrptw.obj
 0002:00003e34       ??_C@_1BI@KALLJECN@?$AA?$CI?$AA?$CK?$AA_?$AAe?$AAr?$AAr?$AAn?$AAo?$AA?$CI?$AA?$CJ?$AA?$CJ?$AA?$AA@ 1006ce34     LIBCMTD:dbgrptw.obj
 0002:00003e50       ??_C@_1JI@EACPGHID@?$AAw?$AAc?$AAs?$AAc?$AAp?$AAy?$AA_?$AAs?$AA?$CI?$AAs?$AAz?$AAO?$AAu?$AAt?$AAM?$AAe?$AAs?$AAs?$AAa?$AAg?$AAe?$AA?0?$AA?5?$AA4?$AA0?$AA9?$AA6?$AA?0?$AA?5?$AAL?$AA?$CC?$AA_@ 1006ce50     LIBCMTD:dbgrptw.obj
 0002:00003ee8       ??_C@_1FG@BBOLDHGF@?$AA_?$AAC?$AAr?$AAt?$AAD?$AAb?$AAg?$AAR?$AAe?$AAp?$AAo?$AAr?$AAt?$AA?3?$AA?5?$AAS?$AAt?$AAr?$AAi?$AAn?$AAg?$AA?5?$AAt?$AAo?$AAo?$AA?5?$AAl?$AAo?$AAn?$AAg?$AA?5?$AAo@ 1006cee8     LIBCMTD:dbgrptw.obj
 0002:00003f40       ??_C@_1EK@MBDPDCGA@?$AAM?$AAi?$AAc?$AAr?$AAo?$AAs?$AAo?$AAf?$AAt?$AA?5?$AAV?$AAi?$AAs?$AAu?$AAa?$AAl?$AA?5?$AAC?$AA?$CL?$AA?$CL?$AA?5?$AAR?$AAu?$AAn?$AAt?$AAi?$AAm?$AAe?$AA?5?$AAL?$AAi?$AAb@ 1006cf40     LIBCMTD:dbgrptw.obj
 0002:00003fb0       ??_7type_info@@6B@         1006cfb0     LIBCMTD:typinfo.obj
 0002:00003fb4       __FPinit                   1006cfb4     LIBCMTD:fpinit.obj
 0002:00003fb8       __pDefaultRawDllMain       1006cfb8     LIBCMTD:dllcrt0.obj
 0002:00003fb8       __pRawDllMain              1006cfb8     LIBCMTD:dllcrt0.obj
 0002:00003fbc       ??_C@_0DB@OLNOAEGF@f?3?2dd?2vctools?2crt_bld?2self_x86?2c@ 1006cfbc     LIBCMTD:dllcrt0.obj
 0002:00003ff0       ??_C@_1CC@MGIEJOME@?$AA?$CI?$AAf?$AAo?$AAr?$AAm?$AAa?$AAt?$AA?5?$AA?$CB?$AA?$DN?$AA?5?$AAN?$AAU?$AAL?$AAL?$AA?$CJ?$AA?$AA@ 1006cff0     LIBCMTD:vsnprint.obj
 0002:00004018       ??_C@_1GE@DPADKNCG@?$AAf?$AA?3?$AA?2?$AAd?$AAd?$AA?2?$AAv?$AAc?$AAt?$AAo?$AAo?$AAl?$AAs?$AA?2?$AAc?$AAr?$AAt?$AA_?$AAb?$AAl?$AAd?$AA?2?$AAs?$AAe?$AAl?$AAf?$AA_?$AAx?$AA8?$AA6?$AA?2?$AAc@ 1006d018     LIBCMTD:vsnprint.obj
 0002:0000407c       ??_C@_1BK@FHMHFMNL@?$AA_?$AAv?$AAs?$AAn?$AAp?$AAr?$AAi?$AAn?$AAt?$AAf?$AA_?$AAl?$AA?$AA@ 1006d07c     LIBCMTD:vsnprint.obj
 0002:00004098       ??_C@_1EC@FABAOFFO@?$AA?$CI?$AAc?$AAo?$AAu?$AAn?$AAt?$AA?5?$AA?$DN?$AA?$DN?$AA?5?$AA0?$AA?$CJ?$AA?5?$AA?$HM?$AA?$HM?$AA?5?$AA?$CI?$AAs?$AAt?$AAr?$AAi?$AAn?$AAg?$AA?5?$AA?$CB?$AA?$DN?$AA?5?$AAN?$AAU?$AAL?$AAL?$AA?$CJ@ 1006d098     LIBCMTD:vsnprint.obj
 0002:000040e0       ??_C@_1GC@BMNPEKNN@?$AAf?$AA?3?$AA?2?$AAd?$AAd?$AA?2?$AAv?$AAc?$AAt?$AAo?$AAo?$AAl?$AAs?$AA?2?$AAc?$AAr?$AAt?$AA_?$AAb?$AAl?$AAd?$AA?2?$AAs?$AAe?$AAl?$AAf?$AA_?$AAx?$AA8?$AA6?$AA?2?$AAc@ 1006d0e0     LIBCMTD:sprintf.obj
 0002:00004144       ??_C@_1BA@KBJJGFFE@?$AAs?$AAp?$AAr?$AAi?$AAn?$AAt?$AAf?$AA?$AA@ 1006d144     LIBCMTD:sprintf.obj
 0002:00004154       ??_C@_1CC@OLIJCKA@?$AA?$CI?$AAs?$AAt?$AAr?$AAi?$AAn?$AAg?$AA?5?$AA?$CB?$AA?$DN?$AA?5?$AAN?$AAU?$AAL?$AAL?$AA?$CJ?$AA?$AA@ 1006d154     LIBCMTD:sprintf.obj
 0002:00004178       ??_C@_0CP@MKONOLCI@f?3?2dd?2vctools?2crt_bld?2self_x86?2c@ 1006d178     LIBCMTD:mlock.obj
 0002:000041ac       ??_7exception@std@@6B@     1006d1ac     LIBCMTD:stdexcpt.obj
 0002:000041b4       ??_C@_0BC@EOODALEL@Unknown?5exception?$AA@ 1006d1b4     LIBCMTD:stdexcpt.obj
 0002:000041cc       ??_7bad_cast@std@@6B@      1006d1cc     LIBCMTD:stdexcpt.obj
 0002:000041d8       ??_7bad_typeid@std@@6B@    1006d1d8     LIBCMTD:stdexcpt.obj
 0002:000041e4       ??_7__non_rtti_object@std@@6B@ 1006d1e4     LIBCMTD:stdexcpt.obj
 0002:000042a8       ??_C@_1FK@PGACCAFB@?$AAR?$AA6?$AA0?$AA0?$AA2?$AA?$AN?$AA?6?$AA?9?$AA?5?$AAf?$AAl?$AAo?$AAa?$AAt?$AAi?$AAn?$AAg?$AA?5?$AAp?$AAo?$AAi?$AAn?$AAt?$AA?5?$AAs?$AAu?$AAp?$AAp?$AAo?$AAr?$AAt?$AA?5@ 1006d2a8     LIBCMTD:crt0msg.obj
 0002:00004308       ??_C@_1FE@LLNEDJMD@?$AAR?$AA6?$AA0?$AA0?$AA8?$AA?$AN?$AA?6?$AA?9?$AA?5?$AAn?$AAo?$AAt?$AA?5?$AAe?$AAn?$AAo?$AAu?$AAg?$AAh?$AA?5?$AAs?$AAp?$AAa?$AAc?$AAe?$AA?5?$AAf?$AAo?$AAr?$AA?5?$AAa?$AAr@ 1006d308     LIBCMTD:crt0msg.obj
 0002:00004360       ??_C@_1FI@HONFMGBI@?$AAR?$AA6?$AA0?$AA0?$AA9?$AA?$AN?$AA?6?$AA?9?$AA?5?$AAn?$AAo?$AAt?$AA?5?$AAe?$AAn?$AAo?$AAu?$AAg?$AAh?$AA?5?$AAs?$AAp?$AAa?$AAc?$AAe?$AA?5?$AAf?$AAo?$AAr?$AA?5?$AAe?$AAn@ 1006d360     LIBCMTD:crt0msg.obj
 0002:000043b8       ??_C@_1EG@BEHAGFJD@?$AAR?$AA6?$AA0?$AA1?$AA0?$AA?$AN?$AA?6?$AA?9?$AA?5?$AAa?$AAb?$AAo?$AAr?$AAt?$AA?$CI?$AA?$CJ?$AA?5?$AAh?$AAa?$AAs?$AA?5?$AAb?$AAe?$AAe?$AAn?$AA?5?$AAc?$AAa?$AAl?$AAl?$AAe?$AAd@ 1006d3b8     LIBCMTD:crt0msg.obj
 0002:00004400       ??_C@_1FI@LOGNIKDM@?$AAR?$AA6?$AA0?$AA1?$AA6?$AA?$AN?$AA?6?$AA?9?$AA?5?$AAn?$AAo?$AAt?$AA?5?$AAe?$AAn?$AAo?$AAu?$AAg?$AAh?$AA?5?$AAs?$AAp?$AAa?$AAc?$AAe?$AA?5?$AAf?$AAo?$AAr?$AA?5?$AAt?$AAh@ 1006d400     LIBCMTD:crt0msg.obj
 0002:00004458       ??_C@_1FK@BEOGODMC@?$AAR?$AA6?$AA0?$AA1?$AA7?$AA?$AN?$AA?6?$AA?9?$AA?5?$AAu?$AAn?$AAe?$AAx?$AAp?$AAe?$AAc?$AAt?$AAe?$AAd?$AA?5?$AAm?$AAu?$AAl?$AAt?$AAi?$AAt?$AAh?$AAr?$AAe?$AAa?$AAd?$AA?5@ 1006d458     LIBCMTD:crt0msg.obj
 0002:000044b8       ??_C@_1EC@JIBHAOPH@?$AAR?$AA6?$AA0?$AA1?$AA8?$AA?$AN?$AA?6?$AA?9?$AA?5?$AAu?$AAn?$AAe?$AAx?$AAp?$AAe?$AAc?$AAt?$AAe?$AAd?$AA?5?$AAh?$AAe?$AAa?$AAp?$AA?5?$AAe?$AAr?$AAr?$AAo?$AAr?$AA?$AN?$AA?6@ 1006d4b8     LIBCMTD:crt0msg.obj
 0002:00004500       ??_C@_1FC@ECHBIFBC@?$AAR?$AA6?$AA0?$AA1?$AA9?$AA?$AN?$AA?6?$AA?9?$AA?5?$AAu?$AAn?$AAa?$AAb?$AAl?$AAe?$AA?5?$AAt?$AAo?$AA?5?$AAo?$AAp?$AAe?$AAn?$AA?5?$AAc?$AAo?$AAn?$AAs?$AAo?$AAl?$AAe?$AA?5@ 1006d500     LIBCMTD:crt0msg.obj
 0002:00004558       ??_C@_1GK@FHCKBEFA@?$AAR?$AA6?$AA0?$AA2?$AA4?$AA?$AN?$AA?6?$AA?9?$AA?5?$AAn?$AAo?$AAt?$AA?5?$AAe?$AAn?$AAo?$AAu?$AAg?$AAh?$AA?5?$AAs?$AAp?$AAa?$AAc?$AAe?$AA?5?$AAf?$AAo?$AAr?$AA?5?$AA_?$AAo@ 1006d558     LIBCMTD:crt0msg.obj
 0002:000045c8       ??_C@_1EM@MAADIHMB@?$AAR?$AA6?$AA0?$AA2?$AA5?$AA?$AN?$AA?6?$AA?9?$AA?5?$AAp?$AAu?$AAr?$AAe?$AA?5?$AAv?$AAi?$AAr?$AAt?$AAu?$AAa?$AAl?$AA?5?$AAf?$AAu?$AAn?$AAc?$AAt?$AAi?$AAo?$AAn?$AA?5?$AAc@ 1006d5c8     LIBCMTD:crt0msg.obj
 0002:00004618       ??_C@_1GK@MCAAGJMO@?$AAR?$AA6?$AA0?$AA2?$AA6?$AA?$AN?$AA?6?$AA?9?$AA?5?$AAn?$AAo?$AAt?$AA?5?$AAe?$AAn?$AAo?$AAu?$AAg?$AAh?$AA?5?$AAs?$AAp?$AAa?$AAc?$AAe?$AA?5?$AAf?$AAo?$AAr?$AA?5?$AAs?$AAt@ 1006d618     LIBCMTD:crt0msg.obj
 0002:00004688       ??_C@_1GK@MFGOKLAG@?$AAR?$AA6?$AA0?$AA2?$AA7?$AA?$AN?$AA?6?$AA?9?$AA?5?$AAn?$AAo?$AAt?$AA?5?$AAe?$AAn?$AAo?$AAu?$AAg?$AAh?$AA?5?$AAs?$AAp?$AAa?$AAc?$AAe?$AA?5?$AAf?$AAo?$AAr?$AA?5?$AAl?$AAo@ 1006d688     LIBCMTD:crt0msg.obj
 0002:000046f8       ??_C@_1EK@HHFLMAOL@?$AAR?$AA6?$AA0?$AA2?$AA8?$AA?$AN?$AA?6?$AA?9?$AA?5?$AAu?$AAn?$AAa?$AAb?$AAl?$AAe?$AA?5?$AAt?$AAo?$AA?5?$AAi?$AAn?$AAi?$AAt?$AAi?$AAa?$AAl?$AAi?$AAz?$AAe?$AA?5?$AAh?$AAe@ 1006d6f8     LIBCMTD:crt0msg.obj
 0002:00004744       ??_C@_1DO@BMFCDCD@?$AAR?$AA6?$AA0?$AA3?$AA0?$AA?$AN?$AA?6?$AA?9?$AA?5?$AAC?$AAR?$AAT?$AA?5?$AAn?$AAo?$AAt?$AA?5?$AAi?$AAn?$AAi?$AAt?$AAi?$AAa?$AAl?$AAi?$AAz?$AAe?$AAd?$AA?$AN?$AA?6?$AA?$AA@ 1006d744     LIBCMTD:crt0msg.obj
 0002:00004788       ??_C@_1MG@ENCOOIDF@?$AAR?$AA6?$AA0?$AA3?$AA1?$AA?$AN?$AA?6?$AA?9?$AA?5?$AAA?$AAt?$AAt?$AAe?$AAm?$AAp?$AAt?$AA?5?$AAt?$AAo?$AA?5?$AAi?$AAn?$AAi?$AAt?$AAi?$AAa?$AAl?$AAi?$AAz?$AAe?$AA?5?$AAt@ 1006d788     LIBCMTD:crt0msg.obj
 0002:00004850       ??_C@_1GG@GOPILAJP@?$AAR?$AA6?$AA0?$AA3?$AA2?$AA?$AN?$AA?6?$AA?9?$AA?5?$AAn?$AAo?$AAt?$AA?5?$AAe?$AAn?$AAo?$AAu?$AAg?$AAh?$AA?5?$AAs?$AAp?$AAa?$AAc?$AAe?$AA?5?$AAf?$AAo?$AAr?$AA?5?$AAl?$AAo@ 1006d850     LIBCMTD:crt0msg.obj
 0002:000048b8       ??_C@_1BOO@KGEDBGAJ@?$AAR?$AA6?$AA0?$AA3?$AA3?$AA?$AN?$AA?6?$AA?9?$AA?5?$AAA?$AAt?$AAt?$AAe?$AAm?$AAp?$AAt?$AA?5?$AAt?$AAo?$AA?5?$AAu?$AAs?$AAe?$AA?5?$AAM?$AAS?$AAI?$AAL?$AA?5?$AAc?$AAo?$AAd@ 1006d8b8     LIBCMTD:crt0msg.obj
 0002:00004aa8       ??_C@_1GG@MKFPEKFO@?$AAR?$AA6?$AA0?$AA3?$AA4?$AA?$AN?$AA?6?$AA?9?$AA?5?$AAi?$AAn?$AAc?$AAo?$AAn?$AAs?$AAi?$AAs?$AAt?$AAe?$AAn?$AAt?$AA?5?$AAo?$AAn?$AAe?$AAx?$AAi?$AAt?$AA?5?$AAb?$AAe?$AAg@ 1006daa8     LIBCMTD:crt0msg.obj
 0002:00004b10       ??_C@_1BO@BFCDCGC@?$AAD?$AAO?$AAM?$AAA?$AAI?$AAN?$AA?5?$AAe?$AAr?$AAr?$AAo?$AAr?$AA?$AN?$AA?6?$AA?$AA@ 1006db10     LIBCMTD:crt0msg.obj
 0002:00004b30       ??_C@_1BK@KMOMNAAI@?$AAS?$AAI?$AAN?$AAG?$AA?5?$AAe?$AAr?$AAr?$AAo?$AAr?$AA?$AN?$AA?6?$AA?$AA@ 1006db30     LIBCMTD:crt0msg.obj
 0002:00004b4c       ??_C@_1BM@JBBEPPHI@?$AAT?$AAL?$AAO?$AAS?$AAS?$AA?5?$AAe?$AAr?$AAr?$AAo?$AAr?$AA?$AN?$AA?6?$AA?$AA@ 1006db4c     LIBCMTD:crt0msg.obj
 0002:00004b68       ??_C@_15JNBOKNOG@?$AA?$AN?$AA?6?$AA?$AA@ 1006db68     LIBCMTD:crt0msg.obj
 0002:00004b70       ??_C@_1BO@BKOMIGKJ@?$AAr?$AAu?$AAn?$AAt?$AAi?$AAm?$AAe?$AA?5?$AAe?$AAr?$AAr?$AAo?$AAr?$AA?5?$AA?$AA@ 1006db70     LIBCMTD:crt0msg.obj
 0002:00004b90       ??_C@_1GC@HKOJBOFF@?$AAf?$AA?3?$AA?2?$AAd?$AAd?$AA?2?$AAv?$AAc?$AAt?$AAo?$AAo?$AAl?$AAs?$AA?2?$AAc?$AAr?$AAt?$AA_?$AAb?$AAl?$AAd?$AA?2?$AAs?$AAe?$AAl?$AAf?$AA_?$AAx?$AA8?$AA6?$AA?2?$AAc@ 1006db90     LIBCMTD:crt0msg.obj
 0002:00004bf4       ??_C@_1BI@EAHMBMEC@?$AA_?$AAN?$AAM?$AAS?$AAG?$AA_?$AAW?$AAR?$AAI?$AAT?$AAE?$AA?$AA@ 1006dbf4     LIBCMTD:crt0msg.obj
 0002:00004c10       ??_C@_1KO@BKLCKNFL@?$AAw?$AAc?$AAs?$AAc?$AAp?$AAy?$AA_?$AAs?$AA?$CI?$AAo?$AAu?$AAt?$AAm?$AAs?$AAg?$AA?0?$AA?5?$AA?$CI?$AAs?$AAi?$AAz?$AAe?$AAo?$AAf?$AA?$CI?$AAo?$AAu?$AAt?$AAm?$AAs?$AAg?$AA?$CJ@ 1006dc10     LIBCMTD:crt0msg.obj
 0002:00004cc0       ??_C@_1DE@JNGNBFGO@?$AAR?$AAu?$AAn?$AAt?$AAi?$AAm?$AAe?$AA?5?$AAE?$AAr?$AAr?$AAo?$AAr?$AA?$CB?$AA?6?$AA?6?$AAP?$AAr?$AAo?$AAg?$AAr?$AAa?$AAm?$AA?3?$AA?5?$AA?$AA@ 1006dcc0     LIBCMTD:crt0msg.obj
 0002:00004cf8       ??_C@_1HK@FJJNAABO@?$AAw?$AAc?$AAs?$AAc?$AAp?$AAy?$AA_?$AAs?$AA?$CI?$AAp?$AAr?$AAo?$AAg?$AAn?$AAa?$AAm?$AAe?$AA?0?$AA?5?$AAp?$AAr?$AAo?$AAg?$AAn?$AAa?$AAm?$AAe?$AA_?$AAs?$AAi?$AAz?$AAe@ 1006dcf8     LIBCMTD:crt0msg.obj
 0002:00004d78       ??_C@_1HI@FLHKGEBE@?$AAw?$AAc?$AAs?$AAn?$AAc?$AAp?$AAy?$AA_?$AAs?$AA?$CI?$AAp?$AAc?$AAh?$AA?0?$AA?5?$AAp?$AAr?$AAo?$AAg?$AAn?$AAa?$AAm?$AAe?$AA_?$AAs?$AAi?$AAz?$AAe?$AA?5?$AA?9?$AA?5?$AA?$CI@ 1006dd78     LIBCMTD:crt0msg.obj
 0002:00004df0       ??_C@_1IA@DCJGKHFO@?$AAw?$AAc?$AAs?$AAc?$AAa?$AAt?$AA_?$AAs?$AA?$CI?$AAo?$AAu?$AAt?$AAm?$AAs?$AAg?$AA?0?$AA?5?$AA?$CI?$AAs?$AAi?$AAz?$AAe?$AAo?$AAf?$AA?$CI?$AAo?$AAu?$AAt?$AAm?$AAs?$AAg?$AA?$CJ@ 1006ddf0     LIBCMTD:crt0msg.obj
 0002:00004e70       ??_C@_1IG@NMONDPP@?$AAw?$AAc?$AAs?$AAc?$AAa?$AAt?$AA_?$AAs?$AA?$CI?$AAo?$AAu?$AAt?$AAm?$AAs?$AAg?$AA?0?$AA?5?$AA?$CI?$AAs?$AAi?$AAz?$AAe?$AAo?$AAf?$AA?$CI?$AAo?$AAu?$AAt?$AAm?$AAs?$AAg?$AA?$CJ@ 1006de70     LIBCMTD:crt0msg.obj
 0002:00004ef8       ??_C@_0DC@CFDMMFIG@f?3?2dd?2vctools?2crt_bld?2self_x86?2c@ 1006def8     LIBCMTD:inithelp.obj
 0002:00004f30       ??_C@_1GE@PLPIMDHG@?$AAf?$AA?3?$AA?2?$AAd?$AAd?$AA?2?$AAv?$AAc?$AAt?$AAo?$AAo?$AAl?$AAs?$AA?2?$AAc?$AAr?$AAt?$AA_?$AAb?$AAl?$AAd?$AA?2?$AAs?$AAe?$AAl?$AAf?$AA_?$AAx?$AA8?$AA6?$AA?2?$AAc@ 1006df30     LIBCMTD:inithelp.obj
 0002:00004f94       ??_C@_1CA@KHHCPEI@?$AA_?$AA_?$AAg?$AAe?$AAt?$AAl?$AAo?$AAc?$AAa?$AAl?$AAe?$AAi?$AAn?$AAf?$AAo?$AA?$AA@ 1006df94     LIBCMTD:inithelp.obj
 0002:00004fb8       ??_C@_1GO@NGIGJNHH@?$AAs?$AAt?$AAr?$AAn?$AAc?$AAp?$AAy?$AA_?$AAs?$AA?$CI?$AA?$CK?$AAs?$AAt?$AAr?$AAa?$AAd?$AAd?$AAr?$AAe?$AAs?$AAs?$AA?0?$AA?5?$AAo?$AAu?$AAt?$AAs?$AAi?$AAz?$AAe?$AA?0?$AA?5@ 1006dfb8     LIBCMTD:inithelp.obj
 0002:00005028       ??_C@_1BC@JLLICHIC@?$AAp?$AAn?$AAh?$AA?5?$AA?$DN?$AA?$DN?$AA?5?$AA0?$AA?$AA@ 1006e028     LIBCMTD:handler.obj
 0002:00005040       ??_C@_1GG@CDHAPCGF@?$AAf?$AA?3?$AA?2?$AAd?$AAd?$AA?2?$AAv?$AAc?$AAt?$AAo?$AAo?$AAl?$AAs?$AA?2?$AAc?$AAr?$AAt?$AA_?$AAb?$AAl?$AAd?$AA?2?$AAs?$AAe?$AAl?$AAf?$AA_?$AAx?$AA8?$AA6?$AA?2?$AAc@ 1006e040     LIBCMTD:handler.obj
 0002:000050bc       ??_C@_04HJMOFLDF@Free?$AA@ 1006e0bc     LIBCMTD:dbgheap.obj
 0002:000050c4       ??_C@_06EFAGIKOH@Normal?$AA@ 1006e0c4     LIBCMTD:dbgheap.obj
 0002:000050cc       ??_C@_03OGPFLFLO@CRT?$AA@  1006e0cc     LIBCMTD:dbgheap.obj
 0002:000050d0       ??_C@_06KMEJCCGM@Ignore?$AA@ 1006e0d0     LIBCMTD:dbgheap.obj
 0002:000050d8       ??_C@_06PJIGMIJB@Client?$AA@ 1006e0d8     LIBCMTD:dbgheap.obj
 0002:000050e0       ??_C@_1CE@LJFEPPMP@?$AA_?$AAC?$AAr?$AAt?$AAC?$AAh?$AAe?$AAc?$AAk?$AAM?$AAe?$AAm?$AAo?$AAr?$AAy?$AA?$CI?$AA?$CJ?$AA?$AA@ 1006e0e0     LIBCMTD:dbgheap.obj
 0002:00005108       ??_C@_1GC@DNJKKEAA@?$AAf?$AA?3?$AA?2?$AAd?$AAd?$AA?2?$AAv?$AAc?$AAt?$AAo?$AAo?$AAl?$AAs?$AA?2?$AAc?$AAr?$AAt?$AA_?$AAb?$AAl?$AAd?$AA?2?$AAs?$AAe?$AAl?$AAf?$AA_?$AAx?$AA8?$AA6?$AA?2?$AAc@ 1006e108     LIBCMTD:dbgheap.obj
 0002:0000516c       ??_C@_0DF@BBEGIFEK@Client?5hook?5allocation?5failure?5a@ 1006e16c     LIBCMTD:dbgheap.obj
 0002:000051a4       ??_C@_0CB@CCLOLAHO@Client?5hook?5allocation?5failure?4?6@ 1006e1a4     LIBCMTD:dbgheap.obj
 0002:000051c8       ??_C@_02DKCKIIND@?$CFs?$AA@ 1006e1c8     LIBCMTD:dbgheap.obj
 0002:000051cc       ??_C@_0CF@BICKFLAF@Invalid?5allocation?5size?3?5?$CFIu?5byt@ 1006e1cc     LIBCMTD:dbgheap.obj
 0002:000051f4       ??_C@_0DC@JEMAGEKG@Error?3?5memory?5allocation?3?5bad?5me@ 1006e1f4     LIBCMTD:dbgheap.obj
 0002:00005228       ??_C@_0DI@KKJPDPGM@Client?5hook?5re?9allocation?5failur@ 1006e228     LIBCMTD:dbgheap.obj
 0002:00005260       ??_C@_0CE@DOFMDOL@Client?5hook?5re?9allocation?5failur@ 1006e260     LIBCMTD:dbgheap.obj
 0002:00005288       ??_C@_0ED@GPCPBAGP@Invalid?5allocation?5size?3?5?$CFIu?5byt@ 1006e288     LIBCMTD:dbgheap.obj
 0002:000052d0       ??_C@_0FA@EFEIGJKG@Error?3?5memory?5allocation?3?5bad?5me@ 1006e2d0     LIBCMTD:dbgheap.obj
 0002:00005320       ??_C@_0EM@LGFLMAGJ@The?5Block?5at?50x?$CFp?5was?5allocated?5@ 1006e320     LIBCMTD:dbgheap.obj
 0002:00005370       ??_C@_1EE@GFOPCECE@?$AA_?$AAC?$AAr?$AAt?$AAI?$AAs?$AAV?$AAa?$AAl?$AAi?$AAd?$AAH?$AAe?$AAa?$AAp?$AAP?$AAo?$AAi?$AAn?$AAt?$AAe?$AAr?$AA?$CI?$AAp?$AAU?$AAs?$AAe?$AAr?$AAD?$AAa?$AAt?$AAa@ 1006e370     LIBCMTD:dbgheap.obj
 0002:000053b8       ??_C@_1IK@DCPKDGNH@?$AAp?$AAO?$AAl?$AAd?$AAB?$AAl?$AAo?$AAc?$AAk?$AA?9?$AA?$DO?$AAn?$AAL?$AAi?$AAn?$AAe?$AA?5?$AA?$DN?$AA?$DN?$AA?5?$AAI?$AAG?$AAN?$AAO?$AAR?$AAE?$AA_?$AAL?$AAI?$AAN?$AAE?$AA?5@ 1006e3b8     LIBCMTD:dbgheap.obj
 0002:00005444       ??_C@_0DA@HFBKENN@Error?3?5possible?5heap?5corruption?5@ 1006e444     LIBCMTD:dbgheap.obj
 0002:00005478       ??_C@_1GE@PCKLOLAO@?$AAf?$AAR?$AAe?$AAa?$AAl?$AAl?$AAo?$AAc?$AA?5?$AA?$HM?$AA?$HM?$AA?5?$AA?$CI?$AA?$CB?$AAf?$AAR?$AAe?$AAa?$AAl?$AAl?$AAo?$AAc?$AA?5?$AA?$CG?$AA?$CG?$AA?5?$AAp?$AAN?$AAe?$AAw?$AAB?$AAl@ 1006e478     LIBCMTD:dbgheap.obj
 0002:000054dc       ??_C@_1DC@GEFKNOOL@?$AA_?$AAp?$AAL?$AAa?$AAs?$AAt?$AAB?$AAl?$AAo?$AAc?$AAk?$AA?5?$AA?$DN?$AA?$DN?$AA?5?$AAp?$AAO?$AAl?$AAd?$AAB?$AAl?$AAo?$AAc?$AAk?$AA?$AA@ 1006e4dc     LIBCMTD:dbgheap.obj
 0002:00005510       ??_C@_1DE@KOOKLFBB@?$AA_?$AAp?$AAF?$AAi?$AAr?$AAs?$AAt?$AAB?$AAl?$AAo?$AAc?$AAk?$AA?5?$AA?$DN?$AA?$DN?$AA?5?$AAp?$AAO?$AAl?$AAd?$AAB?$AAl?$AAo?$AAc?$AAk?$AA?$AA@ 1006e510     LIBCMTD:dbgheap.obj
 0002:00005544       ??_C@_1CE@CJACEFBA@?$AAp?$AAU?$AAs?$AAe?$AAr?$AAD?$AAa?$AAt?$AAa?$AA?5?$AA?$CB?$AA?$DN?$AA?5?$AAN?$AAU?$AAL?$AAL?$AA?$AA@ 1006e544     LIBCMTD:dbgheap.obj
 0002:00005568       ??_C@_1BI@HAPNGHDP@?$AA_?$AAe?$AAx?$AAp?$AAa?$AAn?$AAd?$AA_?$AAd?$AAb?$AAg?$AA?$AA@ 1006e568     LIBCMTD:dbgheap.obj
 0002:00005580       ??_C@_0EJ@HEIBCIMJ@The?5Block?5at?50x?$CFp?5was?5allocated?5@ 1006e580     LIBCMTD:dbgheap.obj
 0002:000055cc       ??_C@_0BL@KEIPLFAC@Client?5hook?5free?5failure?4?6?$AA@ 1006e5cc     LIBCMTD:dbgheap.obj
 0002:000055e8       ??_C@_0KI@JGFOHMEB@HEAP?5CORRUPTION?5DETECTED?3?5before@ 1006e5e8     LIBCMTD:dbgheap.obj
 0002:00005690       ??_C@_0IK@PJCGLBOB@HEAP?5CORRUPTION?5DETECTED?3?5before@ 1006e690     LIBCMTD:dbgheap.obj
 0002:00005720       ??_C@_0KE@MBMNHHHN@HEAP?5CORRUPTION?5DETECTED?3?5after?5@ 1006e720     LIBCMTD:dbgheap.obj
 0002:000057c8       ??_C@_0IG@LEMBDCJK@HEAP?5CORRUPTION?5DETECTED?3?5after?5@ 1006e7c8     LIBCMTD:dbgheap.obj
 0002:00005850       ??_C@_1HK@HPCBMDFG@?$AAp?$AAH?$AAe?$AAa?$AAd?$AA?9?$AA?$DO?$AAn?$AAL?$AAi?$AAn?$AAe?$AA?5?$AA?$DN?$AA?$DN?$AA?5?$AAI?$AAG?$AAN?$AAO?$AAR?$AAE?$AA_?$AAL?$AAI?$AAN?$AAE?$AA?5?$AA?$CG?$AA?$CG?$AA?5?$AAp@ 1006e850     LIBCMTD:dbgheap.obj
 0002:000058cc       ??_C@_1DM@ODCJIDCP@?$AAp?$AAH?$AAe?$AAa?$AAd?$AA?9?$AA?$DO?$AAn?$AAB?$AAl?$AAo?$AAc?$AAk?$AAU?$AAs?$AAe?$AA?5?$AA?$DN?$AA?$DN?$AA?5?$AAn?$AAB?$AAl?$AAo?$AAc?$AAk?$AAU?$AAs?$AAe?$AA?$AA@ 1006e8cc     LIBCMTD:dbgheap.obj
 0002:00005908       ??_C@_1CK@DMAGEMBG@?$AA_?$AAp?$AAL?$AAa?$AAs?$AAt?$AAB?$AAl?$AAo?$AAc?$AAk?$AA?5?$AA?$DN?$AA?$DN?$AA?5?$AAp?$AAH?$AAe?$AAa?$AAd?$AA?$AA@ 1006e908     LIBCMTD:dbgheap.obj
 0002:00005934       ??_C@_1CM@MMAADDMD@?$AA_?$AAp?$AAF?$AAi?$AAr?$AAs?$AAt?$AAB?$AAl?$AAo?$AAc?$AAk?$AA?5?$AA?$DN?$AA?$DN?$AA?5?$AAp?$AAH?$AAe?$AAa?$AAd?$AA?$AA@ 1006e934     LIBCMTD:dbgheap.obj
 0002:00005960       ??_C@_1BG@MBKOGDLD@?$AA_?$AAm?$AAs?$AAi?$AAz?$AAe?$AA_?$AAd?$AAb?$AAg?$AA?$AA@ 1006e960     LIBCMTD:dbgheap.obj
 0002:00005978       ??_C@_0CE@MKKHMBMK@_heapchk?5fails?5with?5_HEAPBADBEGI@ 1006e978     LIBCMTD:dbgheap.obj
 0002:0000599c       ??_C@_0CD@CPKEAPBD@_heapchk?5fails?5with?5_HEAPBADNODE@ 1006e99c     LIBCMTD:dbgheap.obj
 0002:000059c0       ??_C@_0CC@MJGLGBDG@_heapchk?5fails?5with?5_HEAPBADEND?4@ 1006e9c0     LIBCMTD:dbgheap.obj
 0002:000059e4       ??_C@_0CC@MFFCHFHO@_heapchk?5fails?5with?5_HEAPBADPTR?4@ 1006e9e4     LIBCMTD:dbgheap.obj
 0002:00005a08       ??_C@_0CL@HNNNMKMJ@_heapchk?5fails?5with?5unknown?5retu@ 1006ea08     LIBCMTD:dbgheap.obj
 0002:00005a34       ??_C@_07OHKEFPKJ@DAMAGED?$AA@ 1006ea34     LIBCMTD:dbgheap.obj
 0002:00005a40       ??_C@_0KA@IHNJJKPL@HEAP?5CORRUPTION?5DETECTED?3?5on?5top@ 1006ea40     LIBCMTD:dbgheap.obj
 0002:00005ae0       ??_C@_0IC@BBJIOOJH@HEAP?5CORRUPTION?5DETECTED?3?5on?5top@ 1006eae0     LIBCMTD:dbgheap.obj
 0002:00005b68       ??_C@_0EG@DGJMPDBH@?$CFhs?5located?5at?50x?$CFp?5is?5?$CFIu?5bytes@ 1006eb68     LIBCMTD:dbgheap.obj
 0002:00005bb0       ??_C@_0CI@JMLBEDHJ@?$CFhs?5located?5at?50x?$CFp?5is?5?$CFIu?5bytes@ 1006ebb0     LIBCMTD:dbgheap.obj
 0002:00005bd8       ??_C@_1BHO@NNANJNF@?$AA?$CI?$AAf?$AAN?$AAe?$AAw?$AAB?$AAi?$AAt?$AAs?$AA?$DN?$AA?$DN?$AA_?$AAC?$AAR?$AAT?$AAD?$AAB?$AAG?$AA_?$AAR?$AAE?$AAP?$AAO?$AAR?$AAT?$AA_?$AAF?$AAL?$AAA?$AAG?$AA?$CJ?$AA?5@ 1006ebd8     LIBCMTD:dbgheap.obj
 0002:00005d58       ??_C@_1BO@GJFDNMNF@?$AA_?$AAC?$AAr?$AAt?$AAS?$AAe?$AAt?$AAD?$AAb?$AAg?$AAF?$AAl?$AAa?$AAg?$AA?$AA@ 1006ed58     LIBCMTD:dbgheap.obj
 0002:00005d78       ??_C@_1BI@CJGCEEDL@?$AAp?$AAf?$AAn?$AA?5?$AA?$CB?$AA?$DN?$AA?5?$AAN?$AAU?$AAL?$AAL?$AA?$AA@ 1006ed78     LIBCMTD:dbgheap.obj
 0002:00005d90       ??_C@_1DE@GJCKCKEC@?$AA_?$AAC?$AAr?$AAt?$AAD?$AAo?$AAF?$AAo?$AAr?$AAA?$AAl?$AAl?$AAC?$AAl?$AAi?$AAe?$AAn?$AAt?$AAO?$AAb?$AAj?$AAe?$AAc?$AAt?$AAs?$AA?$AA@ 1006ed90     LIBCMTD:dbgheap.obj
 0002:00005dc4       ??_C@_1BM@MIMANDHC@?$AAs?$AAt?$AAa?$AAt?$AAe?$AA?5?$AA?$CB?$AA?$DN?$AA?5?$AAN?$AAU?$AAL?$AAL?$AA?$AA@ 1006edc4     LIBCMTD:dbgheap.obj
 0002:00005de0       ??_C@_1CE@NJJKELF@?$AA_?$AAC?$AAr?$AAt?$AAM?$AAe?$AAm?$AAC?$AAh?$AAe?$AAc?$AAk?$AAp?$AAo?$AAi?$AAn?$AAt?$AA?$AA@ 1006ede0     LIBCMTD:dbgheap.obj
 0002:00005e04       ??_C@_0DP@LEFMFBOD@Bad?5memory?5block?5found?5at?50x?$CFp?4?6@ 1006ee04     LIBCMTD:dbgheap.obj
 0002:00005e44       ??_C@_0CB@EAAIGELO@Bad?5memory?5block?5found?5at?50x?$CFp?4?6@ 1006ee44     LIBCMTD:dbgheap.obj
 0002:00005e68       ??_C@_1CE@PDIENACM@?$AA_?$AAC?$AAr?$AAt?$AAM?$AAe?$AAm?$AAD?$AAi?$AAf?$AAf?$AAe?$AAr?$AAe?$AAn?$AAc?$AAe?$AA?$AA@ 1006ee68     LIBCMTD:dbgheap.obj
 0002:00005e8c       ??_C@_1CC@DHPFEMMN@?$AAo?$AAl?$AAd?$AAS?$AAt?$AAa?$AAt?$AAe?$AA?5?$AA?$CB?$AA?$DN?$AA?5?$AAN?$AAU?$AAL?$AAL?$AA?$AA@ 1006ee8c     LIBCMTD:dbgheap.obj
 0002:00005eb0       ??_C@_1CC@DFPEDFBP@?$AAn?$AAe?$AAw?$AAS?$AAt?$AAa?$AAt?$AAe?$AA?5?$AA?$CB?$AA?$DN?$AA?5?$AAN?$AAU?$AAL?$AAL?$AA?$AA@ 1006eeb0     LIBCMTD:dbgheap.obj
 0002:00005ed4       ??_C@_05MKKEDADM@?$CF?42X?5?$AA@ 1006eed4     LIBCMTD:dbgheap.obj
 0002:00005edc       ??_C@_1CG@LPFIACGM@?$AA_?$AAp?$AAr?$AAi?$AAn?$AAt?$AAM?$AAe?$AAm?$AAB?$AAl?$AAo?$AAc?$AAk?$AAD?$AAa?$AAt?$AAa?$AA?$AA@ 1006eedc     LIBCMTD:dbgheap.obj
 0002:00005f04       ??_C@_0BA@HJBKCELP@?5Data?3?5?$DM?$CFs?$DO?5?$CFs?6?$AA@ 1006ef04     LIBCMTD:dbgheap.obj
 0002:00005f14       ??_C@_0BE@KCIPKCIA@Dumping?5objects?5?9?$DO?6?$AA@ 1006ef14     LIBCMTD:dbgheap.obj
 0002:00005f28       ??_C@_0BE@OIEFNFL@?$CDFile?5Error?$CD?$CI?$CFd?$CJ?5?3?5?$AA@ 1006ef28     LIBCMTD:dbgheap.obj
 0002:00005f3c       ??_C@_0L@JMEFFCCJ@?$CFhs?$CI?$CFd?$CJ?5?3?5?$AA@ 1006ef3c     LIBCMTD:dbgheap.obj
 0002:00005f48       ??_C@_06PKLGBFGM@?$HL?$CFld?$HN?5?$AA@ 1006ef48     LIBCMTD:dbgheap.obj
 0002:00005f50       ??_C@_0DD@GHNAAKBB@client?5block?5at?50x?$CFp?0?5subtype?5?$CFx@ 1006ef50     LIBCMTD:dbgheap.obj
 0002:00005f84       ??_C@_0CH@FAGDDGPN@normal?5block?5at?50x?$CFp?0?5?$CFIu?5bytes?5@ 1006ef84     LIBCMTD:dbgheap.obj
 0002:00005fac       ??_C@_0DA@MDLBNIBM@crt?5block?5at?50x?$CFp?0?5subtype?5?$CFx?0?5?$CF@ 1006efac     LIBCMTD:dbgheap.obj
 0002:00005fdc       ??_C@_0BH@GFGKJDCO@Object?5dump?5complete?4?6?$AA@ 1006efdc     LIBCMTD:dbgheap.obj
 0002:00005ff4       ??_C@_0BI@JBFPOEJA@Detected?5memory?5leaks?$CB?6?$AA@ 1006eff4     LIBCMTD:dbgheap.obj
 0002:0000600c       ??_C@_1CM@MPNIBKGK@?$AA_?$AAC?$AAr?$AAt?$AAM?$AAe?$AAm?$AAD?$AAu?$AAm?$AAp?$AAS?$AAt?$AAa?$AAt?$AAi?$AAs?$AAt?$AAi?$AAc?$AAs?$AA?$AA@ 1006f00c     LIBCMTD:dbgheap.obj
 0002:00006038       ??_C@_0BO@DACNIABB@?$CFId?5bytes?5in?5?$CFId?5?$CFhs?5Blocks?4?6?$AA@ 1006f038     LIBCMTD:dbgheap.obj
 0002:00006058       ??_C@_0CB@BLHDAFNE@Largest?5number?5used?3?5?$CFId?5bytes?4?6@ 1006f058     LIBCMTD:dbgheap.obj
 0002:0000607c       ??_C@_0BP@DEDHGGGI@Total?5allocations?3?5?$CFId?5bytes?4?6?$AA@ 1006f07c     LIBCMTD:dbgheap.obj
 0002:0000609c       ??_C@_1CE@NPMGPNNP@?$AAI?$AAS?$AA_?$AA2?$AA_?$AAP?$AAO?$AAW?$AA_?$AAN?$AA?$CI?$AAa?$AAl?$AAi?$AAg?$AAn?$AA?$CJ?$AA?$AA@ 1006f09c     LIBCMTD:dbgheap.obj
 0002:000060c0       ??_C@_1DG@DONCJBBJ@?$AA_?$AAa?$AAl?$AAi?$AAg?$AAn?$AAe?$AAd?$AA_?$AAo?$AAf?$AAf?$AAs?$AAe?$AAt?$AA_?$AAm?$AAa?$AAl?$AAl?$AAo?$AAc?$AA_?$AAd?$AAb?$AAg?$AA?$AA@ 1006f0c0     LIBCMTD:dbgheap.obj
 0002:000060f8       ??_C@_1DK@LFLKFPDA@?$AAo?$AAf?$AAf?$AAs?$AAe?$AAt?$AA?5?$AA?$DN?$AA?$DN?$AA?5?$AA0?$AA?5?$AA?$HM?$AA?$HM?$AA?5?$AAo?$AAf?$AAf?$AAs?$AAe?$AAt?$AA?5?$AA?$DM?$AA?5?$AAs?$AAi?$AAz?$AAe?$AA?$AA@ 1006f0f8     LIBCMTD:dbgheap.obj
 0002:00006138       ??_C@_0EI@NDNJMAJK@The?5block?5at?50x?$CFp?5was?5not?5alloca@ 1006f138     LIBCMTD:dbgheap.obj
 0002:00006180       ??_C@_0DL@PGHMMKNE@Damage?5before?50x?$CFp?5which?5was?5all@ 1006f180     LIBCMTD:dbgheap.obj
 0002:000061bc       ??_C@_1DI@NINIKFFK@?$AA_?$AAa?$AAl?$AAi?$AAg?$AAn?$AAe?$AAd?$AA_?$AAo?$AAf?$AAf?$AAs?$AAe?$AAt?$AA_?$AAr?$AAe?$AAa?$AAl?$AAl?$AAo?$AAc?$AA_?$AAd?$AAb?$AAg?$AA?$AA@ 1006f1bc     LIBCMTD:dbgheap.obj
 0002:000061f8       ??_C@_0EF@PGELACII@The?5block?5at?50x?$CFp?5was?5not?5alloca@ 1006f1f8     LIBCMTD:dbgheap.obj
 0002:00006240       ??_C@_1CC@MOBIKHH@?$AAm?$AAe?$AAm?$AAb?$AAl?$AAo?$AAc?$AAk?$AA?5?$AA?$CB?$AA?$DN?$AA?5?$AAN?$AAU?$AAL?$AAL?$AA?$AA@ 1006f240     LIBCMTD:dbgheap.obj
 0002:00006264       ??_C@_1CG@CEGMHIMN@?$AA_?$AAa?$AAl?$AAi?$AAg?$AAn?$AAe?$AAd?$AA_?$AAm?$AAs?$AAi?$AAz?$AAe?$AA_?$AAd?$AAb?$AAg?$AA?$AA@ 1006f264     LIBCMTD:dbgheap.obj
 0002:0000628c       ??_C@_1BI@BGOHAHKC@?$AAm?$AAs?$AAc?$AAo?$AAr?$AAe?$AAe?$AA?4?$AAd?$AAl?$AAl?$AA?$AA@ 1006f28c     LIBCMTD:crt0dat.obj
 0002:000062a4       ??_C@_0P@MIGLKIOC@CorExitProcess?$AA@ 1006f2a4     LIBCMTD:crt0dat.obj
 0002:000062b4       ??_C@_1BO@LKEBEKJP@?$AAp?$AAV?$AAa?$AAl?$AAu?$AAe?$AA?5?$AA?$CB?$AA?$DN?$AA?5?$AAN?$AAU?$AAL?$AAL?$AA?$AA@ 1006f2b4     LIBCMTD:crt0dat.obj
 0002:000062d8       ??_C@_1GC@DGCPEDNJ@?$AAf?$AA?3?$AA?2?$AAd?$AAd?$AA?2?$AAv?$AAc?$AAt?$AAo?$AAo?$AAl?$AAs?$AA?2?$AAc?$AAr?$AAt?$AA_?$AAb?$AAl?$AAd?$AA?2?$AAs?$AAe?$AAl?$AAf?$AA_?$AAx?$AA8?$AA6?$AA?2?$AAc@ 1006f2d8     LIBCMTD:crt0dat.obj
 0002:0000633c       ??_C@_1BK@PNLDCCDP@?$AA_?$AAg?$AAe?$AAt?$AA_?$AAw?$AAp?$AAg?$AAm?$AAp?$AAt?$AAr?$AA?$AA@ 1006f33c     LIBCMTD:crt0dat.obj
 0002:00006358       ??_C@_1CC@CDIPMFPD@?$AA_?$AAw?$AAp?$AAg?$AAm?$AAp?$AAt?$AAr?$AA?5?$AA?$CB?$AA?$DN?$AA?5?$AAN?$AAU?$AAL?$AAL?$AA?$AA@ 1006f358     LIBCMTD:crt0dat.obj
 0002:0000637c       ??_C@_1BI@COAAPHJK@?$AA_?$AAg?$AAe?$AAt?$AA_?$AAp?$AAg?$AAm?$AAp?$AAt?$AAr?$AA?$AA@ 1006f37c     LIBCMTD:crt0dat.obj
 0002:00006394       ??_C@_1CA@BBNAFCKO@?$AA_?$AAp?$AAg?$AAm?$AAp?$AAt?$AAr?$AA?5?$AA?$CB?$AA?$DN?$AA?5?$AAN?$AAU?$AAL?$AAL?$AA?$AA@ 1006f394     LIBCMTD:crt0dat.obj
 0002:000063b4       ??_C@_1BK@DJNILIMN@?$AAp?$AAa?$AAt?$AAh?$AA?5?$AA?$CB?$AA?$DN?$AA?5?$AAN?$AAU?$AAL?$AAL?$AA?$AA@ 1006f3b4     LIBCMTD:crt0dat.obj
 0002:000063d0       ??_C@_1DG@KANBJOCK@?$AA_?$AA_?$AAc?$AAo?$AAp?$AAy?$AA_?$AAp?$AAa?$AAt?$AAh?$AA_?$AAt?$AAo?$AA_?$AAw?$AAi?$AAd?$AAe?$AA_?$AAs?$AAt?$AAr?$AAi?$AAn?$AAg?$AA?$AA@ 1006f3d0     LIBCMTD:crt0dat.obj
 0002:00006408       ??_C@_1CA@BGODLPHH@?$AAo?$AAu?$AAt?$AAP?$AAa?$AAt?$AAh?$AA?5?$AA?$CB?$AA?$DN?$AA?5?$AAN?$AAU?$AAL?$AAL?$AA?$AA@ 1006f408     LIBCMTD:crt0dat.obj
 0002:00006428       ??_C@_0DB@LJJKGJFF@f?3?2dd?2vctools?2crt_bld?2self_x86?2c@ 1006f428     LIBCMTD:crt0dat.obj
 0002:0000645c       ??_C@_0BE@JOGNEJCI@GetCurrentPackageId?$AA@ 1006f45c     LIBCMTD:winapisupp.obj
 0002:00006470       ??_C@_1BK@MGMFAEKH@?$AAk?$AAe?$AAr?$AAn?$AAe?$AAl?$AA3?$AA2?$AA?4?$AAd?$AAl?$AAl?$AA?$AA@ 1006f470     LIBCMTD:winapisupp.obj
 0002:00006490       ??_C@_1FC@NCPEPIBI@?$AA?$CI?$AA?$CI?$AA_?$AAD?$AAs?$AAt?$AA?$CJ?$AA?$CJ?$AA?5?$AA?$CB?$AA?$DN?$AA?5?$AAN?$AAU?$AAL?$AAL?$AA?5?$AA?$CG?$AA?$CG?$AA?5?$AA?$CI?$AA?$CI?$AA_?$AAS?$AAi?$AAz?$AAe?$AAI?$AAn?$AAB?$AAy?$AAt@ 1006f490     LIBCMTD:strcpy_s.obj
 0002:000064e8       ??_C@_1GI@BGBNCIMA@?$AAf?$AA?3?$AA?2?$AAd?$AAd?$AA?2?$AAv?$AAc?$AAt?$AAo?$AAo?$AAl?$AAs?$AA?2?$AAc?$AAr?$AAt?$AA_?$AAb?$AAl?$AAd?$AA?2?$AAs?$AAe?$AAl?$AAf?$AA_?$AAx?$AA8?$AA6?$AA?2?$AAc@ 1006f4e8     LIBCMTD:strcpy_s.obj
 0002:00006550       ??_C@_1BC@CFJEPFGF@?$AAs?$AAt?$AAr?$AAc?$AAp?$AAy?$AA_?$AAs?$AA?$AA@ 1006f550     LIBCMTD:strcpy_s.obj
 0002:00006564       ??_C@_1CG@OFBJMIGJ@?$AA?$CI?$AA?$CI?$AA?$CI?$AA_?$AAS?$AAr?$AAc?$AA?$CJ?$AA?$CJ?$AA?$CJ?$AA?5?$AA?$CB?$AA?$DN?$AA?5?$AAN?$AAU?$AAL?$AAL?$AA?$AA@ 1006f564     LIBCMTD:strcpy_s.obj
 0002:00006590       ??_C@_1BJK@FEBNHLFF@?$AA?$CI?$AA?$CI?$AAp?$AAt?$AAl?$AAo?$AAc?$AAi?$AA?9?$AA?$DO?$AAl?$AAc?$AA_?$AAc?$AAa?$AAt?$AAe?$AAg?$AAo?$AAr?$AAy?$AA?$FL?$AAc?$AAa?$AAt?$AAe?$AAg?$AAo?$AAr?$AAy?$AA?$FN?$AA?4@ 1006f590     LIBCMTD:localref.obj
 0002:00006730       ??_C@_1GE@HMAALBPJ@?$AAf?$AA?3?$AA?2?$AAd?$AAd?$AA?2?$AAv?$AAc?$AAt?$AAo?$AAo?$AAl?$AAs?$AA?2?$AAc?$AAr?$AAt?$AA_?$AAb?$AAl?$AAd?$AA?2?$AAs?$AAe?$AAl?$AAf?$AA_?$AAx?$AA8?$AA6?$AA?2?$AAc@ 1006f730     LIBCMTD:localref.obj
 0002:000067a4       ??_C@_1M@HPNHIDJI@?$AAj?$AAa?$AA?9?$AAJ?$AAP?$AA?$AA@ 1006f7a4     LIBCMTD:mbctype.obj
 0002:000067b0       ??_C@_1M@BIBDDEMK@?$AAz?$AAh?$AA?9?$AAC?$AAN?$AA?$AA@ 1006f7b0     LIBCMTD:mbctype.obj
 0002:000067bc       ??_C@_1M@JLOOOEGK@?$AAk?$AAo?$AA?9?$AAK?$AAR?$AA?$AA@ 1006f7bc     LIBCMTD:mbctype.obj
 0002:000067c8       ??_C@_1M@CLNBBOPM@?$AAz?$AAh?$AA?9?$AAT?$AAW?$AA?$AA@ 1006f7c8     LIBCMTD:mbctype.obj
 0002:000067d4       ??_C@_0DB@MHMEONEC@f?3?2dd?2vctools?2crt_bld?2self_x86?2c@ 1006f7d4     LIBCMTD:mbctype.obj
 0002:00006808       ??_C@_1FE@KNPCCODH@?$AA?$CI?$AA?$CC?$AAC?$AAo?$AAr?$AAr?$AAu?$AAp?$AAt?$AAe?$AAd?$AA?5?$AAp?$AAo?$AAi?$AAn?$AAt?$AAe?$AAr?$AA?5?$AAp?$AAa?$AAs?$AAs?$AAe?$AAd?$AA?5?$AAt?$AAo?$AA?5?$AA_?$AAf@ 1006f808     LIBCMTD:a_map.obj
 0002:00006860       ??_C@_1GA@INJGGEBC@?$AAf?$AA?3?$AA?2?$AAd?$AAd?$AA?2?$AAv?$AAc?$AAt?$AAo?$AAo?$AAl?$AAs?$AA?2?$AAc?$AAr?$AAt?$AA_?$AAb?$AAl?$AAd?$AA?2?$AAs?$AAe?$AAl?$AAf?$AA_?$AAx?$AA8?$AA6?$AA?2?$AAc@ 1006f860     LIBCMTD:a_map.obj
 0002:000068c0       ??_C@_0DC@LMJHGCKC@f?3?2dd?2vctools?2crt_bld?2self_x86?2c@ 1006f8c0     LIBCMTD:tidtable.obj
 0002:000068f8       ??_C@_1GA@MFGIMPNL@?$AAf?$AA?3?$AA?2?$AAd?$AAd?$AA?2?$AAv?$AAc?$AAt?$AAo?$AAo?$AAl?$AAs?$AA?2?$AAc?$AAr?$AAt?$AA_?$AAb?$AAl?$AAd?$AA?2?$AAs?$AAe?$AAl?$AAf?$AA_?$AAx?$AA8?$AA6?$AA?2?$AAc@ 1006f8f8     LIBCMTD:dosmap.obj
 0002:00006958       ??_C@_1BG@KCMPBBDK@?$AA_?$AAg?$AAe?$AAt?$AA_?$AAe?$AAr?$AAr?$AAn?$AAo?$AA?$AA@ 1006f958     LIBCMTD:dosmap.obj
 0002:00006970       ??_C@_1BM@INIPHHDD@?$AA_?$AAg?$AAe?$AAt?$AA_?$AAd?$AAo?$AAs?$AAe?$AAr?$AAr?$AAn?$AAo?$AA?$AA@ 1006f970     LIBCMTD:dosmap.obj
 0002:0000698c       ??_C@_03KOEHGMDN@Sun?$AA@  1006f98c     LIBCMTD:nlsdata.obj
 0002:00006990       ??_C@_03PDAGKDH@Mon?$AA@   1006f990     LIBCMTD:nlsdata.obj
 0002:00006994       ??_C@_03NAGEINEP@Tue?$AA@  1006f994     LIBCMTD:nlsdata.obj
 0002:00006998       ??_C@_03MHOMLAJA@Wed?$AA@  1006f998     LIBCMTD:nlsdata.obj
 0002:0000699c       ??_C@_03IOFIKPDN@Thu?$AA@  1006f99c     LIBCMTD:nlsdata.obj
 0002:000069a0       ??_C@_03IDIOELNC@Fri?$AA@  1006f9a0     LIBCMTD:nlsdata.obj
 0002:000069a4       ??_C@_03FEFJNEK@Sat?$AA@   1006f9a4     LIBCMTD:nlsdata.obj
 0002:000069a8       ??_C@_06OOPIFAJ@Sunday?$AA@ 1006f9a8     LIBCMTD:nlsdata.obj
 0002:000069b0       ??_C@_06JLEDEDGH@Monday?$AA@ 1006f9b0     LIBCMTD:nlsdata.obj
 0002:000069b8       ??_C@_07BAAGCFCM@Tuesday?$AA@ 1006f9b8     LIBCMTD:nlsdata.obj
 0002:000069c0       ??_C@_09DLIGFAKA@Wednesday?$AA@ 1006f9c0     LIBCMTD:nlsdata.obj
 0002:000069cc       ??_C@_08HACCIKIA@Thursday?$AA@ 1006f9cc     LIBCMTD:nlsdata.obj
 0002:000069d8       ??_C@_06JECMNKMI@Friday?$AA@ 1006f9d8     LIBCMTD:nlsdata.obj
 0002:000069e0       ??_C@_08INBOOONO@Saturday?$AA@ 1006f9e0     LIBCMTD:nlsdata.obj
 0002:000069ec       ??_C@_03JIHJHPIE@Jan?$AA@  1006f9ec     LIBCMTD:nlsdata.obj
 0002:000069f0       ??_C@_03HJBDCHOM@Feb?$AA@  1006f9f0     LIBCMTD:nlsdata.obj
 0002:000069f4       ??_C@_03ODNJBKGA@Mar?$AA@  1006f9f4     LIBCMTD:nlsdata.obj
 0002:000069f8       ??_C@_03LEOLGMJP@Apr?$AA@  1006f9f8     LIBCMTD:nlsdata.obj
 0002:000069fc       ??_C@_03CNMDKL@May?$AA@    1006f9fc     LIBCMTD:nlsdata.obj
 0002:00006a00       ??_C@_03IDFGHECI@Jun?$AA@  1006fa00     LIBCMTD:nlsdata.obj
 0002:00006a04       ??_C@_03LBGABGKK@Jul?$AA@  1006fa04     LIBCMTD:nlsdata.obj
 0002:00006a08       ??_C@_03IFJFEIGA@Aug?$AA@  1006fa08     LIBCMTD:nlsdata.obj
 0002:00006a0c       ??_C@_03GGCAPAJC@Sep?$AA@  1006fa0c     LIBCMTD:nlsdata.obj
 0002:00006a10       ??_C@_03BMAOKBAD@Oct?$AA@  1006fa10     LIBCMTD:nlsdata.obj
 0002:00006a14       ??_C@_03JPJOFNIA@Nov?$AA@  1006fa14     LIBCMTD:nlsdata.obj
 0002:00006a18       ??_C@_03MKABNOCG@Dec?$AA@  1006fa18     LIBCMTD:nlsdata.obj
 0002:00006a1c       ??_C@_07CGJPFGJA@January?$AA@ 1006fa1c     LIBCMTD:nlsdata.obj
 0002:00006a24       ??_C@_08GNJGEPFN@February?$AA@ 1006fa24     LIBCMTD:nlsdata.obj
 0002:00006a30       ??_C@_05HPCKOFNC@March?$AA@ 1006fa30     LIBCMTD:nlsdata.obj
 0002:00006a38       ??_C@_05DMJDNLEJ@April?$AA@ 1006fa38     LIBCMTD:nlsdata.obj
 0002:00006a40       ??_C@_04CNLMGBGM@June?$AA@ 1006fa40     LIBCMTD:nlsdata.obj
 0002:00006a48       ??_C@_04MIEPOIFP@July?$AA@ 1006fa48     LIBCMTD:nlsdata.obj
 0002:00006a50       ??_C@_06LBBHFDDG@August?$AA@ 1006fa50     LIBCMTD:nlsdata.obj
 0002:00006a58       ??_C@_09BHHEALKD@September?$AA@ 1006fa58     LIBCMTD:nlsdata.obj
 0002:00006a64       ??_C@_07JJNFCEND@October?$AA@ 1006fa64     LIBCMTD:nlsdata.obj
 0002:00006a6c       ??_C@_08HCHEGEOA@November?$AA@ 1006fa6c     LIBCMTD:nlsdata.obj
 0002:00006a78       ??_C@_08EDHMEBNP@December?$AA@ 1006fa78     LIBCMTD:nlsdata.obj
 0002:00006a84       ??_C@_02DEDBPAFC@AM?$AA@   1006fa84     LIBCMTD:nlsdata.obj
 0002:00006a88       ??_C@_02CJNFDJBF@PM?$AA@   1006fa88     LIBCMTD:nlsdata.obj
 0002:00006a8c       ??_C@_08BPBNCDIB@MM?1dd?1yy?$AA@ 1006fa8c     LIBCMTD:nlsdata.obj
 0002:00006a98       ??_C@_0BE@CKGJFCPC@dddd?0?5MMMM?5dd?0?5yyyy?$AA@ 1006fa98     LIBCMTD:nlsdata.obj
 0002:00006aac       ??_C@_08JCCMCCIL@HH?3mm?3ss?$AA@ 1006faac     LIBCMTD:nlsdata.obj
 0002:00006ab8       ??_C@_17MBGCMIPB@?$AAS?$AAu?$AAn?$AA?$AA@ 1006fab8     LIBCMTD:nlsdata.obj
 0002:00006ac0       ??_C@_17KBOMKBF@?$AAM?$AAo?$AAn?$AA?$AA@ 1006fac0     LIBCMTD:nlsdata.obj
 0002:00006ac8       ??_C@_17BMKGEGOJ@?$AAT?$AAu?$AAe?$AA?$AA@ 1006fac8     LIBCMTD:nlsdata.obj
 0002:00006ad0       ??_C@_17CJEDCEPE@?$AAW?$AAe?$AAd?$AA?$AA@ 1006fad0     LIBCMTD:nlsdata.obj
 0002:00006ad8       ??_C@_17PDPHAADD@?$AAT?$AAh?$AAu?$AA?$AA@ 1006fad8     LIBCMTD:nlsdata.obj
 0002:00006ae0       ??_C@_17HFOLPPLP@?$AAF?$AAr?$AAi?$AA?$AA@ 1006fae0     LIBCMTD:nlsdata.obj
 0002:00006ae8       ??_C@_17GGIBDPIH@?$AAS?$AAa?$AAt?$AA?$AA@ 1006fae8     LIBCMTD:nlsdata.obj
 0002:00006af0       ??_C@_1O@IHNHDHPB@?$AAS?$AAu?$AAn?$AAd?$AAa?$AAy?$AA?$AA@ 1006faf0     LIBCMTD:nlsdata.obj
 0002:00006b00       ??_C@_1O@MMNBFLIA@?$AAM?$AAo?$AAn?$AAd?$AAa?$AAy?$AA?$AA@ 1006fb00     LIBCMTD:nlsdata.obj
 0002:00006b10       ??_C@_1BA@ENFBFFEK@?$AAT?$AAu?$AAe?$AAs?$AAd?$AAa?$AAy?$AA?$AA@ 1006fb10     LIBCMTD:nlsdata.obj
 0002:00006b20       ??_C@_1BE@EBOGMDOH@?$AAW?$AAe?$AAd?$AAn?$AAe?$AAs?$AAd?$AAa?$AAy?$AA?$AA@ 1006fb20     LIBCMTD:nlsdata.obj
 0002:00006b34       ??_C@_1BC@HHMNLIHE@?$AAT?$AAh?$AAu?$AAr?$AAs?$AAd?$AAa?$AAy?$AA?$AA@ 1006fb34     LIBCMTD:nlsdata.obj
 0002:00006b48       ??_C@_1O@PDICJHAG@?$AAF?$AAr?$AAi?$AAd?$AAa?$AAy?$AA?$AA@ 1006fb48     LIBCMTD:nlsdata.obj
 0002:00006b58       ??_C@_1BC@ENMNNPAJ@?$AAS?$AAa?$AAt?$AAu?$AAr?$AAd?$AAa?$AAy?$AA?$AA@ 1006fb58     LIBCMTD:nlsdata.obj
 0002:00006b6c       ??_C@_17DKNBKCHM@?$AAJ?$AAa?$AAn?$AA?$AA@ 1006fb6c     LIBCMTD:nlsdata.obj
 0002:00006b74       ??_C@_17LMDJEKJN@?$AAF?$AAe?$AAb?$AA?$AA@ 1006fb74     LIBCMTD:nlsdata.obj
 0002:00006b7c       ??_C@_17CKNLEDEC@?$AAM?$AAa?$AAr?$AA?$AA@ 1006fb7c     LIBCMTD:nlsdata.obj
 0002:00006b84       ??_C@_17LFPOIHDD@?$AAA?$AAp?$AAr?$AA?$AA@ 1006fb84     LIBCMTD:nlsdata.obj
 0002:00006b8c       ??_C@_17PNNKMEED@?$AAM?$AAa?$AAy?$AA?$AA@ 1006fb8c     LIBCMTD:nlsdata.obj
 0002:00006b94       ??_C@_17KCJGOCPB@?$AAJ?$AAu?$AAn?$AA?$AA@ 1006fb94     LIBCMTD:nlsdata.obj
 0002:00006b9c       ??_C@_17IJPCKHK@?$AAJ?$AAu?$AAl?$AA?$AA@ 1006fb9c     LIBCMTD:nlsdata.obj
 0002:00006ba4       ??_C@_17ICPELBCN@?$AAA?$AAu?$AAg?$AA?$AA@ 1006fba4     LIBCMTD:nlsdata.obj
 0002:00006bac       ??_C@_17HCHCOKMG@?$AAS?$AAe?$AAp?$AA?$AA@ 1006fbac     LIBCMTD:nlsdata.obj
 0002:00006bb4       ??_C@_17FNLKOI@?$AAO?$AAc?$AAt?$AA?$AA@ 1006fbb4     LIBCMTD:nlsdata.obj
 0002:00006bbc       ??_C@_17BBDMLCIG@?$AAN?$AAo?$AAv?$AA?$AA@ 1006fbbc     LIBCMTD:nlsdata.obj
 0002:00006bc4       ??_C@_17EGKACKIF@?$AAD?$AAe?$AAc?$AA?$AA@ 1006fbc4     LIBCMTD:nlsdata.obj
 0002:00006bcc       ??_C@_1BA@EFMEIEBA@?$AAJ?$AAa?$AAn?$AAu?$AAa?$AAr?$AAy?$AA?$AA@ 1006fbcc     LIBCMTD:nlsdata.obj
 0002:00006bdc       ??_C@_1BC@JGDDFFAM@?$AAF?$AAe?$AAb?$AAr?$AAu?$AAa?$AAr?$AAy?$AA?$AA@ 1006fbdc     LIBCMTD:nlsdata.obj
 0002:00006bf0       ??_C@_1M@IKEENEDF@?$AAM?$AAa?$AAr?$AAc?$AAh?$AA?$AA@ 1006fbf0     LIBCMTD:nlsdata.obj
 0002:00006bfc       ??_C@_1M@GJNLMHFD@?$AAA?$AAp?$AAr?$AAi?$AAl?$AA?$AA@ 1006fbfc     LIBCMTD:nlsdata.obj
 0002:00006c08       ??_C@_19EPFLPGAP@?$AAJ?$AAu?$AAn?$AAe?$AA?$AA@ 1006fc08     LIBCMTD:nlsdata.obj
 0002:00006c14       ??_C@_19BIFMLPCD@?$AAJ?$AAu?$AAl?$AAy?$AA?$AA@ 1006fc14     LIBCMTD:nlsdata.obj
 0002:00006c20       ??_C@_1O@PAHLKOAC@?$AAA?$AAu?$AAg?$AAu?$AAs?$AAt?$AA?$AA@ 1006fc20     LIBCMTD:nlsdata.obj
 0002:00006c30       ??_C@_1BE@DKAAMBJL@?$AAS?$AAe?$AAp?$AAt?$AAe?$AAm?$AAb?$AAe?$AAr?$AA?$AA@ 1006fc30     LIBCMTD:nlsdata.obj
 0002:00006c44       ??_C@_1BA@EPANDLNG@?$AAO?$AAc?$AAt?$AAo?$AAb?$AAe?$AAr?$AA?$AA@ 1006fc44     LIBCMTD:nlsdata.obj
 0002:00006c54       ??_C@_1BC@BGLIFPF@?$AAN?$AAo?$AAv?$AAe?$AAm?$AAb?$AAe?$AAr?$AA?$AA@ 1006fc54     LIBCMTD:nlsdata.obj
 0002:00006c68       ??_C@_1BC@FEMKIFH@?$AAD?$AAe?$AAc?$AAe?$AAm?$AAb?$AAe?$AAr?$AA?$AA@ 1006fc68     LIBCMTD:nlsdata.obj
 0002:00006c7c       ??_C@_15ODEHAHHF@?$AAA?$AAM?$AA?$AA@ 1006fc7c     LIBCMTD:nlsdata.obj
 0002:00006c84       ??_C@_15CLMNNGEL@?$AAP?$AAM?$AA?$AA@ 1006fc84     LIBCMTD:nlsdata.obj
 0002:00006c8c       ??_C@_1BC@IEBCMHCM@?$AAM?$AAM?$AA?1?$AAd?$AAd?$AA?1?$AAy?$AAy?$AA?$AA@ 1006fc8c     LIBCMTD:nlsdata.obj
 0002:00006ca0       ??_C@_1CI@KNAKOEBC@?$AAd?$AAd?$AAd?$AAd?$AA?0?$AA?5?$AAM?$AAM?$AAM?$AAM?$AA?5?$AAd?$AAd?$AA?0?$AA?5?$AAy?$AAy?$AAy?$AAy?$AA?$AA@ 1006fca0     LIBCMTD:nlsdata.obj
 0002:00006cc8       ??_C@_1BC@GDGBMEMK@?$AAH?$AAH?$AA?3?$AAm?$AAm?$AA?3?$AAs?$AAs?$AA?$AA@ 1006fcc8     LIBCMTD:nlsdata.obj
 0002:00006cdc       ??_C@_1M@BMHNFIME@?$AAe?$AAn?$AA?9?$AAU?$AAS?$AA?$AA@ 1006fcdc     LIBCMTD:nlsdata.obj
 0002:00006ce8       ___lc_category             1006fce8     LIBCMTD:wsetloca.obj
 0002:00006d30       ??_C@_1O@GIFLHMA@?$AAL?$AAC?$AA_?$AAA?$AAL?$AAL?$AA?$AA@ 1006fd30     LIBCMTD:wsetloca.obj
 0002:00006d40       ??_C@_1BG@PPOMIBNJ@?$AAL?$AAC?$AA_?$AAC?$AAO?$AAL?$AAL?$AAA?$AAT?$AAE?$AA?$AA@ 1006fd40     LIBCMTD:wsetloca.obj
 0002:00006d58       ??_C@_1BC@FFJGAPJM@?$AAL?$AAC?$AA_?$AAC?$AAT?$AAY?$AAP?$AAE?$AA?$AA@ 1006fd58     LIBCMTD:wsetloca.obj
 0002:00006d6c       ??_C@_1BI@PCKFNJFB@?$AAL?$AAC?$AA_?$AAM?$AAO?$AAN?$AAE?$AAT?$AAA?$AAR?$AAY?$AA?$AA@ 1006fd6c     LIBCMTD:wsetloca.obj
 0002:00006d84       ??_C@_1BG@ENIEDKID@?$AAL?$AAC?$AA_?$AAN?$AAU?$AAM?$AAE?$AAR?$AAI?$AAC?$AA?$AA@ 1006fd84     LIBCMTD:wsetloca.obj
 0002:00006d9c       ??_C@_1BA@HAAOMIIG@?$AAL?$AAC?$AA_?$AAT?$AAI?$AAM?$AAE?$AA?$AA@ 1006fd9c     LIBCMTD:wsetloca.obj
 0002:00006e30       ??_C@_1GA@LDEGDKD@?$AA?$CI?$AA?$CC?$AAI?$AAn?$AAv?$AAa?$AAl?$AAi?$AAd?$AA?5?$AAp?$AAa?$AAr?$AAa?$AAm?$AAe?$AAt?$AAe?$AAr?$AA?5?$AAf?$AAo?$AAr?$AA?5?$AA_?$AAc?$AAo?$AAn?$AAf?$AAi?$AAg?$AAt@ 1006fe30     LIBCMTD:wsetloca.obj
 0002:00006e90       ??_C@_1GE@GBFCCMHH@?$AAf?$AA?3?$AA?2?$AAd?$AAd?$AA?2?$AAv?$AAc?$AAt?$AAo?$AAo?$AAl?$AAs?$AA?2?$AAc?$AAr?$AAt?$AA_?$AAb?$AAl?$AAd?$AA?2?$AAs?$AAe?$AAl?$AAf?$AA_?$AAx?$AA8?$AA6?$AA?2?$AAc@ 1006fe90     LIBCMTD:wsetloca.obj
 0002:00006ef4       ??_C@_1CI@FGIONOJM@?$AA_?$AAc?$AAo?$AAn?$AAf?$AAi?$AAg?$AAt?$AAh?$AAr?$AAe?$AAa?$AAd?$AAl?$AAo?$AAc?$AAa?$AAl?$AAe?$AA?$AA@ 1006fef4     LIBCMTD:wsetloca.obj
 0002:00006f1c       ??_C@_0DC@NCPJHDFJ@f?3?2dd?2vctools?2crt_bld?2self_x86?2c@ 1006ff1c     LIBCMTD:wsetloca.obj
 0002:00006f50       ??_C@_1FG@OHLFEKMC@?$AAL?$AAC?$AA_?$AAM?$AAI?$AAN?$AA?5?$AA?$DM?$AA?$DN?$AA?5?$AA_?$AAc?$AAa?$AAt?$AAe?$AAg?$AAo?$AAr?$AAy?$AA?5?$AA?$CG?$AA?$CG?$AA?5?$AA_?$AAc?$AAa?$AAt?$AAe?$AAg?$AAo?$AAr?$AAy@ 1006ff50     LIBCMTD:wsetloca.obj
 0002:00006fa8       ??_C@_1BI@KJNPAEHL@?$AA_?$AAw?$AAs?$AAe?$AAt?$AAl?$AAo?$AAc?$AAa?$AAl?$AAe?$AA?$AA@ 1006ffa8     LIBCMTD:wsetloca.obj
 0002:00006fc0       ??_C@_15NBPDDFIP@?$AA?$DN?$AA?$DL?$AA?$AA@ 1006ffc0     LIBCMTD:wsetloca.obj
 0002:00006fc8       ??_C@_13PJJBFPED@?$AA?$DL?$AA?$AA@ 1006ffc8     LIBCMTD:wsetloca.obj
 0002:00006fcc       ??_C@_1CG@DKJCBBPP@?$AA_?$AAw?$AAs?$AAe?$AAt?$AAl?$AAo?$AAc?$AAa?$AAl?$AAe?$AA_?$AAn?$AAo?$AAl?$AAo?$AAc?$AAk?$AA?$AA@ 1006ffcc     LIBCMTD:wsetloca.obj
 0002:00006ff8       ??_C@_1IA@DGCOPCLP@?$AAw?$AAc?$AAs?$AAn?$AAc?$AAp?$AAy?$AA_?$AAs?$AA?$CI?$AAl?$AAc?$AAt?$AAe?$AAm?$AAp?$AA?0?$AA?5?$AA?$CI?$AAs?$AAi?$AAz?$AAe?$AAo?$AAf?$AA?$CI?$AAl?$AAc?$AAt?$AAe?$AAm?$AAp@ 1006fff8     LIBCMTD:wsetloca.obj
 0002:00007078       ??_C@_1CI@ODOPEMNJ@?$AA_?$AAw?$AAs?$AAe?$AAt?$AAl?$AAo?$AAc?$AAa?$AAl?$AAe?$AA_?$AAs?$AAe?$AAt?$AA_?$AAc?$AAa?$AAt?$AA?$AA@ 10070078     LIBCMTD:wsetloca.obj
 0002:000070a0       ??_C@_1EM@MHOCNIAA@?$AAw?$AAc?$AAs?$AAc?$AAp?$AAy?$AA_?$AAs?$AA?$CI?$AAp?$AAc?$AAh?$AA_?$AAc?$AAa?$AAt?$AA_?$AAl?$AAo?$AAc?$AAa?$AAl?$AAe?$AA?0?$AA?5?$AAc?$AAc?$AAh?$AA?0?$AA?5?$AAl?$AAc@ 100700a0     LIBCMTD:wsetloca.obj
 0002:000070ec       ??_C@_13NMPKAAJP@?$AA?$DN?$AA?$AA@ 100700ec     LIBCMTD:wsetloca.obj
 0002:000070f0       ??_C@_1CI@LKOPFFBD@?$AA_?$AAw?$AAs?$AAe?$AAt?$AAl?$AAo?$AAc?$AAa?$AAl?$AAe?$AA_?$AAg?$AAe?$AAt?$AA_?$AAa?$AAl?$AAl?$AA?$AA@ 100700f0     LIBCMTD:wsetloca.obj
 0002:00007118       ??_C@_1DC@HMLJMODP@?$AAw?$AAc?$AAs?$AAc?$AAa?$AAt?$AA_?$AAs?$AA?$CI?$AAp?$AAc?$AAh?$AA?0?$AA?5?$AAc?$AAc?$AAh?$AA?0?$AA?5?$AAL?$AA?$CC?$AA?$DL?$AA?$CC?$AA?$CJ?$AA?$AA@ 10070118     LIBCMTD:wsetloca.obj
 0002:0000714c       ??_C@_1BM@OIIBLEFG@?$AA_?$AAe?$AAx?$AAp?$AAa?$AAn?$AAd?$AAl?$AAo?$AAc?$AAa?$AAl?$AAe?$AA?$AA@ 1007014c     LIBCMTD:wsetloca.obj
 0002:00007168       ??_C@_1BFG@FHLOBJGM@?$AAw?$AAc?$AAs?$AAn?$AAc?$AAp?$AAy?$AA_?$AAs?$AA?$CI?$AAl?$AAo?$AAc?$AAa?$AAl?$AAe?$AAN?$AAa?$AAm?$AAe?$AAO?$AAu?$AAt?$AAp?$AAu?$AAt?$AA?0?$AA?5?$AAl?$AAo?$AAc?$AAa@ 10070168     LIBCMTD:wsetloca.obj
 0002:000072c0       ??_C@_1EI@OCINLCHN@?$AAw?$AAc?$AAs?$AAc?$AAp?$AAy?$AA_?$AAs?$AA?$CI?$AAo?$AAu?$AAt?$AAp?$AAu?$AAt?$AA?0?$AA?5?$AAs?$AAi?$AAz?$AAe?$AAI?$AAn?$AAC?$AAh?$AAa?$AAr?$AAs?$AA?0?$AA?5?$AAL?$AA?$CC@ 100702c0     LIBCMTD:wsetloca.obj
 0002:00007308       ??_C@_13FHBKNHDA@?$AAC?$AA?$AA@ 10070308     LIBCMTD:wsetloca.obj
 0002:00007310       ??_C@_1MO@NNCNEOAP@?$AAw?$AAc?$AAs?$AAn?$AAc?$AAp?$AAy?$AA_?$AAs?$AA?$CI?$AAl?$AAo?$AAc?$AAa?$AAl?$AAe?$AAN?$AAa?$AAm?$AAe?$AAO?$AAu?$AAt?$AAp?$AAu?$AAt?$AA?0?$AA?5?$AAl?$AAo?$AAc?$AAa@ 10070310     LIBCMTD:wsetloca.obj
 0002:000073e0       ??_C@_1IG@MKDIEKFD@?$AAw?$AAc?$AAs?$AAn?$AAc?$AAp?$AAy?$AA_?$AAs?$AA?$CI?$AAc?$AAa?$AAc?$AAh?$AAe?$AAo?$AAu?$AAt?$AA?0?$AA?5?$AAc?$AAa?$AAc?$AAh?$AAe?$AAo?$AAu?$AAt?$AAL?$AAe?$AAn?$AA?0@ 100703e0     LIBCMTD:wsetloca.obj
 0002:00007468       ??_C@_1KK@KMIFPBBC@?$AAw?$AAc?$AAs?$AAn?$AAc?$AAp?$AAy?$AA_?$AAs?$AA?$CI?$AAl?$AAo?$AAc?$AAa?$AAl?$AAe?$AAN?$AAa?$AAm?$AAe?$AAO?$AAu?$AAt?$AAp?$AAu?$AAt?$AA?0?$AA?5?$AAl?$AAo?$AAc?$AAa@ 10070468     LIBCMTD:wsetloca.obj
 0002:00007518       ??_C@_1BEK@OJDMMIMP@?$AAw?$AAc?$AAs?$AAn?$AAc?$AAp?$AAy?$AA_?$AAs?$AA?$CI?$AA_?$AAp?$AAs?$AAe?$AAt?$AAl?$AAo?$AAc?$AA_?$AAd?$AAa?$AAt?$AAa?$AA?9?$AA?$DO?$AA_?$AAc?$AAa?$AAc?$AAh?$AAe?$AAL@ 10070518     LIBCMTD:wsetloca.obj
 0002:00007668       ??_C@_1BGG@FCLLNAOE@?$AAw?$AAc?$AAs?$AAn?$AAc?$AAp?$AAy?$AA_?$AAs?$AA?$CI?$AA_?$AAp?$AAs?$AAe?$AAt?$AAl?$AAo?$AAc?$AA_?$AAd?$AAa?$AAt?$AAa?$AA?9?$AA?$DO?$AA_?$AAc?$AAa?$AAc?$AAh?$AAe?$AAL@ 10070668     LIBCMTD:wsetloca.obj
 0002:000077d0       ??_C@_1IC@FCCDBGLL@?$AAw?$AAc?$AAs?$AAn?$AAc?$AAp?$AAy?$AA_?$AAs?$AA?$CI?$AAc?$AAa?$AAc?$AAh?$AAe?$AAi?$AAn?$AA?0?$AA?5?$AAc?$AAa?$AAc?$AAh?$AAe?$AAi?$AAn?$AAL?$AAe?$AAn?$AA?0?$AA?5?$AAe@ 100707d0     LIBCMTD:wsetloca.obj
 0002:00007858       ??_C@_1FA@HOOAAHFF@?$AAw?$AAc?$AAs?$AAc?$AAp?$AAy?$AA_?$AAs?$AA?$CI?$AAo?$AAu?$AAt?$AAp?$AAu?$AAt?$AA?0?$AA?5?$AAs?$AAi?$AAz?$AAe?$AAI?$AAn?$AAC?$AAh?$AAa?$AAr?$AAs?$AA?0?$AA?5?$AAc?$AAa@ 10070858     LIBCMTD:wsetloca.obj
 0002:000078a8       ??_C@_1BC@LEOKFFML@?$AA_?$AAw?$AAc?$AAs?$AAc?$AAa?$AAt?$AAs?$AA?$AA@ 100708a8     LIBCMTD:wsetloca.obj
 0002:000078c0       ??_C@_1BII@IONPPCCF@?$AAw?$AAc?$AAs?$AAc?$AAa?$AAt?$AA_?$AAs?$AA?$CI?$AAo?$AAu?$AAt?$AAs?$AAt?$AAr?$AA?0?$AA?5?$AAn?$AAu?$AAm?$AAb?$AAe?$AAr?$AAO?$AAf?$AAE?$AAl?$AAe?$AAm?$AAe?$AAn?$AAt@ 100708c0     LIBCMTD:wsetloca.obj
 0002:00007a48       ??_C@_1BK@GNCHCGCN@?$AA_?$AA_?$AAl?$AAc?$AA_?$AAw?$AAc?$AAs?$AAt?$AAo?$AAl?$AAc?$AA?$AA@ 10070a48     LIBCMTD:wsetloca.obj
 0002:00007a68       ??_C@_1NI@NELJHJBO@?$AAw?$AAc?$AAs?$AAn?$AAc?$AAp?$AAy?$AA_?$AAs?$AA?$CI?$AAn?$AAa?$AAm?$AAe?$AAs?$AA?9?$AA?$DO?$AAs?$AAz?$AAC?$AAo?$AAd?$AAe?$AAP?$AAa?$AAg?$AAe?$AA?0?$AA?5?$AA?$CI?$AAs?$AAi@ 10070a68     LIBCMTD:wsetloca.obj
 0002:00007b40       ??_C@_17MBJJLFDM@?$AA_?$AA?4?$AA?0?$AA?$AA@ 10070b40     LIBCMTD:wsetloca.obj
 0002:00007b48       ??_C@_1MO@PBGOIBFL@?$AAw?$AAc?$AAs?$AAn?$AAc?$AAp?$AAy?$AA_?$AAs?$AA?$CI?$AAn?$AAa?$AAm?$AAe?$AAs?$AA?9?$AA?$DO?$AAs?$AAz?$AAL?$AAa?$AAn?$AAg?$AAu?$AAa?$AAg?$AAe?$AA?0?$AA?5?$AA?$CI?$AAs?$AAi@ 10070b48     LIBCMTD:wsetloca.obj
 0002:00007c18       ??_C@_1MI@CLMFNAAJ@?$AAw?$AAc?$AAs?$AAn?$AAc?$AAp?$AAy?$AA_?$AAs?$AA?$CI?$AAn?$AAa?$AAm?$AAe?$AAs?$AA?9?$AA?$DO?$AAs?$AAz?$AAC?$AAo?$AAu?$AAn?$AAt?$AAr?$AAy?$AA?0?$AA?5?$AA?$CI?$AAs?$AAi?$AAz@ 10070c18     LIBCMTD:wsetloca.obj
 0002:00007ce0       ??_C@_1MO@NBFBMKCB@?$AAw?$AAc?$AAs?$AAn?$AAc?$AAp?$AAy?$AA_?$AAs?$AA?$CI?$AAn?$AAa?$AAm?$AAe?$AAs?$AA?9?$AA?$DO?$AAs?$AAz?$AAC?$AAo?$AAd?$AAe?$AAP?$AAa?$AAg?$AAe?$AA?0?$AA?5?$AA?$CI?$AAs?$AAi@ 10070ce0     LIBCMTD:wsetloca.obj
 0002:00007db0       ??_C@_1BK@HEBMGPEK@?$AA_?$AA_?$AAl?$AAc?$AA_?$AAl?$AAc?$AAt?$AAo?$AAw?$AAc?$AAs?$AA?$AA@ 10070db0     LIBCMTD:wsetloca.obj
 0002:00007dd0       ??_C@_1GM@FOFMGOEK@?$AAw?$AAc?$AAs?$AAc?$AAp?$AAy?$AA_?$AAs?$AA?$CI?$AAl?$AAo?$AAc?$AAa?$AAl?$AAe?$AA?0?$AA?5?$AAn?$AAu?$AAm?$AAb?$AAe?$AAr?$AAO?$AAf?$AAE?$AAl?$AAe?$AAm?$AAe?$AAn?$AAt@ 10070dd0     LIBCMTD:wsetloca.obj
 0002:00007e3c       ??_C@_13ENNFDPBH@?$AA_?$AA?$AA@ 10070e3c     LIBCMTD:wsetloca.obj
 0002:00007e40       ??_C@_13JOFGPIOO@?$AA?4?$AA?$AA@ 10070e40     LIBCMTD:wsetloca.obj
 0002:00007e44       ??_C@_1CG@HCGEAFEA@?$AA_?$AA_?$AAc?$AAo?$AAp?$AAy?$AA_?$AAl?$AAo?$AAc?$AAa?$AAl?$AAe?$AA_?$AAn?$AAa?$AAm?$AAe?$AA?$AA@ 10070e44     LIBCMTD:wsetloca.obj
 0002:00007e70       ??_C@_1GI@HBNMCKGD@?$AAw?$AAc?$AAs?$AAn?$AAc?$AAp?$AAy?$AA_?$AAs?$AA?$CI?$AAl?$AAo?$AAc?$AAa?$AAl?$AAe?$AAN?$AAa?$AAm?$AAe?$AAC?$AAo?$AAp?$AAy?$AA?0?$AA?5?$AAc?$AAc?$AAh?$AA?$CL?$AA1?$AA?0@ 10070e70     LIBCMTD:wsetloca.obj
 0002:00007ee0       ??_C@_1GA@PBJHELNC@?$AAf?$AA?3?$AA?2?$AAd?$AAd?$AA?2?$AAv?$AAc?$AAt?$AAo?$AAo?$AAl?$AAs?$AA?2?$AAc?$AAr?$AAt?$AA_?$AAb?$AAl?$AAd?$AA?2?$AAs?$AAe?$AAl?$AAf?$AA_?$AAx?$AA8?$AA6?$AA?2?$AAc@ 10070ee0     LIBCMTD:fileno.obj
 0002:00007f40       ??_C@_1BA@JGHIEKKM@?$AA_?$AAf?$AAi?$AAl?$AAe?$AAn?$AAo?$AA?$AA@ 10070f40     LIBCMTD:fileno.obj
 0002:00007f50       ??_C@_0CP@BNKDODJJ@f?3?2dd?2vctools?2crt_bld?2self_x86?2c@ 10070f50     LIBCMTD:_file.obj
 0002:00007f80       ??_C@_1FO@LPCLHKGE@?$AA?$CI?$AAf?$AAh?$AA?5?$AA?$DO?$AA?$DN?$AA?5?$AA0?$AA?5?$AA?$CG?$AA?$CG?$AA?5?$AA?$CI?$AAu?$AAn?$AAs?$AAi?$AAg?$AAn?$AAe?$AAd?$AA?$CJ?$AAf?$AAh?$AA?5?$AA?$DM?$AA?5?$AA?$CI?$AAu?$AAn?$AAs?$AAi@ 10070f80     LIBCMTD:close.obj
 0002:00007fe0       ??_C@_1FO@NNGNFGFH@?$AAf?$AA?3?$AA?2?$AAd?$AAd?$AA?2?$AAv?$AAc?$AAt?$AAo?$AAo?$AAl?$AAs?$AA?2?$AAc?$AAr?$AAt?$AA_?$AAb?$AAl?$AAd?$AA?2?$AAs?$AAe?$AAl?$AAf?$AA_?$AAx?$AA8?$AA6?$AA?2?$AAc@ 10070fe0     LIBCMTD:close.obj
 0002:00008040       ??_C@_1O@EDEJGJBM@?$AA_?$AAc?$AAl?$AAo?$AAs?$AAe?$AA?$AA@ 10071040     LIBCMTD:close.obj
 0002:00008050       ??_C@_1CM@OKGMMMDH@?$AA?$CI?$AA_?$AAo?$AAs?$AAf?$AAi?$AAl?$AAe?$AA?$CI?$AAf?$AAh?$AA?$CJ?$AA?5?$AA?$CG?$AA?5?$AAF?$AAO?$AAP?$AAE?$AAN?$AA?$CJ?$AA?$AA@ 10071050     LIBCMTD:close.obj
 0002:00008080       ??_C@_1JE@ECKHFIFP@?$AA?$CI?$AA?$CC?$AAI?$AAn?$AAv?$AAa?$AAl?$AAi?$AAd?$AA?5?$AAf?$AAi?$AAl?$AAe?$AA?5?$AAd?$AAe?$AAs?$AAc?$AAr?$AAi?$AAp?$AAt?$AAo?$AAr?$AA?4?$AA?5?$AAF?$AAi?$AAl?$AAe?$AA?5@ 10071080     LIBCMTD:close.obj
 0002:00008114       ??_C@_1BO@KIJENGPH@?$AAs?$AAt?$AAr?$AAe?$AAa?$AAm?$AA?5?$AA?$CB?$AA?$DN?$AA?5?$AAN?$AAU?$AAL?$AAL?$AA?$AA@ 10071114     LIBCMTD:_freebuf.obj
 0002:00008138       ??_C@_1GE@MIMBMOF@?$AAf?$AA?3?$AA?2?$AAd?$AAd?$AA?2?$AAv?$AAc?$AAt?$AAo?$AAo?$AAl?$AAs?$AA?2?$AAc?$AAr?$AAt?$AA_?$AAb?$AAl?$AAd?$AA?2?$AAs?$AAe?$AAl?$AAf?$AA_?$AAx?$AA8?$AA6?$AA?2?$AAc@ 10071138     LIBCMTD:_freebuf.obj
 0002:0000819c       ??_C@_0DA@NLPACBPK@f?3?2dd?2vctools?2crt_bld?2self_x86?2c@ 1007119c     LIBCMTD:stream.obj
 0002:000081ec       ??_C@_1CC@JBMDNKJP@?$AAf?$AAi?$AAl?$AAe?$AAn?$AAa?$AAm?$AAe?$AA?5?$AA?$CB?$AA?$DN?$AA?5?$AAN?$AAU?$AAL?$AAL?$AA?$AA@ 100711ec     LIBCMTD:_open.obj
 0002:00008210       ??_C@_1FO@POGAHKND@?$AAf?$AA?3?$AA?2?$AAd?$AAd?$AA?2?$AAv?$AAc?$AAt?$AAo?$AAo?$AAl?$AAs?$AA?2?$AAc?$AAr?$AAt?$AA_?$AAb?$AAl?$AAd?$AA?2?$AAs?$AAe?$AAl?$AAf?$AA_?$AAx?$AA8?$AA6?$AA?2?$AAc@ 10071210     LIBCMTD:_open.obj
 0002:00008270       ??_C@_1BK@HGLMNMEC@?$AAm?$AAo?$AAd?$AAe?$AA?5?$AA?$CB?$AA?$DN?$AA?5?$AAN?$AAU?$AAL?$AAL?$AA?$AA@ 10071270     LIBCMTD:_open.obj
 0002:0000828c       ??_C@_1BI@MFCLPIBM@?$AAs?$AAt?$AAr?$AA?5?$AA?$CB?$AA?$DN?$AA?5?$AAN?$AAU?$AAL?$AAL?$AA?$AA@ 1007128c     LIBCMTD:_open.obj
 0002:000082a4       ??_C@_1DK@PKMJBLLN@?$AA?$CI?$AA?$CC?$AAI?$AAn?$AAv?$AAa?$AAl?$AAi?$AAd?$AA?5?$AAf?$AAi?$AAl?$AAe?$AA?5?$AAo?$AAp?$AAe?$AAn?$AA?5?$AAm?$AAo?$AAd?$AAe?$AA?$CC?$AA?0?$AA0?$AA?$CJ?$AA?$AA@ 100712a4     LIBCMTD:_open.obj
 0002:000082e0       ??_C@_1BE@DONHJJKE@?$AA_?$AAo?$AAp?$AAe?$AAn?$AAf?$AAi?$AAl?$AAe?$AA?$AA@ 100712e0     LIBCMTD:_open.obj
 0002:000082f4       ??_C@_1CI@KEDPFCAL@?$AA?$CI?$AA?$CK?$AAm?$AAo?$AAd?$AAe?$AA?5?$AA?$DN?$AA?$DN?$AA?5?$AA_?$AAT?$AA?$CI?$AA?8?$AA?2?$AA0?$AA?8?$AA?$CJ?$AA?$CJ?$AA?$AA@ 100712f4     LIBCMTD:_open.obj
 0002:00008320       ??_C@_1GC@CHFNJKFB@?$AAf?$AA?3?$AA?2?$AAd?$AAd?$AA?2?$AAv?$AAc?$AAt?$AAo?$AAo?$AAl?$AAs?$AA?2?$AAc?$AAr?$AAt?$AA_?$AAb?$AAl?$AAd?$AA?2?$AAs?$AAe?$AAl?$AAf?$AA_?$AAx?$AA8?$AA6?$AA?2?$AAc@ 10071320     LIBCMTD:_filbuf.obj
 0002:00008384       ??_C@_1BA@IIKEPOGH@?$AA_?$AAf?$AAi?$AAl?$AAb?$AAu?$AAf?$AA?$AA@ 10071384     LIBCMTD:_filbuf.obj
 0002:00008394       ??_C@_1BI@GKKCBDMD@?$AAd?$AAs?$AAt?$AA?5?$AA?$CB?$AA?$DN?$AA?5?$AAN?$AAU?$AAL?$AAL?$AA?$AA@ 10071394     LIBCMTD:memcpy_s.obj
 0002:000083b0       ??_C@_1GE@NEOPGGBM@?$AAf?$AA?3?$AA?2?$AAd?$AAd?$AA?2?$AAv?$AAc?$AAt?$AAo?$AAo?$AAl?$AAs?$AA?2?$AAc?$AAr?$AAt?$AA_?$AAb?$AAl?$AAd?$AA?2?$AAs?$AAe?$AAl?$AAf?$AA_?$AAx?$AA8?$AA6?$AA?2?$AAc@ 100713b0     LIBCMTD:memcpy_s.obj
 0002:00008414       ??_C@_1BC@GKHDJMGB@?$AAm?$AAe?$AAm?$AAc?$AAp?$AAy?$AA_?$AAs?$AA?$AA@ 10071414     LIBCMTD:memcpy_s.obj
 0002:00008428       ??_C@_1BI@DCHLDCPP@?$AAs?$AAr?$AAc?$AA?5?$AA?$CB?$AA?$DN?$AA?5?$AAN?$AAU?$AAL?$AAL?$AA?$AA@ 10071428     LIBCMTD:memcpy_s.obj
 0002:00008440       ??_C@_1CK@DDKKOLAN@?$AAs?$AAi?$AAz?$AAe?$AAI?$AAn?$AAB?$AAy?$AAt?$AAe?$AAs?$AA?5?$AA?$DO?$AA?$DN?$AA?5?$AAc?$AAo?$AAu?$AAn?$AAt?$AA?$AA@ 10071440     LIBCMTD:memcpy_s.obj
 0002:00008470       ??_C@_1FM@NGICBHLO@?$AAf?$AA?3?$AA?2?$AAd?$AAd?$AA?2?$AAv?$AAc?$AAt?$AAo?$AAo?$AAl?$AAs?$AA?2?$AAc?$AAr?$AAt?$AA_?$AAb?$AAl?$AAd?$AA?2?$AAs?$AAe?$AAl?$AAf?$AA_?$AAx?$AA8?$AA6?$AA?2?$AAc@ 10071470     LIBCMTD:read.obj
 0002:000084cc       ??_C@_1M@NHJOLLDM@?$AA_?$AAr?$AAe?$AAa?$AAd?$AA?$AA@ 100714cc     LIBCMTD:read.obj
 0002:000084d8       ??_C@_1CC@HBLPFNKH@?$AA?$CI?$AAc?$AAn?$AAt?$AA?5?$AA?$DM?$AA?$DN?$AA?5?$AAI?$AAN?$AAT?$AA_?$AAM?$AAA?$AAX?$AA?$CJ?$AA?$AA@ 100714d8     LIBCMTD:read.obj
 0002:000084fc       ??_C@_1BK@JJBHNDKJ@?$AA_?$AAr?$AAe?$AAa?$AAd?$AA_?$AAn?$AAo?$AAl?$AAo?$AAc?$AAk?$AA?$AA@ 100714fc     LIBCMTD:read.obj
 0002:00008518       ??_C@_1CG@OHLJHGGK@?$AA?$CI?$AAi?$AAn?$AAp?$AAu?$AAt?$AAb?$AAu?$AAf?$AA?5?$AA?$CB?$AA?$DN?$AA?5?$AAN?$AAU?$AAL?$AAL?$AA?$CJ?$AA?$AA@ 10071518     LIBCMTD:read.obj
 0002:00008540       ??_C@_1CC@EEOLPHGO@?$AA?$CI?$AA?$CI?$AAc?$AAn?$AAt?$AA?5?$AA?$CG?$AA?5?$AA1?$AA?$CJ?$AA?5?$AA?$DN?$AA?$DN?$AA?5?$AA0?$AA?$CJ?$AA?$AA@ 10071540     LIBCMTD:read.obj
 0002:00008564       ??_C@_0CO@CEGKNHEH@f?3?2dd?2vctools?2crt_bld?2self_x86?2c@ 10071564     LIBCMTD:read.obj
 0002:00008598       ??_C@_1FO@LGKMLCAL@?$AAf?$AA?3?$AA?2?$AAd?$AAd?$AA?2?$AAv?$AAc?$AAt?$AAo?$AAo?$AAl?$AAs?$AA?2?$AAc?$AAr?$AAt?$AA_?$AAb?$AAl?$AAd?$AA?2?$AAs?$AAe?$AAl?$AAf?$AA_?$AAx?$AA8?$AA6?$AA?2?$AAc@ 10071598     LIBCMTD:lseek.obj
 0002:000085f8       ??_C@_1O@EDOIKGHF@?$AA_?$AAl?$AAs?$AAe?$AAe?$AAk?$AA?$AA@ 100715f8     LIBCMTD:lseek.obj
 0002:00008608       ??_C@_1DM@LMLOLGJ@?$AA?$CI?$AA?$CC?$AAI?$AAn?$AAv?$AAa?$AAl?$AAi?$AAd?$AA?5?$AAf?$AAi?$AAl?$AAe?$AA?5?$AAd?$AAe?$AAs?$AAc?$AAr?$AAi?$AAp?$AAt?$AAo?$AAr?$AA?$CC?$AA?0?$AA0?$AA?$CJ?$AA?$AA@ 10071608     LIBCMTD:lseek.obj
 0002:00008648       ??_C@_1GE@MINKPNPH@?$AAf?$AA?3?$AA?2?$AAd?$AAd?$AA?2?$AAv?$AAc?$AAt?$AAo?$AAo?$AAl?$AAs?$AA?2?$AAc?$AAr?$AAt?$AA_?$AAb?$AAl?$AAd?$AA?2?$AAs?$AAe?$AAl?$AAf?$AA_?$AAx?$AA8?$AA6?$AA?2?$AAc@ 10071648     LIBCMTD:lseeki64.obj
 0002:000086ac       ??_C@_1BE@KHFBJMNM@?$AA_?$AAl?$AAs?$AAe?$AAe?$AAk?$AAi?$AA6?$AA4?$AA?$AA@ 100716ac     LIBCMTD:lseeki64.obj
 0002:000086c0       ??_C@_0DA@NBLAKPEL@f?3?2dd?2vctools?2crt_bld?2self_x86?2c@ 100716c0     LIBCMTD:ioinit.obj
 0002:000086f0       ??_C@_1FC@PFMLEHKI@?$AA?$CI?$AA?$CI?$AA_?$AAD?$AAs?$AAt?$AA?$CJ?$AA?$CJ?$AA?5?$AA?$CB?$AA?$DN?$AA?5?$AAN?$AAU?$AAL?$AAL?$AA?5?$AA?$CG?$AA?$CG?$AA?5?$AA?$CI?$AA?$CI?$AA_?$AAS?$AAi?$AAz?$AAe?$AAI?$AAn?$AAW?$AAo?$AAr@ 100716f0     LIBCMTD:wcscpy_s.obj
 0002:00008744       ??_C@_1BC@KIONAFPO@?$AAw?$AAc?$AAs?$AAc?$AAp?$AAy?$AA_?$AAs?$AA?$AA@ 10071744     LIBCMTD:wcscpy_s.obj
 0002:00008758       ??_C@_1GE@DKGHLBLP@?$AAf?$AA?3?$AA?2?$AAd?$AAd?$AA?2?$AAv?$AAc?$AAt?$AAo?$AAo?$AAl?$AAs?$AA?2?$AAc?$AAr?$AAt?$AA_?$AAb?$AAl?$AAd?$AA?2?$AAs?$AAe?$AAl?$AAf?$AA_?$AAx?$AA8?$AA6?$AA?2?$AAc@ 10071758     LIBCMTD:swprintf.obj
 0002:000087bc       ??_C@_1BE@BMIJMLDD@?$AA_?$AAs?$AAw?$AAp?$AAr?$AAi?$AAn?$AAt?$AAf?$AA?$AA@ 100717bc     LIBCMTD:swprintf.obj
 0002:000087d0       ??_C@_0DA@ELJOOIJF@f?3?2dd?2vctools?2crt_bld?2self_x86?2c@ 100717d0     LIBCMTD:winsig.obj
 0002:00008800       ??_C@_1DO@MLNEDKGB@?$AA?$CI?$AA?$CC?$AAI?$AAn?$AAv?$AAa?$AAl?$AAi?$AAd?$AA?5?$AAs?$AAi?$AAg?$AAn?$AAa?$AAl?$AA?5?$AAo?$AAr?$AA?5?$AAe?$AAr?$AAr?$AAo?$AAr?$AA?$CC?$AA?0?$AA?5?$AA0?$AA?$CJ?$AA?$AA@ 10071800     LIBCMTD:winsig.obj
 0002:00008840       ??_C@_1GA@DBECNFG@?$AAf?$AA?3?$AA?2?$AAd?$AAd?$AA?2?$AAv?$AAc?$AAt?$AAo?$AAo?$AAl?$AAs?$AA?2?$AAc?$AAr?$AAt?$AA_?$AAb?$AAl?$AAd?$AA?2?$AAs?$AAe?$AAl?$AAf?$AA_?$AAx?$AA8?$AA6?$AA?2?$AAc@ 10071840     LIBCMTD:winsig.obj
 0002:000088a0       ??_C@_1O@EJLDHPPL@?$AAs?$AAi?$AAg?$AAn?$AAa?$AAl?$AA?$AA@ 100718a0     LIBCMTD:winsig.obj
 0002:000088b0       ??_C@_1M@DMJEIKHL@?$AAr?$AAa?$AAi?$AAs?$AAe?$AA?$AA@ 100718b0     LIBCMTD:winsig.obj
 0002:000088bc       ??_C@_1BG@GOEBHBDC@?$AAU?$AAS?$AAE?$AAR?$AA3?$AA2?$AA?4?$AAD?$AAL?$AAL?$AA?$AA@ 100718bc     LIBCMTD:crtmboxw.obj
 0002:000088d4       ??_C@_0M@DLDCCGNP@MessageBoxW?$AA@ 100718d4     LIBCMTD:crtmboxw.obj
 0002:000088e0       ??_C@_0BA@HNOPNCHB@GetActiveWindow?$AA@ 100718e0     LIBCMTD:crtmboxw.obj
 0002:000088f0       ??_C@_0BD@HHGDFDBJ@GetLastActivePopup?$AA@ 100718f0     LIBCMTD:crtmboxw.obj
 0002:00008904       ??_C@_0BK@DEKFELLI@GetUserObjectInformationW?$AA@ 10071904     LIBCMTD:crtmboxw.obj
 0002:00008920       ??_C@_0BI@DFKBFLJE@GetProcessWindowStation?$AA@ 10071920     LIBCMTD:crtmboxw.obj
 0002:00008938       ??_C@_1FA@IFFFOLDJ@?$AAn?$AAR?$AAp?$AAt?$AAT?$AAy?$AAp?$AAe?$AA?5?$AA?$DO?$AA?$DN?$AA?5?$AA0?$AA?5?$AA?$CG?$AA?$CG?$AA?5?$AAn?$AAR?$AAp?$AAt?$AAT?$AAy?$AAp?$AAe?$AA?5?$AA?$DM?$AA?5?$AA_?$AAC?$AAR?$AAT@ 10071938     LIBCMTD:dbgrptt.obj
 0002:00008988       ??_C@_1GC@FIGJJMEN@?$AAf?$AA?3?$AA?2?$AAd?$AAd?$AA?2?$AAv?$AAc?$AAt?$AAo?$AAo?$AAl?$AAs?$AA?2?$AAc?$AAr?$AAt?$AA_?$AAb?$AAl?$AAd?$AA?2?$AAs?$AAe?$AAl?$AAf?$AA_?$AAx?$AA8?$AA6?$AA?2?$AAc@ 10071988     LIBCMTD:dbgrptt.obj
 0002:000089ec       ??_C@_1CE@FIHIECNJ@?$AA_?$AAC?$AAr?$AAt?$AAS?$AAe?$AAt?$AAR?$AAe?$AAp?$AAo?$AAr?$AAt?$AAM?$AAo?$AAd?$AAe?$AA?$AA@ 100719ec     LIBCMTD:dbgrptt.obj
 0002:00008a10       ??_C@_1NK@LOFHIHFC@?$AAf?$AAM?$AAo?$AAd?$AAe?$AA?5?$AA?$DN?$AA?$DN?$AA?5?$AA_?$AAC?$AAR?$AAT?$AAD?$AAB?$AAG?$AA_?$AAR?$AAE?$AAP?$AAO?$AAR?$AAT?$AA_?$AAM?$AAO?$AAD?$AAE?$AA?5?$AA?$HM?$AA?$HM?$AA?5@ 10071a10     LIBCMTD:dbgrptt.obj
 0002:00008aec       ??_C@_1CE@IKKEDCME@?$AA_?$AAC?$AAr?$AAt?$AAS?$AAe?$AAt?$AAR?$AAe?$AAp?$AAo?$AAr?$AAt?$AAF?$AAi?$AAl?$AAe?$AA?$AA@ 10071aec     LIBCMTD:dbgrptt.obj
 0002:00008b10       ??_C@_1CA@KHJHLKA@?$AA_?$AAV?$AAC?$AAr?$AAt?$AAD?$AAb?$AAg?$AAR?$AAe?$AAp?$AAo?$AAr?$AAt?$AAA?$AA?$AA@ 10071b10     LIBCMTD:dbgrptt.obj
 0002:00008b30       ??_C@_1FA@JPHJBHEM@?$AA_?$AAi?$AAt?$AAo?$AAa?$AA_?$AAs?$AA?$CI?$AAn?$AAL?$AAi?$AAn?$AAe?$AA?0?$AA?5?$AAs?$AAz?$AAL?$AAi?$AAn?$AAe?$AAM?$AAe?$AAs?$AAs?$AAa?$AAg?$AAe?$AA?0?$AA?5?$AA4?$AA0@ 10071b30     LIBCMTD:dbgrptt.obj
 0002:00008b80       ??_C@_0CG@BNGLOCEO@Second?5Chance?5Assertion?5Failed?3?5@ 10071b80     LIBCMTD:dbgrptt.obj
 0002:00008ba8       ??_C@_0P@DFJNDPOP@?$DMfile?5unknown?$DO?$AA@ 10071ba8     LIBCMTD:dbgrptt.obj
 0002:00008bb8       ??_C@_07BHGABMGB@?0?5Line?5?$AA@ 10071bb8     LIBCMTD:dbgrptt.obj
 0002:00008bc0       ??_C@_01EEMJAFIK@?6?$AA@   10071bc0     LIBCMTD:dbgrptt.obj
 0002:00008bc8       ??_C@_1JI@GAALPGBM@?$AAs?$AAt?$AAr?$AAc?$AAp?$AAy?$AA_?$AAs?$AA?$CI?$AAs?$AAz?$AAU?$AAs?$AAe?$AAr?$AAM?$AAe?$AAs?$AAs?$AAa?$AAg?$AAe?$AA?0?$AA?5?$AA4?$AA0?$AA9?$AA6?$AA?0?$AA?5?$AA?$CC?$AA_@ 10071bc8     LIBCMTD:dbgrptt.obj
 0002:00008c60       ??_C@_0CL@EACFGMNB@_CrtDbgReport?3?5String?5too?5long?5o@ 10071c60     LIBCMTD:dbgrptt.obj
 0002:00008c90       ??_C@_1KK@GIGAEDMO@?$AAs?$AAt?$AAr?$AAc?$AAp?$AAy?$AA_?$AAs?$AA?$CI?$AAs?$AAz?$AAL?$AAi?$AAn?$AAe?$AAM?$AAe?$AAs?$AAs?$AAa?$AAg?$AAe?$AA?0?$AA?5?$AA4?$AA0?$AA9?$AA6?$AA?0?$AA?5?$AAs?$AAz@ 10071c90     LIBCMTD:dbgrptt.obj
 0002:00008d3c       ??_C@_0BD@CAENFOHP@Assertion?5failed?3?5?$AA@ 10071d3c     LIBCMTD:dbgrptt.obj
 0002:00008d50       ??_C@_0BC@LAIDCHCH@Assertion?5failed?$CB?$AA@ 10071d50     LIBCMTD:dbgrptt.obj
 0002:00008d68       ??_C@_1FK@NPGBPOFO@?$AAs?$AAt?$AAr?$AAc?$AAa?$AAt?$AA_?$AAs?$AA?$CI?$AAs?$AAz?$AAL?$AAi?$AAn?$AAe?$AAM?$AAe?$AAs?$AAs?$AAa?$AAg?$AAe?$AA?0?$AA?5?$AA4?$AA0?$AA9?$AA6?$AA?0?$AA?5?$AAs?$AAz@ 10071d68     LIBCMTD:dbgrptt.obj
 0002:00008dc8       ??_C@_1EI@CACDLAFK@?$AAs?$AAt?$AAr?$AAc?$AAa?$AAt?$AA_?$AAs?$AA?$CI?$AAs?$AAz?$AAL?$AAi?$AAn?$AAe?$AAM?$AAe?$AAs?$AAs?$AAa?$AAg?$AAe?$AA?0?$AA?5?$AA4?$AA0?$AA9?$AA6?$AA?0?$AA?5?$AA?$CC?$AA?2@ 10071dc8     LIBCMTD:dbgrptt.obj
 0002:00008e10       ??_C@_01LIIJDEN@?$AN?$AA@  10071e10     LIBCMTD:dbgrptt.obj
 0002:00008e18       ??_C@_1EI@LDHJEDO@?$AAs?$AAt?$AAr?$AAc?$AAa?$AAt?$AA_?$AAs?$AA?$CI?$AAs?$AAz?$AAL?$AAi?$AAn?$AAe?$AAM?$AAe?$AAs?$AAs?$AAa?$AAg?$AAe?$AA?0?$AA?5?$AA4?$AA0?$AA9?$AA6?$AA?0?$AA?5?$AA?$CC?$AA?2@ 10071e18     LIBCMTD:dbgrptt.obj
 0002:00008e60       ??_C@_0M@IPILFDFN@?$CFs?$CI?$CFd?$CJ?5?3?5?$CFs?$AA@ 10071e60     LIBCMTD:dbgrptt.obj
 0002:00008e70       ??_C@_1JG@CPKCIOEE@?$AAs?$AAt?$AAr?$AAc?$AAp?$AAy?$AA_?$AAs?$AA?$CI?$AAs?$AAz?$AAO?$AAu?$AAt?$AAM?$AAe?$AAs?$AAs?$AAa?$AAg?$AAe?$AA?0?$AA?5?$AA4?$AA0?$AA9?$AA6?$AA?0?$AA?5?$AA?$CC?$AA_?$AAC@ 10071e70     LIBCMTD:dbgrptt.obj
 0002:00008f08       ??_C@_1FI@IBIOIHEG@?$AAs?$AAt?$AAr?$AAc?$AAp?$AAy?$AA_?$AAs?$AA?$CI?$AAs?$AAz?$AAO?$AAu?$AAt?$AAM?$AAe?$AAs?$AAs?$AAa?$AAg?$AAe?$AA?0?$AA?5?$AA4?$AA0?$AA9?$AA6?$AA?0?$AA?5?$AAs?$AAz?$AAL@ 10071f08     LIBCMTD:dbgrptt.obj
 0002:00008f60       ??_C@_1IM@OOKIFKOH@?$AAe?$AA?5?$AA?$DN?$AA?5?$AAm?$AAb?$AAs?$AAt?$AAo?$AAw?$AAc?$AAs?$AA_?$AAs?$AA?$CI?$AA?$CG?$AAr?$AAe?$AAt?$AA?0?$AA?5?$AAs?$AAz?$AAO?$AAu?$AAt?$AAM?$AAe?$AAs?$AAs?$AAa?$AAg@ 10071f60     LIBCMTD:dbgrptt.obj
 0002:00008ff0       ??_C@_1MC@IGEECMDB@?$AAw?$AAc?$AAs?$AAc?$AAp?$AAy?$AA_?$AAs?$AA?$CI?$AAs?$AAz?$AAO?$AAu?$AAt?$AAM?$AAe?$AAs?$AAs?$AAa?$AAg?$AAe?$AA2?$AA?0?$AA?5?$AA4?$AA0?$AA9?$AA6?$AA?0?$AA?5?$AAL?$AA?$CC@ 10071ff0     LIBCMTD:dbgrptt.obj
 0002:000090b8       ??_C@_1HO@PJOFIKFE@?$AA_?$AAC?$AAr?$AAt?$AAD?$AAb?$AAg?$AAR?$AAe?$AAp?$AAo?$AAr?$AAt?$AA?3?$AA?5?$AAS?$AAt?$AAr?$AAi?$AAn?$AAg?$AA?5?$AAt?$AAo?$AAo?$AA?5?$AAl?$AAo?$AAn?$AAg?$AA?5?$AAo@ 100720b8     LIBCMTD:dbgrptt.obj
 0002:00009138       ??_C@_1CA@HPALHDOD@?$AA_?$AAV?$AAC?$AAr?$AAt?$AAD?$AAb?$AAg?$AAR?$AAe?$AAp?$AAo?$AAr?$AAt?$AAW?$AA?$AA@ 10072138     LIBCMTD:dbgrptt.obj
 0002:00009158       ??_C@_1FA@CNLLOMHI@?$AA_?$AAi?$AAt?$AAo?$AAw?$AA_?$AAs?$AA?$CI?$AAn?$AAL?$AAi?$AAn?$AAe?$AA?0?$AA?5?$AAs?$AAz?$AAL?$AAi?$AAn?$AAe?$AAM?$AAe?$AAs?$AAs?$AAa?$AAg?$AAe?$AA?0?$AA?5?$AA4?$AA0@ 10072158     LIBCMTD:dbgrptt.obj
 0002:000091a8       ??_C@_1EM@MJFLEDMB@?$AAS?$AAe?$AAc?$AAo?$AAn?$AAd?$AA?5?$AAC?$AAh?$AAa?$AAn?$AAc?$AAe?$AA?5?$AAA?$AAs?$AAs?$AAe?$AAr?$AAt?$AAi?$AAo?$AAn?$AA?5?$AAF?$AAa?$AAi?$AAl?$AAe?$AAd?$AA?3?$AA?5@ 100721a8     LIBCMTD:dbgrptt.obj
 0002:000091f4       ??_C@_1BO@OCHMLCAG@?$AA?$DM?$AAf?$AAi?$AAl?$AAe?$AA?5?$AAu?$AAn?$AAk?$AAn?$AAo?$AAw?$AAn?$AA?$DO?$AA?$AA@ 100721f4     LIBCMTD:dbgrptt.obj
 0002:00009214       ??_C@_1BA@ELMMDCFC@?$AA?0?$AA?5?$AAL?$AAi?$AAn?$AAe?$AA?5?$AA?$AA@ 10072214     LIBCMTD:dbgrptt.obj
 0002:00009224       ??_C@_13LBAGMAIH@?$AA?6?$AA?$AA@ 10072224     LIBCMTD:dbgrptt.obj
 0002:00009228       ??_C@_1JK@KHFABAEO@?$AAw?$AAc?$AAs?$AAc?$AAp?$AAy?$AA_?$AAs?$AA?$CI?$AAs?$AAz?$AAU?$AAs?$AAe?$AAr?$AAM?$AAe?$AAs?$AAs?$AAa?$AAg?$AAe?$AA?0?$AA?5?$AA4?$AA0?$AA9?$AA6?$AA?0?$AA?5?$AAL?$AA?$CC@ 10072228     LIBCMTD:dbgrptt.obj
 0002:000092c8       ??_C@_1KO@DGAHENCH@?$AAw?$AAc?$AAs?$AAc?$AAp?$AAy?$AA_?$AAs?$AA?$CI?$AAs?$AAz?$AAL?$AAi?$AAn?$AAe?$AAM?$AAe?$AAs?$AAs?$AAa?$AAg?$AAe?$AA?0?$AA?5?$AA4?$AA0?$AA9?$AA6?$AA?0?$AA?5?$AAs?$AAz@ 100722c8     LIBCMTD:dbgrptt.obj
 0002:00009378       ??_C@_1CG@FFFGGODN@?$AAA?$AAs?$AAs?$AAe?$AAr?$AAt?$AAi?$AAo?$AAn?$AA?5?$AAf?$AAa?$AAi?$AAl?$AAe?$AAd?$AA?3?$AA?5?$AA?$AA@ 10072378     LIBCMTD:dbgrptt.obj
 0002:000093a0       ??_C@_1CE@OJBNHDMO@?$AAA?$AAs?$AAs?$AAe?$AAr?$AAt?$AAi?$AAo?$AAn?$AA?5?$AAf?$AAa?$AAi?$AAl?$AAe?$AAd?$AA?$CB?$AA?$AA@ 100723a0     LIBCMTD:dbgrptt.obj
 0002:000093c8       ??_C@_1FK@HPADHBBD@?$AAw?$AAc?$AAs?$AAc?$AAa?$AAt?$AA_?$AAs?$AA?$CI?$AAs?$AAz?$AAL?$AAi?$AAn?$AAe?$AAM?$AAe?$AAs?$AAs?$AAa?$AAg?$AAe?$AA?0?$AA?5?$AA4?$AA0?$AA9?$AA6?$AA?0?$AA?5?$AAs?$AAz@ 100723c8     LIBCMTD:dbgrptt.obj
 0002:00009428       ??_C@_1EK@NMDFGHMF@?$AAw?$AAc?$AAs?$AAc?$AAa?$AAt?$AA_?$AAs?$AA?$CI?$AAs?$AAz?$AAL?$AAi?$AAn?$AAe?$AAM?$AAe?$AAs?$AAs?$AAa?$AAg?$AAe?$AA?0?$AA?5?$AA4?$AA0?$AA9?$AA6?$AA?0?$AA?5?$AAL?$AA?$CC@ 10072428     LIBCMTD:dbgrptt.obj
 0002:00009474       ??_C@_13CMNBPIDO@?$AA?$AN?$AA?$AA@ 10072474     LIBCMTD:dbgrptt.obj
 0002:00009478       ??_C@_1EK@PHCBEDKB@?$AAw?$AAc?$AAs?$AAc?$AAa?$AAt?$AA_?$AAs?$AA?$CI?$AAs?$AAz?$AAL?$AAi?$AAn?$AAe?$AAM?$AAe?$AAs?$AAs?$AAa?$AAg?$AAe?$AA?0?$AA?5?$AA4?$AA0?$AA9?$AA6?$AA?0?$AA?5?$AAL?$AA?$CC@ 10072478     LIBCMTD:dbgrptt.obj
 0002:000094c4       ??_C@_1BI@JIDBEPIG@?$AA?$CF?$AAs?$AA?$CI?$AA?$CF?$AAd?$AA?$CJ?$AA?5?$AA?3?$AA?5?$AA?$CF?$AAs?$AA?$AA@ 100724c4     LIBCMTD:dbgrptt.obj
 0002:000094e0       ??_C@_1FI@DBAIJPJE@?$AAw?$AAc?$AAs?$AAc?$AAp?$AAy?$AA_?$AAs?$AA?$CI?$AAs?$AAz?$AAO?$AAu?$AAt?$AAM?$AAe?$AAs?$AAs?$AAa?$AAg?$AAe?$AA?0?$AA?5?$AA4?$AA0?$AA9?$AA6?$AA?0?$AA?5?$AAs?$AAz?$AAL@ 100724e0     LIBCMTD:dbgrptt.obj
 0002:00009538       ??_C@_1JC@EOAPFDLN@?$AAw?$AAc?$AAs?$AAt?$AAo?$AAm?$AAb?$AAs?$AA_?$AAs?$AA?$CI?$AA?$CI?$AA?$CI?$AAv?$AAo?$AAi?$AAd?$AA?5?$AA?$CK?$AA?$CJ?$AA0?$AA?$CJ?$AA?0?$AA?5?$AAs?$AAz?$AAO?$AAu?$AAt?$AAM?$AAe?$AAs@ 10072538     LIBCMTD:dbgrptt.obj
 0002:000095d0       ??_C@_1MA@LBAMNNOB@?$AAs?$AAt?$AAr?$AAc?$AAp?$AAy?$AA_?$AAs?$AA?$CI?$AAs?$AAz?$AAO?$AAu?$AAt?$AAM?$AAe?$AAs?$AAs?$AAa?$AAg?$AAe?$AA2?$AA?0?$AA?5?$AA4?$AA0?$AA9?$AA6?$AA?0?$AA?5?$AA?$CC?$AA_@ 100725d0     LIBCMTD:dbgrptt.obj
 0002:00009690       ??_C@_0DP@GNPEPHJD@_CrtDbgReport?3?5String?5too?5long?5o@ 10072690     LIBCMTD:dbgrptt.obj
 0002:000096d0       ??_C@_1IE@CPGKIAGP@?$AAw?$AAc?$AAs?$AAt?$AAo?$AAm?$AAb?$AAs?$AA_?$AAs?$AA?$CI?$AA?$CG?$AAr?$AAe?$AAt?$AA?0?$AA?5?$AAs?$AAz?$AAa?$AAO?$AAu?$AAt?$AAM?$AAe?$AAs?$AAs?$AAa?$AAg?$AAe?$AA?0?$AA?5@ 100726d0     LIBCMTD:dbgrptt.obj
 0002:000097f0       ??_C@_0NN@NGPKDKPD@The?5value?5of?5ESP?5was?5not?5properl@ 100727f0     LIBCMTD:error.obj
 0002:000098d0       ??_C@_0BBN@GPMLNJCF@A?5cast?5to?5a?5smaller?5data?5type?5ha@ 100728d0     LIBCMTD:error.obj
 0002:000099f0       ??_C@_0BN@FFOINMNJ@Stack?5memory?5was?5corrupted?6?$AN?$AA@ 100729f0     LIBCMTD:error.obj
 0002:00009a10       ??_C@_0DG@HKJMLLLP@A?5local?5variable?5was?5used?5before@ 10072a10     LIBCMTD:error.obj
 0002:00009a48       ??_C@_0CM@NGINOKPC@Stack?5memory?5around?5_alloca?5was?5@ 10072a48     LIBCMTD:error.obj
 0002:00009a74       ??_C@_0BO@GNIAFIKK@Unknown?5Runtime?5Check?5Error?6?$AN?$AA@ 10072a74     LIBCMTD:error.obj
 0002:00009a98       ??_C@_1GM@OLMCBDMB@?$AAR?$AAu?$AAn?$AAt?$AAi?$AAm?$AAe?$AA?5?$AAC?$AAh?$AAe?$AAc?$AAk?$AA?5?$AAE?$AAr?$AAr?$AAo?$AAr?$AA?4?$AA?6?$AA?$AN?$AA?5?$AAU?$AAn?$AAa?$AAb?$AAl?$AAe?$AA?5?$AAt?$AAo@ 10072a98     LIBCMTD:error.obj
 0002:00009b08       ??_C@_1EA@NFKNIFJP@?$AAR?$AAu?$AAn?$AA?9?$AAT?$AAi?$AAm?$AAe?$AA?5?$AAC?$AAh?$AAe?$AAc?$AAk?$AA?5?$AAF?$AAa?$AAi?$AAl?$AAu?$AAr?$AAe?$AA?5?$AA?$CD?$AA?$CF?$AAd?$AA?5?$AA?9?$AA?5?$AA?$CF?$AAs?$AA?$AA@ 10072b08     LIBCMTD:error.obj
 0002:00009b48       ??_C@_0BB@PFFGGCJP@Unknown?5Filename?$AA@ 10072b48     LIBCMTD:error.obj
 0002:00009b5c       ??_C@_0BE@GNBOBNCK@Unknown?5Module?5Name?$AA@ 10072b5c     LIBCMTD:error.obj
 0002:00009b70       ??_C@_0CA@IODNCDPG@Run?9Time?5Check?5Failure?5?$CD?$CFd?5?9?5?$CFs?$AA@ 10072b70     LIBCMTD:error.obj
 0002:00009b90       ??_C@_0CG@IAFNJNEE@Stack?5corrupted?5near?5unknown?5var@ 10072b90     LIBCMTD:error.obj
 0002:00009bb8       ??_C@_1BG@OILDLIOJ@?$AAu?$AAs?$AAe?$AAr?$AA3?$AA2?$AA?4?$AAd?$AAl?$AAl?$AA?$AA@ 10072bb8     LIBCMTD:error.obj
 0002:00009bd0       ??_C@_09FOPFMPEJ@wsprintfA?$AA@ 10072bd0     LIBCMTD:error.obj
 0002:00009be0       ??_C@_0EJ@LJKNEOLN@Stack?5area?5around?5_alloca?5memory@ 10072be0     LIBCMTD:error.obj
 0002:00009c2c       ??_C@_08OMAHNMHJ@?6Data?3?5?$DM?$AA@ 10072c2c     LIBCMTD:error.obj
 0002:00009c38       ??_C@_0CK@DKGBICFE@?6Allocation?5number?5within?5this?5f@ 10072c38     LIBCMTD:error.obj
 0002:00009c64       ??_C@_07DFDJCKFN@?6Size?3?5?$AA@ 10072c64     LIBCMTD:error.obj
 0002:00009c6c       ??_C@_0N@MHFFIMFG@?6Address?3?50x?$AA@ 10072c6c     LIBCMTD:error.obj
 0002:00009c80       ??_C@_0EI@CLEPFNGI@Stack?5area?5around?5_alloca?5memory@ 10072c80     LIBCMTD:error.obj
 0002:00009cc8       ??_C@_0BC@KIBAILCI@?$CFs?$CFs?$CFp?$CFs?$CFld?$CFs?$CFd?$CFs?$AA@ 10072cc8     LIBCMTD:error.obj
 0002:00009cdc       ??_C@_02LLMPMKNF@?$DO?5?$AA@ 10072cdc     LIBCMTD:error.obj
 0002:00009ce0       ??_C@_08KJEDNCKC@?$CFs?$CFs?$CFs?$CFs?$AA@ 10072ce0     LIBCMTD:error.obj
 0002:00009cec       ??_C@_0DE@OHJBPMBP@A?5variable?5is?5being?5used?5without@ 10072cec     LIBCMTD:error.obj
 0002:00009d34       ??_C@_0BJ@HEGAHDFO@Stack?5pointer?5corruption?$AA@ 10072d34     LIBCMTD:userapi.obj
 0002:00009d50       ??_C@_0CK@FEGOIOPB@Cast?5to?5smaller?5type?5causing?5los@ 10072d50     LIBCMTD:userapi.obj
 0002:00009d7c       ??_C@_0BI@CIGMDCBH@Stack?5memory?5corruption?$AA@ 10072d7c     LIBCMTD:userapi.obj
 0002:00009d94       ??_C@_0CK@CNLNOEPB@Local?5variable?5used?5before?5initi@ 10072d94     LIBCMTD:userapi.obj
 0002:00009dc0       ??_C@_0BP@OGBCLIBO@Stack?5around?5_alloca?5corrupted?$AA@ 10072dc0     LIBCMTD:userapi.obj
 0002:00009de0       ??_C@_0NM@DNEDKLDF@The?5value?5of?5ESP?5was?5not?5properl@ 10072de0     LIBCMTD:chkesp.obj
 0002:00009ebc       ??_C@_00CNPNBAHC@?$AA@     10072ebc     LIBCMTD:chkesp.obj
 0002:00009ec0       ??_C@_0DP@CBBAPGOP@f?3?2dd?2vctools?2crt_bld?2self_x86?2c@ 10072ec0     LIBCMTD:chkesp.obj
 0002:00009f00       __pDestructExceptionObject 10072f00     LIBCMTD:frame.obj
 0002:00009f08       ??_7bad_exception@std@@6B@ 10072f08     LIBCMTD:frame.obj
 0002:00009f10       ??_C@_0O@DPKOEFFH@bad?5exception?$AA@ 10072f10     LIBCMTD:frame.obj
 0002:00009f20       ??_C@_1CK@GELGGBDK@?$AAp?$AAN?$AAo?$AAd?$AAe?$AA?9?$AA?$DO?$AA_?$AAN?$AAe?$AAx?$AAt?$AA?5?$AA?$CB?$AA?$DN?$AA?5?$AAN?$AAU?$AAL?$AAL?$AA?$AA@ 10072f20     LIBCMTD:typname.obj
 0002:00009f50       ??_C@_1HG@KNCBMCDD@?$AAf?$AA?3?$AA?2?$AAd?$AAd?$AA?2?$AAv?$AAc?$AAt?$AAo?$AAo?$AAl?$AAs?$AA?2?$AAc?$AAr?$AAt?$AA_?$AAb?$AAl?$AAd?$AA?2?$AAs?$AAe?$AAl?$AAf?$AA_?$AAx?$AA8?$AA6?$AA?2?$AAc@ 10072f50     LIBCMTD:typname.obj
 0002:00009fc8       ??_C@_1CM@OOICDMK@?$AAt?$AAy?$AAp?$AAe?$AA_?$AAi?$AAn?$AAf?$AAo?$AA?3?$AA?3?$AA_?$AAN?$AAa?$AAm?$AAe?$AA_?$AAb?$AAa?$AAs?$AAe?$AA?$AA@ 10072fc8     LIBCMTD:typname.obj
 0002:00009ff8       ??_C@_1JK@NAFNEPGC@?$AAs?$AAt?$AAr?$AAc?$AAp?$AAy?$AA_?$AAs?$AA?5?$AA?$CI?$AA?$CI?$AAc?$AAh?$AAa?$AAr?$AA?5?$AA?$CK?$AA?$CJ?$AA?$CI?$AA?$CI?$AAt?$AAy?$AAp?$AAe?$AA_?$AAi?$AAn?$AAf?$AAo?$AA?5?$AA?$CK?$AA?$CJ@ 10072ff8     LIBCMTD:typname.obj
 0002:0000a094       ??_C@_1DO@OJJLFJPE@?$AAt?$AAy?$AAp?$AAe?$AA_?$AAi?$AAn?$AAf?$AAo?$AA?3?$AA?3?$AA_?$AAN?$AAa?$AAm?$AAe?$AA_?$AAb?$AAa?$AAs?$AAe?$AA_?$AAi?$AAn?$AAt?$AAe?$AAr?$AAn?$AAa?$AAl?$AA?$AA@ 10073094     LIBCMTD:typname.obj
 0002:0000a0d8       ??_C@_1GI@EAJKJPED@?$AAs?$AAt?$AAr?$AAc?$AAp?$AAy?$AA_?$AAs?$AA?5?$AA?$CI?$AAp?$AAT?$AAm?$AAp?$AAT?$AAy?$AAp?$AAe?$AAN?$AAa?$AAm?$AAe?$AA?0?$AA?5?$AAl?$AAe?$AAn?$AA?$CL?$AA2?$AA?0?$AA?5?$AA?$CI@ 100730d8     LIBCMTD:typname.obj
 0002:0000a140       ??_C@_1BI@ICGGMGLK@?$AAb?$AAu?$AAf?$AA?5?$AA?$CB?$AA?$DN?$AA?5?$AAN?$AAU?$AAL?$AAL?$AA?$AA@ 10073140     LIBCMTD:cvt.obj
 0002:0000a158       ??_C@_1GO@NCCGBNKI@?$AAf?$AA?3?$AA?2?$AAd?$AAd?$AA?2?$AAv?$AAc?$AAt?$AAo?$AAo?$AAl?$AAs?$AA?2?$AAc?$AAr?$AAt?$AA_?$AAb?$AAl?$AAd?$AA?2?$AAs?$AAe?$AAl?$AAf?$AA_?$AAx?$AA8?$AA6?$AA?2?$AAc@ 10073158     LIBCMTD:cvt.obj
 0002:0000a1c8       ??_C@_1BE@OLBNEILL@?$AA_?$AAc?$AAf?$AAt?$AAo?$AAe?$AA2?$AA_?$AAl?$AA?$AA@ 100731c8     LIBCMTD:cvt.obj
 0002:0000a1dc       ??_C@_1CA@CBMNPEO@?$AAs?$AAi?$AAz?$AAe?$AAI?$AAn?$AAB?$AAy?$AAt?$AAe?$AAs?$AA?5?$AA?$DO?$AA?5?$AA0?$AA?$AA@ 100731dc     LIBCMTD:cvt.obj
 0002:0000a200       ??_C@_1HE@NACBNDPP@?$AAs?$AAi?$AAz?$AAe?$AAI?$AAn?$AAB?$AAy?$AAt?$AAe?$AAs?$AA?5?$AA?$DO?$AA?5?$AA?$CI?$AAs?$AAi?$AAz?$AAe?$AA_?$AAt?$AA?$CJ?$AA?$CI?$AA3?$AA?5?$AA?$CL?$AA?5?$AA?$CI?$AAn?$AAd?$AAe?$AAc@ 10073200     LIBCMTD:cvt.obj
 0002:0000a278       ??_C@_1LE@EOIFGNCJ@?$AAs?$AAt?$AAr?$AAc?$AAp?$AAy?$AA_?$AAs?$AA?$CI?$AAp?$AA?0?$AA?5?$AA?$CI?$AAs?$AAi?$AAz?$AAe?$AAI?$AAn?$AAB?$AAy?$AAt?$AAe?$AAs?$AA?5?$AA?$DN?$AA?$DN?$AA?5?$AA?$CI?$AAs?$AAi?$AAz@ 10073278     LIBCMTD:cvt.obj
 0002:0000a32c       ??_C@_05KLBDPFGC@e?$CL000?$AA@ 1007332c     LIBCMTD:cvt.obj
 0002:0000a334       ??_C@_1BC@INKAPMHI@?$AA_?$AAc?$AAf?$AAt?$AAo?$AAe?$AA_?$AAl?$AA?$AA@ 10073334     LIBCMTD:cvt.obj
 0002:0000a348       ??_C@_1BC@JOKPCIC@?$AA_?$AAc?$AAf?$AAt?$AAo?$AAa?$AA_?$AAl?$AA?$AA@ 10073348     LIBCMTD:cvt.obj
 0002:0000a360       ??_C@_1FC@IKIMAMJB@?$AAs?$AAi?$AAz?$AAe?$AAI?$AAn?$AAB?$AAy?$AAt?$AAe?$AAs?$AA?5?$AA?$DO?$AA?5?$AA?$CI?$AAs?$AAi?$AAz?$AAe?$AA_?$AAt?$AA?$CJ?$AA?$CI?$AA1?$AA?5?$AA?$CL?$AA?5?$AA4?$AA?5?$AA?$CL?$AA?5?$AAn@ 10073360     LIBCMTD:cvt.obj
 0002:0000a3b4       ??_C@_1BE@CKPDLI@?$AA_?$AAc?$AAf?$AAt?$AAo?$AAf?$AA2?$AA_?$AAl?$AA?$AA@ 100733b4     LIBCMTD:cvt.obj
 0002:0000a3c8       ??_C@_1BC@DCPPLJL@?$AA_?$AAc?$AAf?$AAt?$AAo?$AAf?$AA_?$AAl?$AA?$AA@ 100733c8     LIBCMTD:cvt.obj
 0002:0000a3dc       ??_C@_1BC@MPIFPLAF@?$AA_?$AAc?$AAf?$AAt?$AAo?$AAg?$AA_?$AAl?$AA?$AA@ 100733dc     LIBCMTD:cvt.obj
 0002:0000a3f0       __real@0000000000000000    100733f0     LIBCMTD:cvt.obj
 0002:0000a3f8       ??_C@_1GG@PHGJJHBC@?$AAf?$AA?3?$AA?2?$AAd?$AAd?$AA?2?$AAv?$AAc?$AAt?$AAo?$AAo?$AAl?$AAs?$AA?2?$AAc?$AAr?$AAt?$AA_?$AAb?$AAl?$AAd?$AA?2?$AAs?$AAe?$AAl?$AAf?$AA_?$AAx?$AA8?$AA6?$AA?2?$AAc@ 100733f8     LIBCMTD:fp8.obj
 0002:0000a460       ??_C@_1CK@JMKHCBEI@?$AA_?$AAs?$AAe?$AAt?$AAd?$AAe?$AAf?$AAa?$AAu?$AAl?$AAt?$AAp?$AAr?$AAe?$AAc?$AAi?$AAs?$AAi?$AAo?$AAn?$AA?$AA@ 10073460     LIBCMTD:fp8.obj
 0002:0000a490       ??_C@_1GE@KOCFNGPB@?$AA_?$AAc?$AAo?$AAn?$AAt?$AAr?$AAo?$AAl?$AAf?$AAp?$AA_?$AAs?$AA?$CI?$AA?$CI?$AA?$CI?$AAv?$AAo?$AAi?$AAd?$AA?5?$AA?$CK?$AA?$CJ?$AA0?$AA?$CJ?$AA?0?$AA?5?$AA0?$AAx?$AA0?$AA0?$AA0?$AA1@ 10073490     LIBCMTD:fp8.obj
 0002:0000a4f8       __XcptActTab               100734f8     LIBCMTD:winxfltr.obj
 0002:0000a588       __XcptActTabCount          10073588     LIBCMTD:winxfltr.obj
 0002:0000a58c       __XcptActTabSize           1007358c     LIBCMTD:winxfltr.obj
 0002:0000a590       __First_FPE_Indx           10073590     LIBCMTD:winxfltr.obj
 0002:0000a594       __Num_FPE                  10073594     LIBCMTD:winxfltr.obj
 0002:0000a598       ??_C@_1BC@DENNNKIM@?$AA_?$AAc?$AAr?$AAt?$AAh?$AAe?$AAa?$AAp?$AA?$AA@ 10073598     LIBCMTD:heapinit.obj
 0002:0000a5b0       ??_C@_1GE@JDDMFOID@?$AAf?$AA?3?$AA?2?$AAd?$AAd?$AA?2?$AAv?$AAc?$AAt?$AAo?$AAo?$AAl?$AAs?$AA?2?$AAc?$AAr?$AAt?$AA_?$AAb?$AAl?$AAd?$AA?2?$AAs?$AAe?$AAl?$AAf?$AA_?$AAx?$AA8?$AA6?$AA?2?$AAc@ 100735b0     LIBCMTD:heapinit.obj
 0002:0000a614       ??_C@_0DB@OEPBJOLC@f?3?2dd?2vctools?2crt_bld?2self_x86?2c@ 10073614     LIBCMTD:stdargv.obj
 0002:0000a648       ??_C@_0DB@BMEBJJKP@f?3?2dd?2vctools?2crt_bld?2self_x86?2c@ 10073648     LIBCMTD:stdenvp.obj
 0002:0000a680       ??_C@_1GC@DGBFLDBN@?$AAf?$AA?3?$AA?2?$AAd?$AAd?$AA?2?$AAv?$AAc?$AAt?$AAo?$AAo?$AAl?$AAs?$AA?2?$AAc?$AAr?$AAt?$AA_?$AAb?$AAl?$AAd?$AA?2?$AAs?$AAe?$AAl?$AAf?$AA_?$AAx?$AA8?$AA6?$AA?2?$AAc@ 10073680     LIBCMTD:stdenvp.obj
 0002:0000a6e4       ??_C@_1BC@GHMCNHHL@?$AA_?$AAs?$AAe?$AAt?$AAe?$AAn?$AAv?$AAp?$AA?$AA@ 100736e4     LIBCMTD:stdenvp.obj
 0002:0000a6f8       ??_C@_1DE@MMOGFGHF@?$AAs?$AAt?$AAr?$AAc?$AAp?$AAy?$AA_?$AAs?$AA?$CI?$AA?$CK?$AAe?$AAn?$AAv?$AA?0?$AA?5?$AAc?$AAc?$AAh?$AAa?$AAr?$AAs?$AA?0?$AA?5?$AAp?$AA?$CJ?$AA?$AA@ 100736f8     LIBCMTD:stdenvp.obj
 0002:0000a72c       ??_C@_0CP@PPLBCJDN@f?3?2dd?2vctools?2crt_bld?2self_x86?2c@ 1007372c     LIBCMTD:a_env.obj
 0002:0000a760       ??_C@_1GC@GNCCMPNN@?$AAf?$AA?3?$AA?2?$AAd?$AAd?$AA?2?$AAv?$AAc?$AAt?$AAo?$AAo?$AAl?$AAs?$AA?2?$AAc?$AAr?$AAt?$AA_?$AAb?$AAl?$AAd?$AA?2?$AAs?$AAe?$AAl?$AAf?$AA_?$AAx?$AA8?$AA6?$AA?2?$AAc@ 10073760     LIBCMTD:_flsbuf.obj
 0002:0000a7c8       ??_C@_1HO@MLMGPAFH@?$AA?$CI?$AA?$CC?$AAi?$AAn?$AAc?$AAo?$AAn?$AAs?$AAi?$AAs?$AAt?$AAe?$AAn?$AAt?$AA?5?$AAI?$AAO?$AAB?$AA?5?$AAf?$AAi?$AAe?$AAl?$AAd?$AAs?$AA?$CC?$AA?0?$AA?5?$AAs?$AAt?$AAr?$AAe@ 100737c8     LIBCMTD:_flsbuf.obj
 0002:0000a848       ??_C@_06OJHGLDPL@?$CInull?$CJ?$AA@ 10073848     LIBCMTD:output.obj
 0002:0000a850       ??_C@_1O@CEDCILHN@?$AA?$CI?$AAn?$AAu?$AAl?$AAl?$AA?$CJ?$AA?$AA@ 10073850     LIBCMTD:output.obj
 0002:0000a860       ___lookuptable             10073860     LIBCMTD:output.obj
 0002:0000a8c0       ??_C@_1GA@HHFOFBLN@?$AAf?$AA?3?$AA?2?$AAd?$AAd?$AA?2?$AAv?$AAc?$AAt?$AAo?$AAo?$AAl?$AAs?$AA?2?$AAc?$AAr?$AAt?$AA_?$AAb?$AAl?$AAd?$AA?2?$AAs?$AAe?$AAl?$AAf?$AA_?$AAx?$AA8?$AA6?$AA?2?$AAc@ 100738c0     LIBCMTD:output.obj
 0002:0000a920       ??_C@_1BE@IONLIDNC@?$AA_?$AAo?$AAu?$AAt?$AAp?$AAu?$AAt?$AA_?$AAl?$AA?$AA@ 10073920     LIBCMTD:output.obj
 0002:0000a938       ??_C@_1BAA@ODEGEDCK@?$AA?$CI?$AA?5?$AA?$CI?$AA_?$AAS?$AAt?$AAr?$AAe?$AAa?$AAm?$AA?9?$AA?$DO?$AA_?$AAf?$AAl?$AAa?$AAg?$AA?5?$AA?$CG?$AA?5?$AA_?$AAI?$AAO?$AAS?$AAT?$AAR?$AAG?$AA?$CJ?$AA?5?$AA?$HM?$AA?$HM?$AA?5@ 10073938     LIBCMTD:output.obj
 0002:0000aa38       ??_C@_1CC@IFFHEMNF@?$AA?$CI?$AAc?$AAh?$AA?5?$AA?$CB?$AA?$DN?$AA?5?$AA_?$AAT?$AA?$CI?$AA?8?$AA?2?$AA0?$AA?8?$AA?$CJ?$AA?$CJ?$AA?$AA@ 10073a38     LIBCMTD:output.obj
 0002:0000aa60       ??_C@_1EK@PNGFDECN@?$AA?$CI?$AA?$CC?$AA?8?$AAn?$AA?8?$AA?5?$AAf?$AAo?$AAr?$AAm?$AAa?$AAt?$AA?5?$AAs?$AAp?$AAe?$AAc?$AAi?$AAf?$AAi?$AAe?$AAr?$AA?5?$AAd?$AAi?$AAs?$AAa?$AAb?$AAl?$AAe?$AAd?$AA?$CC@ 10073a60     LIBCMTD:output.obj
 0002:0000aaac       ??_C@_0DA@NFBEBPEE@f?3?2dd?2vctools?2crt_bld?2self_x86?2c@ 10073aac     LIBCMTD:output.obj
 0002:0000aadc       ??_C@_1BI@IGILPKD@?$AA_?$AAv?$AAs?$AAp?$AAr?$AAi?$AAn?$AAt?$AAf?$AA_?$AAl?$AA?$AA@ 10073adc     LIBCMTD:vsprintf.obj
 0002:0000aaf4       ??_C@_1CE@HMKDJHB@?$AA_?$AAv?$AAs?$AAc?$AAp?$AAr?$AAi?$AAn?$AAt?$AAf?$AA_?$AAh?$AAe?$AAl?$AAp?$AAe?$AAr?$AA?$AA@ 10073af4     LIBCMTD:vsprintf.obj
 0002:0000ab18       ??_C@_1CE@PCFPEIFI@?$AA_?$AAv?$AAs?$AAn?$AAp?$AAr?$AAi?$AAn?$AAt?$AAf?$AA_?$AAh?$AAe?$AAl?$AAp?$AAe?$AAr?$AA?$AA@ 10073b18     LIBCMTD:vsnprnc.obj
 0002:0000ab3c       ??_C@_1BO@MLMCMBKN@?$AAf?$AAo?$AAr?$AAm?$AAa?$AAt?$AA?5?$AA?$CB?$AA?$DN?$AA?5?$AAN?$AAU?$AAL?$AAL?$AA?$AA@ 10073b3c     LIBCMTD:vsnprnc.obj
 0002:0000ab5c       ??_C@_1BM@BLJALHEF@?$AA_?$AAv?$AAs?$AAp?$AAr?$AAi?$AAn?$AAt?$AAf?$AA_?$AAs?$AA_?$AAl?$AA?$AA@ 10073b5c     LIBCMTD:vsnprnc.obj
 0002:0000ab78       ??_C@_1EE@OKCKIGFK@?$AAs?$AAt?$AAr?$AAi?$AAn?$AAg?$AA?5?$AA?$CB?$AA?$DN?$AA?5?$AAN?$AAU?$AAL?$AAL?$AA?5?$AA?$CG?$AA?$CG?$AA?5?$AAs?$AAi?$AAz?$AAe?$AAI?$AAn?$AAB?$AAy?$AAt?$AAe?$AAs?$AA?5?$AA?$DO?$AA?5@ 10073b78     LIBCMTD:vsnprnc.obj
 0002:0000abbc       ??_C@_1DA@HPBFKMEB@?$AA?$CI?$AA?$CC?$AAB?$AAu?$AAf?$AAf?$AAe?$AAr?$AA?5?$AAt?$AAo?$AAo?$AA?5?$AAs?$AAm?$AAa?$AAl?$AAl?$AA?$CC?$AA?0?$AA?5?$AA0?$AA?$CJ?$AA?$AA@ 10073bbc     LIBCMTD:vsnprnc.obj
 0002:0000abec       ??_C@_1BO@MMPELNIM@?$AA_?$AAv?$AAs?$AAn?$AAp?$AAr?$AAi?$AAn?$AAt?$AAf?$AA_?$AAs?$AA_?$AAl?$AA?$AA@ 10073bec     LIBCMTD:vsnprnc.obj
 0002:0000ac10       ??_C@_1GI@NOKGIAGA@?$AAf?$AA?3?$AA?2?$AAd?$AAd?$AA?2?$AAv?$AAc?$AAt?$AAo?$AAo?$AAl?$AAs?$AA?2?$AAc?$AAr?$AAt?$AA_?$AAb?$AAl?$AAd?$AA?2?$AAs?$AAe?$AAl?$AAf?$AA_?$AAx?$AA8?$AA6?$AA?2?$AAc@ 10073c10     LIBCMTD:wcscat_s.obj
 0002:0000ac78       ??_C@_1BC@PLIEPKPJ@?$AAw?$AAc?$AAs?$AAc?$AAa?$AAt?$AA_?$AAs?$AA?$AA@ 10073c78     LIBCMTD:wcscat_s.obj
 0002:0000ac90       ??_C@_1GK@PAJJBKJF@?$AAf?$AA?3?$AA?2?$AAd?$AAd?$AA?2?$AAv?$AAc?$AAt?$AAo?$AAo?$AAl?$AAs?$AA?2?$AAc?$AAr?$AAt?$AA_?$AAb?$AAl?$AAd?$AA?2?$AAs?$AAe?$AAl?$AAf?$AA_?$AAx?$AA8?$AA6?$AA?2?$AAc@ 10073c90     LIBCMTD:wcsncpy_s.obj
 0002:0000acfc       ??_C@_1BE@PMMBFFCC@?$AAw?$AAc?$AAs?$AAn?$AAc?$AAp?$AAy?$AA_?$AAs?$AA?$AA@ 10073cfc     LIBCMTD:wcsncpy_s.obj
 0002:0000ad10       ??_C@_1DE@BCNCAIK@?$AA?$CI?$AA?$CC?$AAI?$AAn?$AAv?$AAa?$AAl?$AAi?$AAd?$AA?5?$AAe?$AAr?$AAr?$AAo?$AAr?$AA_?$AAm?$AAo?$AAd?$AAe?$AA?$CC?$AA?0?$AA?5?$AA0?$AA?$CJ?$AA?$AA@ 10073d10     LIBCMTD:errmode.obj
 0002:0000ad48       ??_C@_1GC@FGMGFCNB@?$AAf?$AA?3?$AA?2?$AAd?$AAd?$AA?2?$AAv?$AAc?$AAt?$AAo?$AAo?$AAl?$AAs?$AA?2?$AAc?$AAr?$AAt?$AA_?$AAb?$AAl?$AAd?$AA?2?$AAs?$AAe?$AAl?$AAf?$AA_?$AAx?$AA8?$AA6?$AA?2?$AAc@ 10073d48     LIBCMTD:errmode.obj
 0002:0000adac       ??_C@_1CA@LFDHAMEM@?$AA_?$AAs?$AAe?$AAt?$AA_?$AAe?$AAr?$AAr?$AAo?$AAr?$AA_?$AAm?$AAo?$AAd?$AAe?$AA?$AA@ 10073dac     LIBCMTD:errmode.obj
 0002:0000adcc       ??_C@_1BE@NDMJHJJG@?$AAs?$AAt?$AAr?$AAn?$AAc?$AAp?$AAy?$AA_?$AAs?$AA?$AA@ 10073dcc     LIBCMTD:strncpy_s.obj
 0002:0000ade0       ??_C@_1CI@JELMFMDH@?$AAc?$AA?5?$AA?$DO?$AA?$DN?$AA?5?$AA?9?$AA1?$AA?5?$AA?$CG?$AA?$CG?$AA?5?$AAc?$AA?5?$AA?$DM?$AA?$DN?$AA?5?$AA2?$AA5?$AA5?$AA?$AA@ 10073de0     LIBCMTD:isctype.obj
 0002:0000ae08       ??_C@_1GC@CHGJNMHG@?$AAf?$AA?3?$AA?2?$AAd?$AAd?$AA?2?$AAv?$AAc?$AAt?$AAo?$AAo?$AAl?$AAs?$AA?2?$AAc?$AAr?$AAt?$AA_?$AAb?$AAl?$AAd?$AA?2?$AAs?$AAe?$AAl?$AAf?$AA_?$AAx?$AA8?$AA6?$AA?2?$AAc@ 10073e08     LIBCMTD:isctype.obj
 0002:0000ae6c       ??_C@_1BO@KFIJIAEA@?$AAp?$AAB?$AAl?$AAo?$AAc?$AAk?$AA?5?$AA?$CB?$AA?$DN?$AA?5?$AAN?$AAU?$AAL?$AAL?$AA?$AA@ 10073e6c     LIBCMTD:expand.obj
 0002:0000ae90       ??_C@_1GA@EBHFLDNH@?$AAf?$AA?3?$AA?2?$AAd?$AAd?$AA?2?$AAv?$AAc?$AAt?$AAo?$AAo?$AAl?$AAs?$AA?2?$AAc?$AAr?$AAt?$AA_?$AAb?$AAl?$AAd?$AA?2?$AAs?$AAe?$AAl?$AAf?$AA_?$AAx?$AA8?$AA6?$AA?2?$AAc@ 10073e90     LIBCMTD:expand.obj
 0002:0000aef0       ??_C@_1BK@JMCGJOCC@?$AA_?$AAe?$AAx?$AAp?$AAa?$AAn?$AAd?$AA_?$AAb?$AAa?$AAs?$AAe?$AA?$AA@ 10073ef0     LIBCMTD:expand.obj
 0002:0000af18       ??_C@_03KHICJKCI@?4?4?4?$AA@ 10073f18     LIBCMTD:dbgrpt.obj
 0002:0000af1c       ??_C@_1CG@GNMJDMIO@?$AA_?$AAC?$AAr?$AAt?$AAS?$AAe?$AAt?$AAR?$AAe?$AAp?$AAo?$AAr?$AAt?$AAH?$AAo?$AAo?$AAk?$AA2?$AA?$AA@ 10073f1c     LIBCMTD:dbgrpt.obj
 0002:0000af44       ??_C@_1CI@IDOKFLAJ@?$AA_?$AA_?$AAc?$AAr?$AAt?$AAM?$AAe?$AAs?$AAs?$AAa?$AAg?$AAe?$AAW?$AAi?$AAn?$AAd?$AAo?$AAw?$AAA?$AA?$AA@ 10073f44     LIBCMTD:dbgrpt.obj
 0002:0000af70       ??_C@_1GG@DLDHOIGE@?$AAs?$AAt?$AAr?$AAc?$AAp?$AAy?$AA_?$AAs?$AA?$CI?$AAs?$AAz?$AAE?$AAx?$AAe?$AAN?$AAa?$AAm?$AAe?$AA?0?$AA?5?$AA2?$AA6?$AA0?$AA?0?$AA?5?$AA?$CC?$AA?$DM?$AAp?$AAr?$AAo?$AAg?$AAr@ 10073f70     LIBCMTD:dbgrpt.obj
 0002:0000afd8       ??_C@_0BH@DNAGHKFM@?$DMprogram?5name?5unknown?$DO?$AA@ 10073fd8     LIBCMTD:dbgrpt.obj
 0002:0000aff0       ??_C@_1LG@BEHAHJLI@?$AAD?$AAe?$AAb?$AAu?$AAg?$AA?5?$AA?$CF?$AAs?$AA?$CB?$AA?6?$AA?6?$AAP?$AAr?$AAo?$AAg?$AAr?$AAa?$AAm?$AA?3?$AA?5?$AA?$CF?$AAh?$AAs?$AA?$CF?$AAs?$AA?$CF?$AAs?$AA?$CF?$AAh?$AAs?$AA?$CF?$AAs@ 10073ff0     LIBCMTD:dbgrpt.obj
 0002:0000b0a8       ??_C@_1CK@GFDNDKK@?$AA_?$AAR?$AAa?$AAn?$AAd?$AAo?$AAm?$AAV?$AAa?$AAl?$AAu?$AAe?$AA?5?$AA?$CB?$AA?$DN?$AA?5?$AAN?$AAU?$AAL?$AAL?$AA?$AA@ 100740a8     LIBCMTD:rand_s.obj
 0002:0000b0d8       ??_C@_1GA@HBGBBKCD@?$AAf?$AA?3?$AA?2?$AAd?$AAd?$AA?2?$AAv?$AAc?$AAt?$AAo?$AAo?$AAl?$AAs?$AA?2?$AAc?$AAr?$AAt?$AA_?$AAb?$AAl?$AAd?$AA?2?$AAs?$AAe?$AAl?$AAf?$AA_?$AAx?$AA8?$AA6?$AA?2?$AAc@ 100740d8     LIBCMTD:rand_s.obj
 0002:0000b138       ??_C@_1O@IJGPPOGF@?$AAr?$AAa?$AAn?$AAd?$AA_?$AAs?$AA?$AA@ 10074138     LIBCMTD:rand_s.obj
 0002:0000b148       ??_C@_1BK@GAEMIDIL@?$AAA?$AAD?$AAV?$AAA?$AAP?$AAI?$AA3?$AA2?$AA?4?$AAD?$AAL?$AAL?$AA?$AA@ 10074148     LIBCMTD:rand_s.obj
 0002:0000b168       ??_C@_1GA@EBEDGGGB@?$AA?$CI?$AA?$CC?$AAr?$AAa?$AAn?$AAd?$AA_?$AAs?$AA?5?$AAi?$AAs?$AA?5?$AAn?$AAo?$AAt?$AA?5?$AAa?$AAv?$AAa?$AAi?$AAl?$AAa?$AAb?$AAl?$AAe?$AA?5?$AAo?$AAn?$AA?5?$AAt?$AAh?$AAi@ 10074168     LIBCMTD:rand_s.obj
 0002:0000b1c8       ??_C@_0BC@JEAENNKH@SystemFunction036?$AA@ 100741c8     LIBCMTD:rand_s.obj
 0002:0000b1e0       ??_C@_1GC@DGAFOCMO@?$AAf?$AA?3?$AA?2?$AAd?$AAd?$AA?2?$AAv?$AAc?$AAt?$AAo?$AAo?$AAl?$AAs?$AA?2?$AAc?$AAr?$AAt?$AA_?$AAb?$AAl?$AAd?$AA?2?$AAs?$AAe?$AAl?$AAf?$AA_?$AAx?$AA8?$AA6?$AA?2?$AAc@ 100741e0     LIBCMTD:_sftbuf.obj
 0002:0000b244       ??_C@_0DB@OLNNDFNH@f?3?2dd?2vctools?2crt_bld?2self_x86?2c@ 10074244     LIBCMTD:_sftbuf.obj
 0002:0000b278       ??_C@_1CO@KCKAACMI@?$AAf?$AAl?$AAa?$AAg?$AA?5?$AA?$DN?$AA?$DN?$AA?5?$AA0?$AA?5?$AA?$HM?$AA?$HM?$AA?5?$AAf?$AAl?$AAa?$AAg?$AA?5?$AA?$DN?$AA?$DN?$AA?5?$AA1?$AA?$AA@ 10074278     LIBCMTD:_sftbuf.obj
 0002:0000b2a8       ??_C@_0DB@BECNGFDL@f?3?2dd?2vctools?2crt_bld?2self_x86?2c@ 100742a8     LIBCMTD:initmon.obj
 0002:0000b2dc       ??_C@_1DM@GKAPAMDO@?$AAp?$AAl?$AAo?$AAc?$AAi?$AA?9?$AA?$DO?$AAl?$AAc?$AAo?$AAn?$AAv?$AA_?$AAm?$AAo?$AAn?$AA_?$AAr?$AAe?$AAf?$AAc?$AAo?$AAu?$AAn?$AAt?$AA?5?$AA?$DO?$AA?5?$AA0?$AA?$AA@ 100742dc     LIBCMTD:initmon.obj
 0002:0000b318       ??_C@_1GC@IKADOFBJ@?$AAf?$AA?3?$AA?2?$AAd?$AAd?$AA?2?$AAv?$AAc?$AAt?$AAo?$AAo?$AAl?$AAs?$AA?2?$AAc?$AAr?$AAt?$AA_?$AAb?$AAl?$AAd?$AA?2?$AAs?$AAe?$AAl?$AAf?$AA_?$AAx?$AA8?$AA6?$AA?2?$AAc@ 10074318     LIBCMTD:initmon.obj
 0002:0000b37c       ??_C@_0DB@KKFMDHFI@f?3?2dd?2vctools?2crt_bld?2self_x86?2c@ 1007437c     LIBCMTD:initnum.obj
 0002:0000b3b0       ??_C@_1DM@IFKAINNE@?$AAp?$AAl?$AAo?$AAc?$AAi?$AA?9?$AA?$DO?$AAl?$AAc?$AAo?$AAn?$AAv?$AA_?$AAn?$AAu?$AAm?$AA_?$AAr?$AAe?$AAf?$AAc?$AAo?$AAu?$AAn?$AAt?$AA?5?$AA?$DO?$AA?5?$AA0?$AA?$AA@ 100743b0     LIBCMTD:initnum.obj
 0002:0000b3f0       ??_C@_1GC@EDJOCBCL@?$AAf?$AA?3?$AA?2?$AAd?$AAd?$AA?2?$AAv?$AAc?$AAt?$AAo?$AAo?$AAl?$AAs?$AA?2?$AAc?$AAr?$AAt?$AA_?$AAb?$AAl?$AAd?$AA?2?$AAs?$AAe?$AAl?$AAf?$AA_?$AAx?$AA8?$AA6?$AA?2?$AAc@ 100743f0     LIBCMTD:initnum.obj
 0002:0000b454       ??_C@_0DC@KICHHNFK@f?3?2dd?2vctools?2crt_bld?2self_x86?2c@ 10074454     LIBCMTD:inittime.obj
 0002:0000b488       ??_C@_1EE@FDHCFDHN@?$AAp?$AAl?$AAo?$AAc?$AAi?$AA?9?$AA?$DO?$AAl?$AAc?$AA_?$AAt?$AAi?$AAm?$AAe?$AA_?$AAc?$AAu?$AAr?$AAr?$AA?9?$AA?$DO?$AAr?$AAe?$AAf?$AAc?$AAo?$AAu?$AAn?$AAt?$AA?5?$AA?$DO?$AA?5@ 10074488     LIBCMTD:inittime.obj
 0002:0000b4d0       ??_C@_1GE@GJCMHHMH@?$AAf?$AA?3?$AA?2?$AAd?$AAd?$AA?2?$AAv?$AAc?$AAt?$AAo?$AAo?$AAl?$AAs?$AA?2?$AAc?$AAr?$AAt?$AA_?$AAb?$AAl?$AAd?$AA?2?$AAs?$AAe?$AAl?$AAf?$AA_?$AAx?$AA8?$AA6?$AA?2?$AAc@ 100744d0     LIBCMTD:inittime.obj
 0002:0000b538       ___newctype                10074538     LIBCMTD:ctype.obj
 0002:0000b838       __wctype                   10074838     LIBCMTD:ctype.obj
 0002:0000ba40       ___newclmap                10074a40     LIBCMTD:ctype.obj
 0002:0000bbc0       ___newcumap                10074bc0     LIBCMTD:ctype.obj
 0002:0000bd40       ??_C@_0DC@EHLBFILA@f?3?2dd?2vctools?2crt_bld?2self_x86?2c@ 10074d40     LIBCMTD:initctyp.obj
 0002:0000bd78       ??_C@_1GE@OCPKBDKE@?$AAf?$AA?3?$AA?2?$AAd?$AAd?$AA?2?$AAv?$AAc?$AAt?$AAo?$AAo?$AAl?$AAs?$AA?2?$AAc?$AAr?$AAt?$AA_?$AAb?$AAl?$AAd?$AA?2?$AAs?$AAe?$AAl?$AAf?$AA_?$AAx?$AA8?$AA6?$AA?2?$AAc@ 10074d78     LIBCMTD:initctyp.obj
 0002:0000bddc       ??_C@_1DG@NMBGBDM@?$AAp?$AAl?$AAo?$AAc?$AAi?$AA?9?$AA?$DO?$AAc?$AAt?$AAy?$AAp?$AAe?$AA1?$AA_?$AAr?$AAe?$AAf?$AAc?$AAo?$AAu?$AAn?$AAt?$AA?5?$AA?$DO?$AA?5?$AA0?$AA?$AA@ 10074ddc     LIBCMTD:initctyp.obj
 0002:0000be14       ??_C@_1BK@LIMINNMN@?$AAg?$AAe?$AAr?$AAm?$AAa?$AAn?$AA?9?$AAs?$AAw?$AAi?$AAs?$AAs?$AA?$AA@ 10074e14     LIBCMTD:getqloc.obj
 0002:0000be30       ??_C@_1BM@LGMDBEPD@?$AAi?$AAr?$AAi?$AAs?$AAh?$AA?9?$AAe?$AAn?$AAg?$AAl?$AAi?$AAs?$AAh?$AA?$AA@ 10074e30     LIBCMTD:getqloc.obj
 0002:0000be4c       ??_C@_1BM@NNCFBAEE@?$AAi?$AAt?$AAa?$AAl?$AAi?$AAa?$AAn?$AA?9?$AAs?$AAw?$AAi?$AAs?$AAs?$AA?$AA@ 10074e4c     LIBCMTD:getqloc.obj
 0002:0000be68       ??_C@_1BE@FEDJNPIB@?$AAn?$AAo?$AAr?$AAw?$AAe?$AAg?$AAi?$AAa?$AAn?$AA?$AA@ 10074e68     LIBCMTD:getqloc.obj
 0002:0000be7c       ??_C@_1CC@CILKDEIE@?$AAn?$AAo?$AAr?$AAw?$AAe?$AAg?$AAi?$AAa?$AAn?$AA?9?$AAb?$AAo?$AAk?$AAm?$AAa?$AAl?$AA?$AA@ 10074e7c     LIBCMTD:getqloc.obj
 0002:0000bea0       ??_C@_1CE@DHMMHEPL@?$AAn?$AAo?$AAr?$AAw?$AAe?$AAg?$AAi?$AAa?$AAn?$AA?9?$AAn?$AAy?$AAn?$AAo?$AAr?$AAs?$AAk?$AA?$AA@ 10074ea0     LIBCMTD:getqloc.obj
 0002:0000bec4       ??_C@_1CK@OPNMHECD@?$AAp?$AAo?$AAr?$AAt?$AAu?$AAg?$AAu?$AAe?$AAs?$AAe?$AA?9?$AAb?$AAr?$AAa?$AAz?$AAi?$AAl?$AAi?$AAa?$AAn?$AA?$AA@ 10074ec4     LIBCMTD:getqloc.obj
 0002:0000bef0       ??_C@_1CE@KEEHCDB@?$AAs?$AAp?$AAa?$AAn?$AAi?$AAs?$AAh?$AA?9?$AAa?$AAr?$AAg?$AAe?$AAn?$AAt?$AAi?$AAn?$AAa?$AA?$AA@ 10074ef0     LIBCMTD:getqloc.obj
 0002:0000bf14       ??_C@_1CA@GIAOLHJD@?$AAs?$AAp?$AAa?$AAn?$AAi?$AAs?$AAh?$AA?9?$AAb?$AAo?$AAl?$AAi?$AAv?$AAi?$AAa?$AA?$AA@ 10074f14     LIBCMTD:getqloc.obj
 0002:0000bf34       ??_C@_1BM@OJNDFNPD@?$AAs?$AAp?$AAa?$AAn?$AAi?$AAs?$AAh?$AA?9?$AAc?$AAh?$AAi?$AAl?$AAe?$AA?$AA@ 10074f34     LIBCMTD:getqloc.obj
 0002:0000bf50       ??_C@_1CC@OCOLPALL@?$AAs?$AAp?$AAa?$AAn?$AAi?$AAs?$AAh?$AA?9?$AAc?$AAo?$AAl?$AAo?$AAm?$AAb?$AAi?$AAa?$AA?$AA@ 10074f50     LIBCMTD:getqloc.obj
 0002:0000bf74       ??_C@_1CG@BPOFMKBB@?$AAs?$AAp?$AAa?$AAn?$AAi?$AAs?$AAh?$AA?9?$AAc?$AAo?$AAs?$AAt?$AAa?$AA?5?$AAr?$AAi?$AAc?$AAa?$AA?$AA@ 10074f74     LIBCMTD:getqloc.obj
 0002:0000bf9c       ??_C@_1DG@IGOBAPBB@?$AAs?$AAp?$AAa?$AAn?$AAi?$AAs?$AAh?$AA?9?$AAd?$AAo?$AAm?$AAi?$AAn?$AAi?$AAc?$AAa?$AAn?$AA?5?$AAr?$AAe?$AAp?$AAu?$AAb?$AAl?$AAi?$AAc?$AA?$AA@ 10074f9c     LIBCMTD:getqloc.obj
 0002:0000bfd4       ??_C@_1CA@JHAPGEGI@?$AAs?$AAp?$AAa?$AAn?$AAi?$AAs?$AAh?$AA?9?$AAe?$AAc?$AAu?$AAa?$AAd?$AAo?$AAr?$AA?$AA@ 10074fd4     LIBCMTD:getqloc.obj
 0002:0000bff4       ??_C@_1CI@LAPALJPP@?$AAs?$AAp?$AAa?$AAn?$AAi?$AAs?$AAh?$AA?9?$AAe?$AAl?$AA?5?$AAs?$AAa?$AAl?$AAv?$AAa?$AAd?$AAo?$AAr?$AA?$AA@ 10074ff4     LIBCMTD:getqloc.obj
 0002:0000c01c       ??_C@_1CE@PDGBOFOM@?$AAs?$AAp?$AAa?$AAn?$AAi?$AAs?$AAh?$AA?9?$AAg?$AAu?$AAa?$AAt?$AAe?$AAm?$AAa?$AAl?$AAa?$AA?$AA@ 1007501c     LIBCMTD:getqloc.obj
 0002:0000c040       ??_C@_1CC@NBEBAODI@?$AAs?$AAp?$AAa?$AAn?$AAi?$AAs?$AAh?$AA?9?$AAh?$AAo?$AAn?$AAd?$AAu?$AAr?$AAa?$AAs?$AA?$AA@ 10075040     LIBCMTD:getqloc.obj
 0002:0000c064       ??_C@_1CA@LLKGHBMF@?$AAs?$AAp?$AAa?$AAn?$AAi?$AAs?$AAh?$AA?9?$AAm?$AAe?$AAx?$AAi?$AAc?$AAa?$AAn?$AA?$AA@ 10075064     LIBCMTD:getqloc.obj
 0002:0000c084       ??_C@_1BO@LKNDOIGD@?$AAs?$AAp?$AAa?$AAn?$AAi?$AAs?$AAh?$AA?9?$AAm?$AAo?$AAd?$AAe?$AAr?$AAn?$AA?$AA@ 10075084     LIBCMTD:getqloc.obj
 0002:0000c0a4       ??_C@_1CE@NMDMOEEB@?$AAs?$AAp?$AAa?$AAn?$AAi?$AAs?$AAh?$AA?9?$AAn?$AAi?$AAc?$AAa?$AAr?$AAa?$AAg?$AAu?$AAa?$AA?$AA@ 100750a4     LIBCMTD:getqloc.obj
 0002:0000c0c8       ??_C@_1BO@LLCBEJGB@?$AAs?$AAp?$AAa?$AAn?$AAi?$AAs?$AAh?$AA?9?$AAp?$AAa?$AAn?$AAa?$AAm?$AAa?$AA?$AA@ 100750c8     LIBCMTD:getqloc.obj
 0002:0000c0e8       ??_C@_1CC@FKPGGIHO@?$AAs?$AAp?$AAa?$AAn?$AAi?$AAs?$AAh?$AA?9?$AAp?$AAa?$AAr?$AAa?$AAg?$AAu?$AAa?$AAy?$AA?$AA@ 100750e8     LIBCMTD:getqloc.obj
 0002:0000c10c       ??_C@_1BK@CDEIHOOP@?$AAs?$AAp?$AAa?$AAn?$AAi?$AAs?$AAh?$AA?9?$AAp?$AAe?$AAr?$AAu?$AA?$AA@ 1007510c     LIBCMTD:getqloc.obj
 0002:0000c128       ??_C@_1CI@GAHAKKGP@?$AAs?$AAp?$AAa?$AAn?$AAi?$AAs?$AAh?$AA?9?$AAp?$AAu?$AAe?$AAr?$AAt?$AAo?$AA?5?$AAr?$AAi?$AAc?$AAo?$AA?$AA@ 10075128     LIBCMTD:getqloc.obj
 0002:0000c150       ??_C@_1CA@NKJBCAGP@?$AAs?$AAp?$AAa?$AAn?$AAi?$AAs?$AAh?$AA?9?$AAu?$AAr?$AAu?$AAg?$AAu?$AAa?$AAy?$AA?$AA@ 10075150     LIBCMTD:getqloc.obj
 0002:0000c170       ??_C@_1CE@ODILCONM@?$AAs?$AAp?$AAa?$AAn?$AAi?$AAs?$AAh?$AA?9?$AAv?$AAe?$AAn?$AAe?$AAz?$AAu?$AAe?$AAl?$AAa?$AA?$AA@ 10075170     LIBCMTD:getqloc.obj
 0002:0000c194       ??_C@_1CA@OBNMCGFO@?$AAs?$AAw?$AAe?$AAd?$AAi?$AAs?$AAh?$AA?9?$AAf?$AAi?$AAn?$AAl?$AAa?$AAn?$AAd?$AA?$AA@ 10075194     LIBCMTD:getqloc.obj
 0002:0000c1b4       ??_C@_1M@PIPDDPPI@?$AAs?$AAw?$AAi?$AAs?$AAs?$AA?$AA@ 100751b4     LIBCMTD:getqloc.obj
 0002:0000c1c0       ??_C@_15PJPFLCCM@?$AAu?$AAk?$AA?$AA@ 100751c0     LIBCMTD:getqloc.obj
 0002:0000c1c8       ??_C@_15GMFIMNFM@?$AAu?$AAs?$AA?$AA@ 100751c8     LIBCMTD:getqloc.obj
 0002:0000c1d0       ??_C@_17HAEBFAGL@?$AAu?$AAs?$AAa?$AA?$AA@ 100751d0     LIBCMTD:getqloc.obj
 0002:0000c1d8       ___rg_country              100751d8     LIBCMTD:getqloc.obj
 0002:0000c2ec       ??_C@_1BA@DPFJEPHB@?$AAa?$AAm?$AAe?$AAr?$AAi?$AAc?$AAa?$AA?$AA@ 100752ec     LIBCMTD:getqloc.obj
 0002:0000c2fc       ??_C@_1BA@ELOGGFK@?$AAb?$AAr?$AAi?$AAt?$AAa?$AAi?$AAn?$AA?$AA@ 100752fc     LIBCMTD:getqloc.obj
 0002:0000c30c       ??_C@_1M@GHBGIGDA@?$AAc?$AAh?$AAi?$AAn?$AAa?$AA?$AA@ 1007530c     LIBCMTD:getqloc.obj
 0002:0000c318       ??_C@_1M@NCHEJOPO@?$AAc?$AAz?$AAe?$AAc?$AAh?$AA?$AA@ 10075318     LIBCMTD:getqloc.obj
 0002:0000c324       ??_C@_1BA@BKPAPBLA@?$AAe?$AAn?$AAg?$AAl?$AAa?$AAn?$AAd?$AA?$AA@ 10075324     LIBCMTD:getqloc.obj
 0002:0000c334       ??_C@_1BM@HKBCKIPC@?$AAg?$AAr?$AAe?$AAa?$AAt?$AA?5?$AAb?$AAr?$AAi?$AAt?$AAa?$AAi?$AAn?$AA?$AA@ 10075334     LIBCMTD:getqloc.obj
 0002:0000c350       ??_C@_1BA@PPCHPGJB@?$AAh?$AAo?$AAl?$AAl?$AAa?$AAn?$AAd?$AA?$AA@ 10075350     LIBCMTD:getqloc.obj
 0002:0000c360       ??_C@_1BE@JBMPEGDG@?$AAh?$AAo?$AAn?$AAg?$AA?9?$AAk?$AAo?$AAn?$AAg?$AA?$AA@ 10075360     LIBCMTD:getqloc.obj
 0002:0000c374       ??_C@_1BI@KOELBBPJ@?$AAn?$AAe?$AAw?$AA?9?$AAz?$AAe?$AAa?$AAl?$AAa?$AAn?$AAd?$AA?$AA@ 10075374     LIBCMTD:getqloc.obj
 0002:0000c38c       ??_C@_15HIEBHAIO@?$AAn?$AAz?$AA?$AA@ 1007538c     LIBCMTD:getqloc.obj
 0002:0000c394       ??_C@_1BC@CHBCPFPI@?$AAp?$AAr?$AA?5?$AAc?$AAh?$AAi?$AAn?$AAa?$AA?$AA@ 10075394     LIBCMTD:getqloc.obj
 0002:0000c3a8       ??_C@_1BC@JAOIIFKD@?$AAp?$AAr?$AA?9?$AAc?$AAh?$AAi?$AAn?$AAa?$AA?$AA@ 100753a8     LIBCMTD:getqloc.obj
 0002:0000c3bc       ??_C@_1BI@BEHPPHKC@?$AAp?$AAu?$AAe?$AAr?$AAt?$AAo?$AA?9?$AAr?$AAi?$AAc?$AAo?$AA?$AA@ 100753bc     LIBCMTD:getqloc.obj
 0002:0000c3d4       ??_C@_1O@PAEOFKDI@?$AAs?$AAl?$AAo?$AAv?$AAa?$AAk?$AA?$AA@ 100753d4     LIBCMTD:getqloc.obj
 0002:0000c3e4       ??_C@_1BK@FIHMCKAM@?$AAs?$AAo?$AAu?$AAt?$AAh?$AA?5?$AAa?$AAf?$AAr?$AAi?$AAc?$AAa?$AA?$AA@ 100753e4     LIBCMTD:getqloc.obj
 0002:0000c400       ??_C@_1BI@NAEOODKB@?$AAs?$AAo?$AAu?$AAt?$AAh?$AA?5?$AAk?$AAo?$AAr?$AAe?$AAa?$AA?$AA@ 10075400     LIBCMTD:getqloc.obj
 0002:0000c418       ??_C@_1BK@FBDGGIFF@?$AAs?$AAo?$AAu?$AAt?$AAh?$AA?9?$AAa?$AAf?$AAr?$AAi?$AAc?$AAa?$AA?$AA@ 10075418     LIBCMTD:getqloc.obj
 0002:0000c434       ??_C@_1BI@GHLEJDPK@?$AAs?$AAo?$AAu?$AAt?$AAh?$AA?9?$AAk?$AAo?$AAr?$AAe?$AAa?$AA?$AA@ 10075434     LIBCMTD:getqloc.obj
 0002:0000c44c       ??_C@_1CE@PLHLOMJF@?$AAt?$AAr?$AAi?$AAn?$AAi?$AAd?$AAa?$AAd?$AA?5?$AA?$CG?$AA?5?$AAt?$AAo?$AAb?$AAa?$AAg?$AAo?$AA?$AA@ 1007544c     LIBCMTD:getqloc.obj
 0002:0000c470       ??_C@_1BO@MODIMHHI@?$AAu?$AAn?$AAi?$AAt?$AAe?$AAd?$AA?9?$AAk?$AAi?$AAn?$AAg?$AAd?$AAo?$AAm?$AA?$AA@ 10075470     LIBCMTD:getqloc.obj
 0002:0000c490       ??_C@_1BM@FFHJONBJ@?$AAu?$AAn?$AAi?$AAt?$AAe?$AAd?$AA?9?$AAs?$AAt?$AAa?$AAt?$AAe?$AAs?$AA?$AA@ 10075490     LIBCMTD:getqloc.obj
 0002:0000c4b0       ___rg_language             100754b0     LIBCMTD:getqloc.obj
 0002:0000c7bc       ??_C@_1BC@LLOKLNP@?$AAa?$AAm?$AAe?$AAr?$AAi?$AAc?$AAa?$AAn?$AA?$AA@ 100757bc     LIBCMTD:getqloc.obj
 0002:0000c7d0       ??_C@_1CC@HEIGCDGG@?$AAa?$AAm?$AAe?$AAr?$AAi?$AAc?$AAa?$AAn?$AA?5?$AAe?$AAn?$AAg?$AAl?$AAi?$AAs?$AAh?$AA?$AA@ 100757d0     LIBCMTD:getqloc.obj
 0002:0000c7f4       ??_C@_1CC@IHCNOMIN@?$AAa?$AAm?$AAe?$AAr?$AAi?$AAc?$AAa?$AAn?$AA?9?$AAe?$AAn?$AAg?$AAl?$AAi?$AAs?$AAh?$AA?$AA@ 100757f4     LIBCMTD:getqloc.obj
 0002:0000c818       ??_C@_1BG@GKAGPCGG@?$AAa?$AAu?$AAs?$AAt?$AAr?$AAa?$AAl?$AAi?$AAa?$AAn?$AA?$AA@ 10075818     LIBCMTD:getqloc.obj
 0002:0000c830       ??_C@_1BA@GMENCENF@?$AAb?$AAe?$AAl?$AAg?$AAi?$AAa?$AAn?$AA?$AA@ 10075830     LIBCMTD:getqloc.obj
 0002:0000c840       ??_C@_1BC@PJMIIAAN@?$AAc?$AAa?$AAn?$AAa?$AAd?$AAi?$AAa?$AAn?$AA?$AA@ 10075840     LIBCMTD:getqloc.obj
 0002:0000c854       ??_C@_17NOIMNFBF@?$AAc?$AAh?$AAh?$AA?$AA@ 10075854     LIBCMTD:getqloc.obj
 0002:0000c85c       ??_C@_17GGDALCHA@?$AAc?$AAh?$AAi?$AA?$AA@ 1007585c     LIBCMTD:getqloc.obj
 0002:0000c864       ??_C@_1BA@NPNJKIBL@?$AAc?$AAh?$AAi?$AAn?$AAe?$AAs?$AAe?$AA?$AA@ 10075864     LIBCMTD:getqloc.obj
 0002:0000c874       ??_C@_1CC@DINBAMMJ@?$AAc?$AAh?$AAi?$AAn?$AAe?$AAs?$AAe?$AA?9?$AAh?$AAo?$AAn?$AAg?$AAk?$AAo?$AAn?$AAg?$AA?$AA@ 10075874     LIBCMTD:getqloc.obj
 0002:0000c898       ??_C@_1CG@IOBJPACO@?$AAc?$AAh?$AAi?$AAn?$AAe?$AAs?$AAe?$AA?9?$AAs?$AAi?$AAm?$AAp?$AAl?$AAi?$AAf?$AAi?$AAe?$AAd?$AA?$AA@ 10075898     LIBCMTD:getqloc.obj
 0002:0000c8c0       ??_C@_1CE@GAJNDCKG@?$AAc?$AAh?$AAi?$AAn?$AAe?$AAs?$AAe?$AA?9?$AAs?$AAi?$AAn?$AAg?$AAa?$AAp?$AAo?$AAr?$AAe?$AA?$AA@ 100758c0     LIBCMTD:getqloc.obj
 0002:0000c8e4       ??_C@_1CI@PAJPIOOD@?$AAc?$AAh?$AAi?$AAn?$AAe?$AAs?$AAe?$AA?9?$AAt?$AAr?$AAa?$AAd?$AAi?$AAt?$AAi?$AAo?$AAn?$AAa?$AAl?$AA?$AA@ 100758e4     LIBCMTD:getqloc.obj
 0002:0000c90c       ??_C@_1BM@NILJBMMD@?$AAd?$AAu?$AAt?$AAc?$AAh?$AA?9?$AAb?$AAe?$AAl?$AAg?$AAi?$AAa?$AAn?$AA?$AA@ 1007590c     LIBCMTD:getqloc.obj
 0002:0000c928       ??_C@_1CC@OOJPJNEJ@?$AAe?$AAn?$AAg?$AAl?$AAi?$AAs?$AAh?$AA?9?$AAa?$AAm?$AAe?$AAr?$AAi?$AAc?$AAa?$AAn?$AA?$AA@ 10075928     LIBCMTD:getqloc.obj
 0002:0000c94c       ??_C@_1BI@IOLFEEM@?$AAe?$AAn?$AAg?$AAl?$AAi?$AAs?$AAh?$AA?9?$AAa?$AAu?$AAs?$AA?$AA@ 1007594c     LIBCMTD:getqloc.obj
 0002:0000c964       ??_C@_1BO@HFFNLENJ@?$AAe?$AAn?$AAg?$AAl?$AAi?$AAs?$AAh?$AA?9?$AAb?$AAe?$AAl?$AAi?$AAz?$AAe?$AA?$AA@ 10075964     LIBCMTD:getqloc.obj
 0002:0000c984       ??_C@_1BI@HAPKJMPO@?$AAe?$AAn?$AAg?$AAl?$AAi?$AAs?$AAh?$AA?9?$AAc?$AAa?$AAn?$AA?$AA@ 10075984     LIBCMTD:getqloc.obj
 0002:0000c99c       ??_C@_1CE@HLNDMIOJ@?$AAe?$AAn?$AAg?$AAl?$AAi?$AAs?$AAh?$AA?9?$AAc?$AAa?$AAr?$AAi?$AAb?$AAb?$AAe?$AAa?$AAn?$AA?$AA@ 1007599c     LIBCMTD:getqloc.obj
 0002:0000c9c0       ??_C@_1BI@LDHJHHAC@?$AAe?$AAn?$AAg?$AAl?$AAi?$AAs?$AAh?$AA?9?$AAi?$AAr?$AAe?$AA?$AA@ 100759c0     LIBCMTD:getqloc.obj
 0002:0000c9d8       ??_C@_1CA@NJMMCFOC@?$AAe?$AAn?$AAg?$AAl?$AAi?$AAs?$AAh?$AA?9?$AAj?$AAa?$AAm?$AAa?$AAi?$AAc?$AAa?$AA?$AA@ 100759d8     LIBCMTD:getqloc.obj
 0002:0000c9f8       ??_C@_1BG@BHJEBBGG@?$AAe?$AAn?$AAg?$AAl?$AAi?$AAs?$AAh?$AA?9?$AAn?$AAz?$AA?$AA@ 100759f8     LIBCMTD:getqloc.obj
 0002:0000ca10       ??_C@_1CK@FGOEJJCO@?$AAe?$AAn?$AAg?$AAl?$AAi?$AAs?$AAh?$AA?9?$AAs?$AAo?$AAu?$AAt?$AAh?$AA?5?$AAa?$AAf?$AAr?$AAi?$AAc?$AAa?$AA?$AA@ 10075a10     LIBCMTD:getqloc.obj
 0002:0000ca3c       ??_C@_1DE@PDBJPCJ@?$AAe?$AAn?$AAg?$AAl?$AAi?$AAs?$AAh?$AA?9?$AAt?$AAr?$AAi?$AAn?$AAi?$AAd?$AAa?$AAd?$AA?5?$AAy?$AA?5?$AAt?$AAo?$AAb?$AAa?$AAg?$AAo?$AA?$AA@ 10075a3c     LIBCMTD:getqloc.obj
 0002:0000ca70       ??_C@_1BG@JGCANDME@?$AAe?$AAn?$AAg?$AAl?$AAi?$AAs?$AAh?$AA?9?$AAu?$AAk?$AA?$AA@ 10075a70     LIBCMTD:getqloc.obj
 0002:0000ca88       ??_C@_1BG@DINKMLE@?$AAe?$AAn?$AAg?$AAl?$AAi?$AAs?$AAh?$AA?9?$AAu?$AAs?$AA?$AA@ 10075a88     LIBCMTD:getqloc.obj
 0002:0000caa0       ??_C@_1BI@NMFDBHJE@?$AAe?$AAn?$AAg?$AAl?$AAi?$AAs?$AAh?$AA?9?$AAu?$AAs?$AAa?$AA?$AA@ 10075aa0     LIBCMTD:getqloc.obj
 0002:0000cab8       ??_C@_1BO@OIHKJKII@?$AAf?$AAr?$AAe?$AAn?$AAc?$AAh?$AA?9?$AAb?$AAe?$AAl?$AAg?$AAi?$AAa?$AAn?$AA?$AA@ 10075ab8     LIBCMTD:getqloc.obj
 0002:0000cad8       ??_C@_1CA@NKAELJKI@?$AAf?$AAr?$AAe?$AAn?$AAc?$AAh?$AA?9?$AAc?$AAa?$AAn?$AAa?$AAd?$AAi?$AAa?$AAn?$AA?$AA@ 10075ad8     LIBCMTD:getqloc.obj
 0002:0000caf8       ??_C@_1CE@MGKCNLGN@?$AAf?$AAr?$AAe?$AAn?$AAc?$AAh?$AA?9?$AAl?$AAu?$AAx?$AAe?$AAm?$AAb?$AAo?$AAu?$AAr?$AAg?$AA?$AA@ 10075af8     LIBCMTD:getqloc.obj
 0002:0000cb1c       ??_C@_1BK@CEGEAILM@?$AAf?$AAr?$AAe?$AAn?$AAc?$AAh?$AA?9?$AAs?$AAw?$AAi?$AAs?$AAs?$AA?$AA@ 10075b1c     LIBCMTD:getqloc.obj
 0002:0000cb38       ??_C@_1CA@PAFKEOCC@?$AAg?$AAe?$AAr?$AAm?$AAa?$AAn?$AA?9?$AAa?$AAu?$AAs?$AAt?$AAr?$AAi?$AAa?$AAn?$AA?$AA@ 10075b38     LIBCMTD:getqloc.obj
 0002:0000cb58       ??_C@_1CI@HCFHGOFD@?$AAg?$AAe?$AAr?$AAm?$AAa?$AAn?$AA?9?$AAl?$AAi?$AAc?$AAh?$AAt?$AAe?$AAn?$AAs?$AAt?$AAe?$AAi?$AAn?$AA?$AA@ 10075b58     LIBCMTD:getqloc.obj
 0002:0000cb80       ??_C@_1CE@FEDDNPDG@?$AAg?$AAe?$AAr?$AAm?$AAa?$AAn?$AA?9?$AAl?$AAu?$AAx?$AAe?$AAm?$AAb?$AAo?$AAu?$AAr?$AAg?$AA?$AA@ 10075b80     LIBCMTD:getqloc.obj
 0002:0000cba8       ??_C@_1GC@FECJGAE@?$AAf?$AA?3?$AA?2?$AAd?$AAd?$AA?2?$AAv?$AAc?$AAt?$AAo?$AAo?$AAl?$AAs?$AA?2?$AAc?$AAr?$AAt?$AA_?$AAb?$AAl?$AAd?$AA?2?$AAs?$AAe?$AAl?$AAf?$AA_?$AAx?$AA8?$AA6?$AA?2?$AAc@ 10075ba8     LIBCMTD:getqloc.obj
 0002:0000cc0c       ??_C@_1CO@NJACLALJ@?$AA_?$AA_?$AAg?$AAe?$AAt?$AA_?$AAq?$AAu?$AAa?$AAl?$AAi?$AAf?$AAi?$AAe?$AAd?$AA_?$AAl?$AAo?$AAc?$AAa?$AAl?$AAe?$AA?$AA@ 10075c0c     LIBCMTD:getqloc.obj
 0002:0000cc40       ??_C@_1BGM@FCCPEFDE@?$AAw?$AAc?$AAs?$AAn?$AAc?$AAp?$AAy?$AA_?$AAs?$AA?$CI?$AAl?$AAp?$AAO?$AAu?$AAt?$AAS?$AAt?$AAr?$AA?9?$AA?$DO?$AAs?$AAz?$AAL?$AAo?$AAc?$AAa?$AAl?$AAe?$AAN?$AAa?$AAm?$AAe@ 10075c40     LIBCMTD:getqloc.obj
 0002:0000cdac       ??_C@_1CM@OGEMFJNJ@?$AAL?$AAa?$AAn?$AAg?$AAC?$AAo?$AAu?$AAn?$AAt?$AAr?$AAy?$AAE?$AAn?$AAu?$AAm?$AAP?$AAr?$AAo?$AAc?$AAE?$AAx?$AA?$AA@ 10075dac     LIBCMTD:getqloc.obj
 0002:0000cdd8       ??_C@_1BFO@LLJKJAIC@?$AAw?$AAc?$AAs?$AAn?$AAc?$AAp?$AAy?$AA_?$AAs?$AA?$CI?$AA_?$AAp?$AAs?$AAe?$AAt?$AAl?$AAo?$AAc?$AA_?$AAd?$AAa?$AAt?$AAa?$AA?9?$AA?$DO?$AA_?$AAc?$AAa?$AAc?$AAh?$AAe?$AAL@ 10075dd8     LIBCMTD:getqloc.obj
 0002:0000cf38       ??_C@_1CG@PGLLICHO@?$AAL?$AAa?$AAn?$AAg?$AAu?$AAa?$AAg?$AAe?$AAE?$AAn?$AAu?$AAm?$AAP?$AAr?$AAo?$AAc?$AAE?$AAx?$AA?$AA@ 10075f38     LIBCMTD:getqloc.obj
 0002:0000cf60       ??_C@_1DC@CPKFANGP@?$AAG?$AAe?$AAt?$AAL?$AAo?$AAc?$AAa?$AAl?$AAe?$AAN?$AAa?$AAm?$AAe?$AAF?$AAr?$AAo?$AAm?$AAD?$AAe?$AAf?$AAa?$AAu?$AAl?$AAt?$AA?$AA@ 10075f60     LIBCMTD:getqloc.obj
 0002:0000cf98       ??_C@_1BEO@EJBNGKHB@?$AAw?$AAc?$AAs?$AAn?$AAc?$AAp?$AAy?$AA_?$AAs?$AA?$CI?$AA_?$AAp?$AAs?$AAe?$AAt?$AAl?$AAo?$AAc?$AA_?$AAd?$AAa?$AAt?$AAa?$AA?9?$AA?$DO?$AA_?$AAc?$AAa?$AAc?$AAh?$AAe?$AAL@ 10075f98     LIBCMTD:getqloc.obj
 0002:0000d0e8       ??_C@_17DNCLJFIF@?$AAA?$AAC?$AAP?$AA?$AA@ 100760e8     LIBCMTD:getqloc.obj
 0002:0000d0f0       ??_C@_17CIKBIHLH@?$AAO?$AAC?$AAP?$AA?$AA@ 100760f0     LIBCMTD:getqloc.obj
 0002:0000d0f8       ??_C@_0DB@KIKNCIEC@f?3?2dd?2vctools?2crt_bld?2self_x86?2c@ 100760f8     LIBCMTD:osfinfo.obj
 0002:0000d130       ??_C@_1GC@MLKLDJJG@?$AAf?$AA?3?$AA?2?$AAd?$AAd?$AA?2?$AAv?$AAc?$AAt?$AAo?$AAo?$AAl?$AAs?$AA?2?$AAc?$AAr?$AAt?$AA_?$AAb?$AAl?$AAd?$AA?2?$AAs?$AAe?$AAl?$AAf?$AA_?$AAx?$AA8?$AA6?$AA?2?$AAc@ 10076130     LIBCMTD:osfinfo.obj
 0002:0000d194       ??_C@_1BO@EMBOBGKE@?$AA_?$AAg?$AAe?$AAt?$AA_?$AAo?$AAs?$AAf?$AAh?$AAa?$AAn?$AAd?$AAl?$AAe?$AA?$AA@ 10076194     LIBCMTD:osfinfo.obj
 0002:0000d1b8       ??_C@_1HC@KFLBHHBC@?$AA?$CI?$AAf?$AAi?$AAl?$AAe?$AAd?$AAe?$AAs?$AA?5?$AA?$DO?$AA?$DN?$AA?5?$AA0?$AA?5?$AA?$CG?$AA?$CG?$AA?5?$AA?$CI?$AAu?$AAn?$AAs?$AAi?$AAg?$AAn?$AAe?$AAd?$AA?$CJ?$AAf?$AAi?$AAl?$AAe?$AAd@ 100761b8     LIBCMTD:commit.obj
 0002:0000d230       ??_C@_1GA@BOPCOCFN@?$AAf?$AA?3?$AA?2?$AAd?$AAd?$AA?2?$AAv?$AAc?$AAt?$AAo?$AAo?$AAl?$AAs?$AA?2?$AAc?$AAr?$AAt?$AA_?$AAb?$AAl?$AAd?$AA?2?$AAs?$AAe?$AAl?$AAf?$AA_?$AAx?$AA8?$AA6?$AA?2?$AAc@ 10076230     LIBCMTD:commit.obj
 0002:0000d290       ??_C@_1BA@FLNMBBIM@?$AA_?$AAc?$AAo?$AAm?$AAm?$AAi?$AAt?$AA?$AA@ 10076290     LIBCMTD:commit.obj
 0002:0000d2a0       ??_C@_1DG@LNNHNFHJ@?$AA?$CI?$AA_?$AAo?$AAs?$AAf?$AAi?$AAl?$AAe?$AA?$CI?$AAf?$AAi?$AAl?$AAe?$AAd?$AAe?$AAs?$AA?$CJ?$AA?5?$AA?$CG?$AA?5?$AAF?$AAO?$AAP?$AAE?$AAN?$AA?$CJ?$AA?$AA@ 100762a0     LIBCMTD:commit.obj
 0002:0000d2d8       ??_C@_1FO@EPLDPDDL@?$AAf?$AA?3?$AA?2?$AAd?$AAd?$AA?2?$AAv?$AAc?$AAt?$AAo?$AAo?$AAl?$AAs?$AA?2?$AAc?$AAr?$AAt?$AA_?$AAb?$AAl?$AAd?$AA?2?$AAs?$AAe?$AAl?$AAf?$AA_?$AAx?$AA8?$AA6?$AA?2?$AAc@ 100762d8     LIBCMTD:write.obj
 0002:0000d338       ??_C@_1O@KOFKDHPL@?$AA_?$AAw?$AAr?$AAi?$AAt?$AAe?$AA?$AA@ 10076338     LIBCMTD:write.obj
 0002:0000d348       ??_C@_1BM@KFJLMBPG@?$AA?$CI?$AAb?$AAu?$AAf?$AA?5?$AA?$CB?$AA?$DN?$AA?5?$AAN?$AAU?$AAL?$AAL?$AA?$CJ?$AA?$AA@ 10076348     LIBCMTD:write.obj
 0002:0000d364       ??_C@_1BM@NCANHCIP@?$AA_?$AAw?$AAr?$AAi?$AAt?$AAe?$AA_?$AAn?$AAo?$AAl?$AAo?$AAc?$AAk?$AA?$AA@ 10076364     LIBCMTD:write.obj
 0002:0000d380       ??_C@_1DI@CNMHHHLG@?$AAi?$AAs?$AAl?$AAe?$AAa?$AAd?$AAb?$AAy?$AAt?$AAe?$AA?$CI?$AA_?$AAd?$AAb?$AAc?$AAs?$AAB?$AAu?$AAf?$AAf?$AAe?$AAr?$AA?$CI?$AAf?$AAh?$AA?$CJ?$AA?$CJ?$AA?$AA@ 10076380     LIBCMTD:write.obj
 0002:0000d3b8       ??_C@_1BO@DPAOGEII@?$AA?$CI?$AAp?$AAa?$AAt?$AAh?$AA?5?$AA?$CB?$AA?$DN?$AA?5?$AAN?$AAU?$AAL?$AAL?$AA?$CJ?$AA?$AA@ 100763b8     LIBCMTD:open.obj
 0002:0000d3d8       ??_C@_1FM@LFKHNNH@?$AAf?$AA?3?$AA?2?$AAd?$AAd?$AA?2?$AAv?$AAc?$AAt?$AAo?$AAo?$AAl?$AAs?$AA?2?$AAc?$AAr?$AAt?$AA_?$AAb?$AAl?$AAd?$AA?2?$AAs?$AAe?$AAl?$AAf?$AA_?$AAx?$AA8?$AA6?$AA?2?$AAc@ 100763d8     LIBCMTD:open.obj
 0002:0000d434       ??_C@_1M@MFLJCMFJ@?$AA_?$AAo?$AAp?$AAe?$AAn?$AA?$AA@ 10076434     LIBCMTD:open.obj
 0002:0000d440       ??_C@_1BM@PGEEHLHE@?$AA?$CI?$AAp?$AAf?$AAh?$AA?5?$AA?$CB?$AA?$DN?$AA?5?$AAN?$AAU?$AAL?$AAL?$AA?$CJ?$AA?$AA@ 10076440     LIBCMTD:open.obj
 0002:0000d45c       ??_C@_1BM@IOBAMMHO@?$AA_?$AAs?$AAo?$AAp?$AAe?$AAn?$AA_?$AAh?$AAe?$AAl?$AAp?$AAe?$AAr?$AA?$AA@ 1007645c     LIBCMTD:open.obj
 0002:0000d478       ??_C@_1FG@NFINBJCM@?$AA?$CI?$AA?$CI?$AAp?$AAm?$AAo?$AAd?$AAe?$AA?5?$AA?$CG?$AA?5?$AA?$CI?$AA?$HO?$AA?$CI?$AA_?$AAS?$AA_?$AAI?$AAR?$AAE?$AAA?$AAD?$AA?5?$AA?$HM?$AA?5?$AA_?$AAS?$AA_?$AAI?$AAW?$AAR?$AAI?$AAT@ 10076478     LIBCMTD:open.obj
 0002:0000d4d0       ??_C@_1BG@MODEICJK@?$AAs?$AA1?$AA?5?$AA?$CB?$AA?$DN?$AA?5?$AAN?$AAU?$AAL?$AAL?$AA?$AA@ 100764d0     LIBCMTD:mbsnbcmp.obj
 0002:0000d4e8       ??_C@_1GE@IIBFGEPN@?$AAf?$AA?3?$AA?2?$AAd?$AAd?$AA?2?$AAv?$AAc?$AAt?$AAo?$AAo?$AAl?$AAs?$AA?2?$AAc?$AAr?$AAt?$AA_?$AAb?$AAl?$AAd?$AA?2?$AAs?$AAe?$AAl?$AAf?$AA_?$AAx?$AA8?$AA6?$AA?2?$AAc@ 100764e8     LIBCMTD:mbsnbcmp.obj
 0002:0000d54c       ??_C@_1BI@LPHOHGHI@?$AA_?$AAm?$AAb?$AAs?$AAn?$AAb?$AAc?$AAm?$AAp?$AA_?$AAl?$AA?$AA@ 1007654c     LIBCMTD:mbsnbcmp.obj
 0002:0000d564       ??_C@_1BG@GBJNMPFA@?$AAs?$AA2?$AA?5?$AA?$CB?$AA?$DN?$AA?5?$AAN?$AAU?$AAL?$AAL?$AA?$AA@ 10076564     LIBCMTD:mbsnbcmp.obj
 0002:0000d580       ??_C@_1GE@JLFFJINF@?$AAf?$AA?3?$AA?2?$AAd?$AAd?$AA?2?$AAv?$AAc?$AAt?$AAo?$AAo?$AAl?$AAs?$AA?2?$AAc?$AAr?$AAt?$AA_?$AAb?$AAl?$AAd?$AA?2?$AAs?$AAe?$AAl?$AAf?$AA_?$AAx?$AA8?$AA6?$AA?2?$AAc@ 10076580     LIBCMTD:mbsnbicm.obj
 0002:0000d5e4       ??_C@_1BK@GEJONGBG@?$AA_?$AAm?$AAb?$AAs?$AAn?$AAb?$AAi?$AAc?$AAm?$AAp?$AA_?$AAl?$AA?$AA@ 100765e4     LIBCMTD:mbsnbicm.obj
 0002:0000d600       ??_C@_1GC@DKMGNNCC@?$AAf?$AA?3?$AA?2?$AAd?$AAd?$AA?2?$AAv?$AAc?$AAt?$AAo?$AAo?$AAl?$AAs?$AA?2?$AAc?$AAr?$AAt?$AA_?$AAb?$AAl?$AAd?$AA?2?$AAs?$AAe?$AAl?$AAf?$AA_?$AAx?$AA8?$AA6?$AA?2?$AAc@ 10076600     LIBCMTD:_getbuf.obj
 0002:0000d664       ??_C@_0DB@JEHOCBEJ@f?3?2dd?2vctools?2crt_bld?2self_x86?2c@ 10076664     LIBCMTD:_getbuf.obj
 0002:0000d698       ??_C@_1GA@LPGDJDEN@?$AAf?$AA?3?$AA?2?$AAd?$AAd?$AA?2?$AAv?$AAc?$AAt?$AAo?$AAo?$AAl?$AAs?$AA?2?$AAc?$AAr?$AAt?$AA_?$AAb?$AAl?$AAd?$AA?2?$AAs?$AAe?$AAl?$AAf?$AA_?$AAx?$AA8?$AA6?$AA?2?$AAc@ 10076698     LIBCMTD:isatty.obj
 0002:0000d6f8       ??_C@_1BA@LEBDGIHM@?$AA_?$AAi?$AAs?$AAa?$AAt?$AAt?$AAy?$AA?$AA@ 100766f8     LIBCMTD:isatty.obj
 0002:0000d708       ??_C@_1GE@KINELFI@?$AAf?$AA?3?$AA?2?$AAd?$AAd?$AA?2?$AAv?$AAc?$AAt?$AAo?$AAo?$AAl?$AAs?$AA?2?$AAc?$AAr?$AAt?$AA_?$AAb?$AAl?$AAd?$AA?2?$AAs?$AAe?$AAl?$AAf?$AA_?$AAx?$AA8?$AA6?$AA?2?$AAc@ 10076708     LIBCMTD:vswprint.obj
 0002:0000d76c       ??_C@_1BK@EPLNBKAK@?$AA_?$AAv?$AAs?$AAw?$AAp?$AAr?$AAi?$AAn?$AAt?$AAf?$AA_?$AAl?$AA?$AA@ 1007676c     LIBCMTD:vswprint.obj
 0002:0000d788       ??_C@_1CG@IMMIEPNA@?$AA_?$AAv?$AAs?$AAc?$AAw?$AAp?$AAr?$AAi?$AAn?$AAt?$AAf?$AA_?$AAh?$AAe?$AAl?$AAp?$AAe?$AAr?$AA?$AA@ 10076788     LIBCMTD:vswprint.obj
 0002:0000d7b0       ??_C@_1CE@IGKFIJFD@?$AA_?$AAv?$AAs?$AAw?$AAp?$AAr?$AAi?$AAn?$AAt?$AAf?$AA_?$AAh?$AAe?$AAl?$AAp?$AAe?$AAr?$AA?$AA@ 100767b0     LIBCMTD:vswprnc.obj
 0002:0000d7d4       ??_C@_1BO@OALHJLCI@?$AA_?$AAv?$AAs?$AAw?$AAp?$AAr?$AAi?$AAn?$AAt?$AAf?$AA_?$AAs?$AA_?$AAl?$AA?$AA@ 100767d4     LIBCMTD:vswprnc.obj
 0002:0000d7f8       ??_C@_1EE@MPCHJFGP@?$AAs?$AAt?$AAr?$AAi?$AAn?$AAg?$AA?5?$AA?$CB?$AA?$DN?$AA?5?$AAN?$AAU?$AAL?$AAL?$AA?5?$AA?$CG?$AA?$CG?$AA?5?$AAs?$AAi?$AAz?$AAe?$AAI?$AAn?$AAW?$AAo?$AAr?$AAd?$AAs?$AA?5?$AA?$DO?$AA?5@ 100767f8     LIBCMTD:vswprnc.obj
 0002:0000d83c       ??_C@_1CA@BKFKMJFF@?$AA_?$AAv?$AAs?$AAn?$AAw?$AAp?$AAr?$AAi?$AAn?$AAt?$AAf?$AA_?$AAs?$AA_?$AAl?$AA?$AA@ 1007683c     LIBCMTD:vswprnc.obj
 0002:0000d85c       ??_C@_1BG@BBCDFOMA@?$AA_?$AAw?$AAo?$AAu?$AAt?$AAp?$AAu?$AAt?$AA_?$AAl?$AA?$AA@ 1007685c     LIBCMTD:woutput.obj
 0002:0000d874       ??_C@_1BC@HGPNAKGC@?$AAs?$AAt?$AAr?$AAc?$AAa?$AAt?$AA_?$AAs?$AA?$AA@ 10076874     LIBCMTD:strcat_s.obj
 0002:0000d888       ??_C@_1FM@MFCBFCGB@?$AAf?$AA?3?$AA?2?$AAd?$AAd?$AA?2?$AAv?$AAc?$AAt?$AAo?$AAo?$AAl?$AAs?$AA?2?$AAc?$AAr?$AAt?$AA_?$AAb?$AAl?$AAd?$AA?2?$AAs?$AAe?$AAl?$AAf?$AA_?$AAx?$AA8?$AA6?$AA?2?$AAc@ 10076888     LIBCMTD:xtoas.obj
 0002:0000d8e4       ??_C@_1O@GIMBNLEI@?$AAx?$AAt?$AAo?$AAa?$AA_?$AAs?$AA?$AA@ 100768e4     LIBCMTD:xtoas.obj
 0002:0000d8f4       ??_C@_1CC@JNJFIMGE@?$AAs?$AAi?$AAz?$AAe?$AAI?$AAn?$AAT?$AAC?$AAh?$AAa?$AAr?$AAs?$AA?5?$AA?$DO?$AA?5?$AA0?$AA?$AA@ 100768f4     LIBCMTD:xtoas.obj
 0002:0000d918       ??_C@_1FA@MKGGAGEI@?$AAs?$AAi?$AAz?$AAe?$AAI?$AAn?$AAT?$AAC?$AAh?$AAa?$AAr?$AAs?$AA?5?$AA?$DO?$AA?5?$AA?$CI?$AAs?$AAi?$AAz?$AAe?$AA_?$AAt?$AA?$CJ?$AA?$CI?$AAi?$AAs?$AA_?$AAn?$AAe?$AAg?$AA?5?$AA?$DP@ 10076918     LIBCMTD:xtoas.obj
 0002:0000d968       ??_C@_1DE@PCJGDBBD@?$AA2?$AA?5?$AA?$DM?$AA?$DN?$AA?5?$AAr?$AAa?$AAd?$AAi?$AAx?$AA?5?$AA?$CG?$AA?$CG?$AA?5?$AAr?$AAa?$AAd?$AAi?$AAx?$AA?5?$AA?$DM?$AA?$DN?$AA?5?$AA3?$AA6?$AA?$AA@ 10076968     LIBCMTD:xtoas.obj
 0002:0000d99c       ??_C@_1CM@HABGDNLJ@?$AAl?$AAe?$AAn?$AAg?$AAt?$AAh?$AA?5?$AA?$DM?$AA?5?$AAs?$AAi?$AAz?$AAe?$AAI?$AAn?$AAT?$AAC?$AAh?$AAa?$AAr?$AAs?$AA?$AA@ 1007699c     LIBCMTD:xtoas.obj
 0002:0000d9c8       ??_C@_1BC@MJJNBNFN@?$AAx?$AA6?$AA4?$AAt?$AAo?$AAa?$AA_?$AAs?$AA?$AA@ 100769c8     LIBCMTD:xtoas.obj
 0002:0000d9dc       ??_C@_1BE@EEKACIGI@?$AAs?$AA?5?$AA?$CB?$AA?$DN?$AA?5?$AAN?$AAU?$AAL?$AAL?$AA?$AA@ 100769dc     LIBCMTD:mbstowcs.obj
 0002:0000d9f0       ??_C@_1GE@LCCDHBMH@?$AAf?$AA?3?$AA?2?$AAd?$AAd?$AA?2?$AAv?$AAc?$AAt?$AAo?$AAo?$AAl?$AAs?$AA?2?$AAc?$AAr?$AAt?$AA_?$AAb?$AAl?$AAd?$AA?2?$AAs?$AAe?$AAl?$AAf?$AA_?$AAx?$AA8?$AA6?$AA?2?$AAc@ 100769f0     LIBCMTD:mbstowcs.obj
 0002:0000da54       ??_C@_1CG@JEHFHLNG@?$AA_?$AAm?$AAb?$AAs?$AAt?$AAo?$AAw?$AAc?$AAs?$AA_?$AAl?$AA_?$AAh?$AAe?$AAl?$AAp?$AAe?$AAr?$AA?$AA@ 10076a54     LIBCMTD:mbstowcs.obj
 0002:0000da80       ??_C@_1JA@JKDFMOPO@?$AA?$CI?$AAp?$AAw?$AAc?$AAs?$AA?5?$AA?$DN?$AA?$DN?$AA?5?$AAN?$AAU?$AAL?$AAL?$AA?5?$AA?$CG?$AA?$CG?$AA?5?$AAs?$AAi?$AAz?$AAe?$AAI?$AAn?$AAW?$AAo?$AAr?$AAd?$AAs?$AA?5?$AA?$DN?$AA?$DN?$AA?5@ 10076a80     LIBCMTD:mbstowcs.obj
 0002:0000db10       ??_C@_1BM@PHENIGHD@?$AA_?$AAm?$AAb?$AAs?$AAt?$AAo?$AAw?$AAc?$AAs?$AA_?$AAs?$AA_?$AAl?$AA?$AA@ 10076b10     LIBCMTD:mbstowcs.obj
 0002:0000db2c       ??_C@_1CM@LLECFMFH@?$AAb?$AAu?$AAf?$AAf?$AAe?$AAr?$AAS?$AAi?$AAz?$AAe?$AA?5?$AA?$DM?$AA?$DN?$AA?5?$AAI?$AAN?$AAT?$AA_?$AAM?$AAA?$AAX?$AA?$AA@ 10076b2c     LIBCMTD:mbstowcs.obj
 0002:0000db58       ??_C@_1CO@JNPEPJAL@?$AAr?$AAe?$AAt?$AAs?$AAi?$AAz?$AAe?$AA?5?$AA?$DM?$AA?$DN?$AA?5?$AAs?$AAi?$AAz?$AAe?$AAI?$AAn?$AAW?$AAo?$AAr?$AAd?$AAs?$AA?$AA@ 10076b58     LIBCMTD:mbstowcs.obj
 0002:0000db88       ??_C@_1BK@OIBENBPM@?$AAp?$AAw?$AAc?$AAs?$AA?5?$AA?$CB?$AA?$DN?$AA?5?$AAN?$AAU?$AAL?$AAL?$AA?$AA@ 10076b88     LIBCMTD:wcstombs.obj
 0002:0000dba8       ??_C@_1GE@OAENIBOD@?$AAf?$AA?3?$AA?2?$AAd?$AAd?$AA?2?$AAv?$AAc?$AAt?$AAo?$AAo?$AAl?$AAs?$AA?2?$AAc?$AAr?$AAt?$AA_?$AAb?$AAl?$AAd?$AA?2?$AAs?$AAe?$AAl?$AAf?$AA_?$AAx?$AA8?$AA6?$AA?2?$AAc@ 10076ba8     LIBCMTD:wcstombs.obj
 0002:0000dc0c       ??_C@_1CG@LLJCAOHF@?$AA_?$AAw?$AAc?$AAs?$AAt?$AAo?$AAm?$AAb?$AAs?$AA_?$AAl?$AA_?$AAh?$AAe?$AAl?$AAp?$AAe?$AAr?$AA?$AA@ 10076c0c     LIBCMTD:wcstombs.obj
 0002:0000dc38       ??_C@_1IM@MFGKHGBP@?$AA?$CI?$AAd?$AAs?$AAt?$AA?5?$AA?$CB?$AA?$DN?$AA?5?$AAN?$AAU?$AAL?$AAL?$AA?5?$AA?$CG?$AA?$CG?$AA?5?$AAs?$AAi?$AAz?$AAe?$AAI?$AAn?$AAB?$AAy?$AAt?$AAe?$AAs?$AA?5?$AA?$DO?$AA?5?$AA0?$AA?$CJ@ 10076c38     LIBCMTD:wcstombs.obj
 0002:0000dcc4       ??_C@_1BM@BDMCLLDL@?$AA_?$AAw?$AAc?$AAs?$AAt?$AAo?$AAm?$AAb?$AAs?$AA_?$AAs?$AA_?$AAl?$AA?$AA@ 10076cc4     LIBCMTD:wcstombs.obj
 0002:0000dce0       ??_C@_1CM@KEOGBFLI@?$AAs?$AAi?$AAz?$AAe?$AAI?$AAn?$AAB?$AAy?$AAt?$AAe?$AAs?$AA?5?$AA?$DO?$AA?5?$AAr?$AAe?$AAt?$AAs?$AAi?$AAz?$AAe?$AA?$AA@ 10076ce0     LIBCMTD:wcstombs.obj
 0002:0000dd0c       ??_C@_1O@NCBFODOE@?$AAx?$AAt?$AAo?$AAw?$AA_?$AAs?$AA?$AA@ 10076d0c     LIBCMTD:xtows.obj
 0002:0000dd1c       ??_C@_1BC@HDEJCFPB@?$AAx?$AA6?$AA4?$AAt?$AAo?$AAw?$AA_?$AAs?$AA?$AA@ 10076d1c     LIBCMTD:xtows.obj
 0002:0000dd30       ?LocalIdBitWidth@CrossScopeId@CodeViewInfo@@2IB 10076d30     LIBCMTD:pdblkup.obj
 0002:0000dd34       ?IdScopeBitWidth@CrossScopeId@CodeViewInfo@@2IB 10076d34     LIBCMTD:pdblkup.obj
 0002:0000dd38       ?StartCrossScopeId@CrossScopeId@CodeViewInfo@@2IB 10076d38     LIBCMTD:pdblkup.obj
 0002:0000dd3c       ?LocalIdMask@CrossScopeId@CodeViewInfo@@2IB 10076d3c     LIBCMTD:pdblkup.obj
 0002:0000dd40       ?ScopeIdMask@CrossScopeId@CodeViewInfo@@2IB 10076d40     LIBCMTD:pdblkup.obj
 0002:0000dd44       ?MaxLocalId@CrossScopeId@CodeViewInfo@@2IB 10076d44     LIBCMTD:pdblkup.obj
 0002:0000dd48       ?MaxScopeId@CrossScopeId@CodeViewInfo@@2IB 10076d48     LIBCMTD:pdblkup.obj
 0002:0000dd84       ??_C@_0O@COHOBMLB@RegOpenKeyExW?$AA@ 10076d84     LIBCMTD:pdblkup.obj
 0002:0000dd94       ??_C@_0BB@GLNAEDBD@RegQueryValueExW?$AA@ 10076d94     LIBCMTD:pdblkup.obj
 0002:0000dda8       ??_C@_0M@HLOHPNFA@RegCloseKey?$AA@ 10076da8     LIBCMTD:pdblkup.obj
 0002:0000ddb8       ??_C@_1FM@OEMPKHJI@?$AAS?$AAO?$AAF?$AAT?$AAW?$AAA?$AAR?$AAE?$AA?2?$AAM?$AAi?$AAc?$AAr?$AAo?$AAs?$AAo?$AAf?$AAt?$AA?2?$AAV?$AAi?$AAs?$AAu?$AAa?$AAl?$AAS?$AAt?$AAu?$AAd?$AAi?$AAo?$AA?2@ 10076db8     LIBCMTD:pdblkup.obj
 0002:0000de14       ??_C@_1CK@HHHCOJPD@?$AAE?$AAn?$AAv?$AAi?$AAr?$AAo?$AAn?$AAm?$AAe?$AAn?$AAt?$AAD?$AAi?$AAr?$AAe?$AAc?$AAt?$AAo?$AAr?$AAy?$AA?$AA@ 10076e14     LIBCMTD:pdblkup.obj
 0002:0000de5c       ??_C@_1BC@MIBIBMGK@?$AAM?$AAS?$AAP?$AAD?$AAB?$AA1?$AA1?$AA0?$AA?$AA@ 10076e5c     LIBCMTD:pdblkup.obj
 0002:0000de70       ??_C@_0BB@KCIACLNC@PDBOpenValidate5?$AA@ 10076e70     LIBCMTD:pdblkup.obj
 0002:0000e010       ??_C@_08EHJDFFNH@__based?$CI?$AA@ 10077010     LIBCMTD:undname.obj
 0002:0000e01c       ??_C@_07KOLFKCDI@__cdecl?$AA@ 1007701c     LIBCMTD:undname.obj
 0002:0000e024       ??_C@_08GHMPAG@__pascal?$AA@ 10077024     LIBCMTD:undname.obj
 0002:0000e030       ??_C@_09IFJBGAPI@__stdcall?$AA@ 10077030     LIBCMTD:undname.obj
 0002:0000e03c       ??_C@_0L@NPHFGOKO@__thiscall?$AA@ 1007703c     LIBCMTD:undname.obj
 0002:0000e048       ??_C@_0L@JMKHOMEK@__fastcall?$AA@ 10077048     LIBCMTD:undname.obj
 0002:0000e054       ??_C@_09HIJEGCPM@__clrcall?$AA@ 10077054     LIBCMTD:undname.obj
 0002:0000e060       ??_C@_06GHPCKEAG@__eabi?$AA@ 10077060     LIBCMTD:undname.obj
 0002:0000e068       ??_C@_07JOMMBBKO@__ptr64?$AA@ 10077068     LIBCMTD:undname.obj
 0002:0000e070       ??_C@_0L@PILCLIHE@__restrict?$AA@ 10077070     LIBCMTD:undname.obj
 0002:0000e07c       ??_C@_0M@GFIIJFMG@__unaligned?$AA@ 1007707c     LIBCMTD:undname.obj
 0002:0000e088       ??_C@_09DHDLOLLB@restrict?$CI?$AA@ 10077088     LIBCMTD:undname.obj
 0002:0000e094       ??_C@_04NIHEBCM@?5new?$AA@ 10077094     LIBCMTD:undname.obj
 0002:0000e09c       ??_C@_07FPCDHGMM@?5delete?$AA@ 1007709c     LIBCMTD:undname.obj
 0002:0000e0a4       ??_C@_01NEMOKFLO@?$DN?$AA@ 100770a4     LIBCMTD:undname.obj
 0002:0000e0a8       ??_C@_02GPIOPFAK@?$DO?$DO?$AA@ 100770a8     LIBCMTD:undname.obj
 0002:0000e0ac       ??_C@_02FODMEDOG@?$DM?$DM?$AA@ 100770ac     LIBCMTD:undname.obj
 0002:0000e0b0       ??_C@_01DCLJPIOD@?$CB?$AA@ 100770b0     LIBCMTD:undname.obj
 0002:0000e0b4       ??_C@_02EGOFBIJA@?$DN?$DN?$AA@ 100770b4     LIBCMTD:undname.obj
 0002:0000e0b8       ??_C@_02FDNJECIE@?$CB?$DN?$AA@ 100770b8     LIBCMTD:undname.obj
 0002:0000e0bc       ??_C@_02GPECMEKF@?$FL?$FN?$AA@ 100770bc     LIBCMTD:undname.obj
 0002:0000e0c0       ??_C@_08LHJFAFGD@operator?$AA@ 100770c0     LIBCMTD:undname.obj
 0002:0000e0cc       ??_C@_02HBOOOICD@?9?$DO?$AA@ 100770cc     LIBCMTD:undname.obj
 0002:0000e0d0       ??_C@_01NBENCBCI@?$CK?$AA@ 100770d0     LIBCMTD:undname.obj
 0002:0000e0d4       ??_C@_02ECNGHCIF@?$CL?$CL?$AA@ 100770d4     LIBCMTD:undname.obj
 0002:0000e0d8       ??_C@_02BAABKJLB@?9?9?$AA@ 100770d8     LIBCMTD:undname.obj
 0002:0000e0dc       ??_C@_01JOAMLHOP@?9?$AA@   100770dc     LIBCMTD:undname.obj
 0002:0000e0e0       ??_C@_01HNPIGOCE@?$CG?$AA@ 100770e0     LIBCMTD:undname.obj
 0002:0000e0e4       ??_C@_03MNHNFDLC@?9?$DO?$CK?$AA@ 100770e4     LIBCMTD:undname.obj
 0002:0000e0e8       ??_C@_01KMDKNFGN@?1?$AA@   100770e8     LIBCMTD:undname.obj
 0002:0000e0ec       ??_C@_01FGNFDNOH@?$CF?$AA@ 100770ec     LIBCMTD:undname.obj
 0002:0000e0f0       ??_C@_01MNNFJEPP@?$DM?$AA@ 100770f0     LIBCMTD:undname.obj
 0002:0000e0f4       ??_C@_02EHCHHCKH@?$DM?$DN?$AA@ 100770f4     LIBCMTD:undname.obj
 0002:0000e0f8       ??_C@_01PPODPGHN@?$DO?$AA@ 100770f8     LIBCMTD:undname.obj
 0002:0000e0fc       ??_C@_02EEKDKGMJ@?$DO?$DN?$AA@ 100770fc     LIBCMTD:undname.obj
 0002:0000e100       ??_C@_01IHBHIGKO@?0?$AA@   10077100     LIBCMTD:undname.obj
 0002:0000e104       ??_C@_02HCKGKOFO@?$CI?$CJ?$AA@ 10077104     LIBCMTD:undname.obj
 0002:0000e108       ??_C@_01PJKLJHI@?$HO?$AA@  10077108     LIBCMTD:undname.obj
 0002:0000e10c       ??_C@_01JKBOJNNK@?$FO?$AA@ 1007710c     LIBCMTD:undname.obj
 0002:0000e110       ??_C@_01DNKMNLPK@?$HM?$AA@ 10077110     LIBCMTD:undname.obj
 0002:0000e114       ??_C@_02PPKAJPJL@?$CG?$CG?$AA@ 10077114     LIBCMTD:undname.obj
 0002:0000e118       ??_C@_02NONPIBCD@?$HM?$HM?$AA@ 10077118     LIBCMTD:undname.obj
 0002:0000e11c       ??_C@_02FPIMKNGF@?$CK?$DN?$AA@ 1007711c     LIBCMTD:undname.obj
 0002:0000e120       ??_C@_02FOEOMHFC@?$CL?$DN?$AA@ 10077120     LIBCMTD:undname.obj
 0002:0000e124       ??_C@_02FKMDLLOA@?9?$DN?$AA@ 10077124     LIBCMTD:undname.obj
 0002:0000e128       ??_C@_02FJEHGPIO@?1?$DN?$AA@ 10077128     LIBCMTD:undname.obj
 0002:0000e12c       ??_C@_02FENAOKFI@?$CF?$DN?$AA@ 1007712c     LIBCMTD:undname.obj
 0002:0000e130       ??_C@_03IKFCCPFF@?$DO?$DO?$DN?$AA@ 10077130     LIBCMTD:undname.obj
 0002:0000e134       ??_C@_03CDNPDDLA@?$DM?$DM?$DN?$AA@ 10077134     LIBCMTD:undname.obj
 0002:0000e138       ??_C@_02FGJGFEAB@?$CG?$DN?$AA@ 10077138     LIBCMTD:undname.obj
 0002:0000e13c       ??_C@_02DHLNPPGH@?$HM?$DN?$AA@ 1007713c     LIBCMTD:undname.obj
 0002:0000e140       ??_C@_02MHEGNOJ@?$FO?$DN?$AA@ 10077140     LIBCMTD:undname.obj
 0002:0000e144       ??_C@_09IFPLHPGF@?$GAvftable?8?$AA@ 10077144     LIBCMTD:undname.obj
 0002:0000e150       ??_C@_09BLBHBJP@?$GAvbtable?8?$AA@ 10077150     LIBCMTD:undname.obj
 0002:0000e15c       ??_C@_07FEEIOKP@?$GAvcall?8?$AA@ 1007715c     LIBCMTD:undname.obj
 0002:0000e164       ??_C@_08LLFFHHDJ@?$GAtypeof?8?$AA@ 10077164     LIBCMTD:undname.obj
 0002:0000e170       ??_C@_0BF@KDPPACIK@?$GAlocal?5static?5guard?8?$AA@ 10077170     LIBCMTD:undname.obj
 0002:0000e188       ??_C@_08OBABFOLI@?$GAstring?8?$AA@ 10077188     LIBCMTD:undname.obj
 0002:0000e194       ??_C@_0BD@JDLKDPAB@?$GAvbase?5destructor?8?$AA@ 10077194     LIBCMTD:undname.obj
 0002:0000e1a8       ??_C@_0BN@DEGPLNFK@?$GAvector?5deleting?5destructor?8?$AA@ 100771a8     LIBCMTD:undname.obj
 0002:0000e1c8       ??_C@_0BO@OBMKPJIG@?$GAdefault?5constructor?5closure?8?$AA@ 100771c8     LIBCMTD:undname.obj
 0002:0000e1e8       ??_C@_0BN@IMDCHIKM@?$GAscalar?5deleting?5destructor?8?$AA@ 100771e8     LIBCMTD:undname.obj
 0002:0000e208       ??_C@_0BO@PFGOCPJJ@?$GAvector?5constructor?5iterator?8?$AA@ 10077208     LIBCMTD:undname.obj
 0002:0000e228       ??_C@_0BN@LFPFMEDL@?$GAvector?5destructor?5iterator?8?$AA@ 10077228     LIBCMTD:undname.obj
 0002:0000e248       ??_C@_0CE@IKBNEHA@?$GAvector?5vbase?5constructor?5iterat@ 10077248     LIBCMTD:undname.obj
 0002:0000e26c       ??_C@_0BL@NILFHHPC@?$GAvirtual?5displacement?5map?8?$AA@ 1007726c     LIBCMTD:undname.obj
 0002:0000e288       ??_C@_0CB@JONCMFFK@?$GAeh?5vector?5constructor?5iterator?8@ 10077288     LIBCMTD:undname.obj
 0002:0000e2ac       ??_C@_0CA@GCEOPDGL@?$GAeh?5vector?5destructor?5iterator?8?$AA@ 100772ac     LIBCMTD:undname.obj
 0002:0000e2cc       ??_C@_0CH@OOJPLCPH@?$GAeh?5vector?5vbase?5constructor?5ite@ 100772cc     LIBCMTD:undname.obj
 0002:0000e2f4       ??_C@_0BL@LLKPOHJI@?$GAcopy?5constructor?5closure?8?$AA@ 100772f4     LIBCMTD:undname.obj
 0002:0000e310       ??_C@_0BA@KBCDOMBN@?$GAudt?5returning?8?$AA@ 10077310     LIBCMTD:undname.obj
 0002:0000e320       ??_C@_03KLGMFNMG@?$GAEH?$AA@ 10077320     LIBCMTD:undname.obj
 0002:0000e324       ??_C@_05KHLCHHI@?$GARTTI?$AA@ 10077324     LIBCMTD:undname.obj
 0002:0000e32c       ??_C@_0BA@KKLDJDLB@?$GAlocal?5vftable?8?$AA@ 1007732c     LIBCMTD:undname.obj
 0002:0000e33c       ??_C@_0CE@IIHCMGGL@?$GAlocal?5vftable?5constructor?5closu@ 1007733c     LIBCMTD:undname.obj
 0002:0000e360       ??_C@_06FHBGPFGH@?5new?$FL?$FN?$AA@ 10077360     LIBCMTD:undname.obj
 0002:0000e368       ??_C@_09LBNFPBCA@?5delete?$FL?$FN?$AA@ 10077368     LIBCMTD:undname.obj
 0002:0000e374       ??_C@_0P@HJKNJFNN@?$GAomni?5callsig?8?$AA@ 10077374     LIBCMTD:undname.obj
 0002:0000e384       ??_C@_0BL@CNOONJFP@?$GAplacement?5delete?5closure?8?$AA@ 10077384     LIBCMTD:undname.obj
 0002:0000e3a0       ??_C@_0BN@CKNJLHMB@?$GAplacement?5delete?$FL?$FN?5closure?8?$AA@ 100773a0     LIBCMTD:undname.obj
 0002:0000e3c0       ??_C@_0CG@CFDHKGGD@?$GAmanaged?5vector?5constructor?5iter@ 100773c0     LIBCMTD:undname.obj
 0002:0000e3e8       ??_C@_0CF@IMGKMJNO@?$GAmanaged?5vector?5destructor?5itera@ 100773e8     LIBCMTD:undname.obj
 0002:0000e410       ??_C@_0CG@HLDDJMAG@?$GAeh?5vector?5copy?5constructor?5iter@ 10077410     LIBCMTD:undname.obj
 0002:0000e438       ??_C@_0CM@FCBBDIGB@?$GAeh?5vector?5vbase?5copy?5constructo@ 10077438     LIBCMTD:undname.obj
 0002:0000e464       ??_C@_0BL@CLIPGLGB@?$GAdynamic?5initializer?5for?5?8?$AA@ 10077464     LIBCMTD:undname.obj
 0002:0000e480       ??_C@_0CB@PDBIFEP@?$GAdynamic?5atexit?5destructor?5for?5?8@ 10077480     LIBCMTD:undname.obj
 0002:0000e4a4       ??_C@_0CD@CGAJBKEJ@?$GAvector?5copy?5constructor?5iterato@ 100774a4     LIBCMTD:undname.obj
 0002:0000e4c8       ??_C@_0CJ@GJELGAMM@?$GAvector?5vbase?5copy?5constructor?5i@ 100774c8     LIBCMTD:undname.obj
 0002:0000e4f4       ??_C@_0CL@FGIJHLCE@?$GAmanaged?5vector?5copy?5constructor@ 100774f4     LIBCMTD:undname.obj
 0002:0000e520       ??_C@_0BM@PMGGMLDN@?$GAlocal?5static?5thread?5guard?8?$AA@ 10077520     LIBCMTD:undname.obj
 0002:0000e53c       ??_C@_0BC@DAFEJGAK@?5Type?5Descriptor?8?$AA@ 1007753c     LIBCMTD:undname.obj
 0002:0000e550       ??_C@_0BM@LDKODKLH@?5Base?5Class?5Descriptor?5at?5?$CI?$AA@ 10077550     LIBCMTD:undname.obj
 0002:0000e56c       ??_C@_0BD@LGICGFMM@?5Base?5Class?5Array?8?$AA@ 1007756c     LIBCMTD:undname.obj
 0002:0000e580       ??_C@_0BN@MECKDCOJ@?5Class?5Hierarchy?5Descriptor?8?$AA@ 10077580     LIBCMTD:undname.obj
 0002:0000e5a0       ??_C@_0BK@CFCOFLF@?5Complete?5Object?5Locator?8?$AA@ 100775a0     LIBCMTD:undname.obj
 0002:0000e5bc       ??_C@_04HEJADOOB@CV?3?5?$AA@ 100775bc     LIBCMTD:undname.obj
 0002:0000e5c4       ??_C@_02MOLJINC@?3?3?$AA@  100775c4     LIBCMTD:undname.obj
 0002:0000e5c8       ??_C@_0BE@JAEOCHPE@template?9parameter?9?$AA@ 100775c8     LIBCMTD:undname.obj
 0002:0000e5dc       ??_C@_0O@KHGCOMHP@generic?9type?9?$AA@ 100775dc     LIBCMTD:undname.obj
 0002:0000e5ec       ??_C@_01NLNLIGKH@?$GA?$AA@ 100775ec     LIBCMTD:undname.obj
 0002:0000e5f0       ??_C@_01GEODFPGF@?8?$AA@   100775f0     LIBCMTD:undname.obj
 0002:0000e5f4       ??_C@_0BG@JNJLAMPM@?$GAanonymous?5namespace?8?$AA@ 100775f4     LIBCMTD:undname.obj
 0002:0000e60c       ??_C@_02OHHJMEON@?8?8?$AA@ 1007760c     LIBCMTD:undname.obj
 0002:0000e610       ??_C@_0BN@IBLMMFAP@?$GAnon?9type?9template?9parameter?$AA@ 10077610     LIBCMTD:undname.obj
 0002:0000e630       ??_C@_04GKJNKENE@void?$AA@ 10077630     LIBCMTD:undname.obj
 0002:0000e638       ??_C@_0BE@EODMJLIF@?$GAtemplate?9parameter?$AA@ 10077638     LIBCMTD:undname.obj
 0002:0000e64c       ??_C@_04HIBGFPH@NULL?$AA@  1007764c     LIBCMTD:undname.obj
 0002:0000e654       ??_C@_03OPGICMGF@?$HN?8?5?$AA@ 10077654     LIBCMTD:undname.obj
 0002:0000e658       ??_C@_02IGFCGPIL@?$HN?8?$AA@ 10077658     LIBCMTD:undname.obj
 0002:0000e65c       ??_C@_01CLKCMJKC@?5?$AA@   1007765c     LIBCMTD:undname.obj
 0002:0000e660       ??_C@_0N@CBHHHENL@?$GAvtordispex?$HL?$AA@ 10077660     LIBCMTD:undname.obj
 0002:0000e670       ??_C@_0L@GHPFDFH@?$GAvtordisp?$HL?$AA@ 10077670     LIBCMTD:undname.obj
 0002:0000e67c       ??_C@_0L@HNGCOGAE@?$GAadjustor?$HL?$AA@ 1007767c     LIBCMTD:undname.obj
 0002:0000e688       ??_C@_0CB@KJDOOODE@?$GAlocal?5static?5destructor?5helper?8@ 10077688     LIBCMTD:undname.obj
 0002:0000e6ac       ??_C@_0DB@ILEFOCIJ@?$GAtemplate?5static?5data?5member?5con@ 100776ac     LIBCMTD:undname.obj
 0002:0000e6e0       ??_C@_0DA@HGFJFBBE@?$GAtemplate?5static?5data?5member?5des@ 100776e0     LIBCMTD:undname.obj
 0002:0000e710       ??_C@_07PGOEDBHP@static?5?$AA@ 10077710     LIBCMTD:undname.obj
 0002:0000e718       ??_C@_08NIEOINHE@virtual?5?$AA@ 10077718     LIBCMTD:undname.obj
 0002:0000e724       ??_C@_09LAPHOOG@private?3?5?$AA@ 10077724     LIBCMTD:undname.obj
 0002:0000e730       ??_C@_0M@GAIFPFIP@protected?3?5?$AA@ 10077730     LIBCMTD:undname.obj
 0002:0000e73c       ??_C@_08GPDDCMKI@public?3?5?$AA@ 1007773c     LIBCMTD:undname.obj
 0002:0000e748       ??_C@_08KJLFOPNE@?$FLthunk?$FN?3?$AA@ 10077748     LIBCMTD:undname.obj
 0002:0000e754       ??_C@_0M@DHNBOJMP@extern?5?$CCC?$CC?5?$AA@ 10077754     LIBCMTD:undname.obj
 0002:0000e760       ??_C@_02KCKGHPCA@?$CJ?5?$AA@ 10077760     LIBCMTD:undname.obj
 0002:0000e764       ??_C@_05CIHEBHNO@char?5?$AA@ 10077764     LIBCMTD:undname.obj
 0002:0000e76c       ??_C@_06EHJMALKF@short?5?$AA@ 1007776c     LIBCMTD:undname.obj
 0002:0000e774       ??_C@_04LAHKHJMA@int?5?$AA@ 10077774     LIBCMTD:undname.obj
 0002:0000e77c       ??_C@_05CJIMAING@long?5?$AA@ 1007777c     LIBCMTD:undname.obj
 0002:0000e784       ??_C@_09EBBEKKIH@unsigned?5?$AA@ 10077784     LIBCMTD:undname.obj
 0002:0000e790       ??_C@_05BEFAKPML@void?5?$AA@ 10077790     LIBCMTD:undname.obj
 0002:0000e798       ??_C@_08PABEKFH@volatile?$AA@ 10077798     LIBCMTD:undname.obj
 0002:0000e7a4       ??_C@_0P@GCOCNKDM@std?3?3nullptr_t?$AA@ 100777a4     LIBCMTD:undname.obj
 0002:0000e7b4       ??_C@_0L@EGPHHEKN@?$DMellipsis?$DO?$AA@ 100777b4     LIBCMTD:undname.obj
 0002:0000e7c0       ??_C@_04EENFHACM@?0?4?4?4?$AA@ 100777c0     LIBCMTD:undname.obj
 0002:0000e7c8       ??_C@_0M@ELJOJFFH@?0?$DMellipsis?$DO?$AA@ 100777c8     LIBCMTD:undname.obj
 0002:0000e7d4       ??_C@_07HDJPLPEK@?5throw?$CI?$AA@ 100777d4     LIBCMTD:undname.obj
 0002:0000e7dc       ??_C@_03PBJBJNON@cpu?$AA@  100777dc     LIBCMTD:undname.obj
 0002:0000e7e0       ??_C@_03DCBBJBAA@amp?$AA@  100777e0     LIBCMTD:undname.obj
 0002:0000e7e4       ??_C@_02KEGNLNML@?0?5?$AA@ 100777e4     LIBCMTD:undname.obj
 0002:0000e7e8       ??_C@_04ENMBGAPA@char?$AA@ 100777e8     LIBCMTD:undname.obj
 0002:0000e7f0       ??_C@_05BFKKPKCG@short?$AA@ 100777f0     LIBCMTD:undname.obj
 0002:0000e7f8       ??_C@_03JBIPMCLC@int?$AA@  100777f8     LIBCMTD:undname.obj
 0002:0000e7fc       ??_C@_04GOKPGOLB@long?$AA@ 100777fc     LIBCMTD:undname.obj
 0002:0000e804       ??_C@_05KNFBNCOH@float?$AA@ 10077804     LIBCMTD:undname.obj
 0002:0000e80c       ??_C@_06BNJCAIGJ@double?$AA@ 1007780c     LIBCMTD:undname.obj
 0002:0000e814       ??_C@_04DDKJGDCM@bool?$AA@ 10077814     LIBCMTD:undname.obj
 0002:0000e81c       ??_C@_06EBGKOKIG@__int8?$AA@ 1007781c     LIBCMTD:undname.obj
 0002:0000e824       ??_C@_07ICFHOGAF@__int16?$AA@ 10077824     LIBCMTD:undname.obj
 0002:0000e82c       ??_C@_07OFLPPHGP@__int32?$AA@ 1007782c     LIBCMTD:undname.obj
 0002:0000e834       ??_C@_07LFCOJCAC@__int64?$AA@ 10077834     LIBCMTD:undname.obj
 0002:0000e83c       ??_C@_08GAHOLHEO@__int128?$AA@ 1007783c     LIBCMTD:undname.obj
 0002:0000e848       ??_C@_09EEKGDCPH@?$DMunknown?$DO?$AA@ 10077848     LIBCMTD:undname.obj
 0002:0000e854       ??_C@_07CLGGIAMF@wchar_t?$AA@ 10077854     LIBCMTD:undname.obj
 0002:0000e85c       ??_C@_06GCICPBLB@__w64?5?$AA@ 1007785c     LIBCMTD:undname.obj
 0002:0000e864       ??_C@_07NFANNNEC@UNKNOWN?$AA@ 10077864     LIBCMTD:undname.obj
 0002:0000e86c       ??_C@_07EDHNAJHC@signed?5?$AA@ 1007786c     LIBCMTD:undname.obj
 0002:0000e874       ??_C@_05BNCCCJPP@const?$AA@ 10077874     LIBCMTD:undname.obj
 0002:0000e87c       ??_C@_09EFNPDFFP@?5volatile?$AA@ 1007787c     LIBCMTD:undname.obj
 0002:0000e888       ??_C@_0P@GCIFDJCJ@?$GAunknown?5ecsu?8?$AA@ 10077888     LIBCMTD:undname.obj
 0002:0000e898       ??_C@_06MOJHIBMG@union?5?$AA@ 10077898     LIBCMTD:undname.obj
 0002:0000e8a0       ??_C@_07DIBCDNGL@struct?5?$AA@ 100778a0     LIBCMTD:undname.obj
 0002:0000e8a8       ??_C@_06LJBABKPM@class?5?$AA@ 100778a8     LIBCMTD:undname.obj
 0002:0000e8b0       ??_C@_08KOFANOFK@coclass?5?$AA@ 100778b0     LIBCMTD:undname.obj
 0002:0000e8bc       ??_C@_0N@DLIEFKNA@cointerface?5?$AA@ 100778bc     LIBCMTD:undname.obj
 0002:0000e8cc       ??_C@_05LJGMCFOG@enum?5?$AA@ 100778cc     LIBCMTD:undname.obj
 0002:0000e8d4       ??_C@_09GAIEOBLP@volatile?5?$AA@ 100778d4     LIBCMTD:undname.obj
 0002:0000e8e0       ??_C@_06LIJLOJAG@const?5?$AA@ 100778e0     LIBCMTD:undname.obj
 0002:0000e8e8       ??_C@_0M@EALIELKG@cli?3?3array?$DM?$AA@ 100778e8     LIBCMTD:undname.obj
 0002:0000e8f4       ??_C@_0O@GKABPPIF@cli?3?3pin_ptr?$DM?$AA@ 100778f4     LIBCMTD:undname.obj
 0002:0000e904       ??_C@_02GOGNNPBN@?$CJ?$FL?$AA@ 10077904     LIBCMTD:undname.obj
 0002:0000e908       ??_C@_06EEGAIFAK@?$HLflat?$HN?$AA@ 10077908     LIBCMTD:undname.obj
 0002:0000e910       ??_C@_05JIBOFOHK@?$HLfor?5?$AA@ 10077910     LIBCMTD:undname.obj
 0002:0000e918       ??_C@_02MDINNEEG@s?5?$AA@  10077918     LIBCMTD:undname.obj
 0002:0000e920       ??_7DNameNode@@6B@         10077920     LIBCMTD:undname.obj
 0002:0000e930       ??_7charNode@@6B@          10077930     LIBCMTD:undname.obj
 0002:0000e940       ??_7pcharNode@@6B@         10077940     LIBCMTD:undname.obj
 0002:0000e950       ??_7pDNameNode@@6B@        10077950     LIBCMTD:undname.obj
 0002:0000e960       ??_7DNameStatusNode@@6B@   10077960     LIBCMTD:undname.obj
 0002:0000e970       ??_7pairNode@@6B@          10077970     LIBCMTD:undname.obj
 0002:0000e97c       ??_C@_04OKOHEJBO@?5?$DP?$DP?5?$AA@ 1007797c     LIBCMTD:undname.obj
 0002:0000e988       ??_C@_1GE@BDKOPHIO@?$AAf?$AA?3?$AA?2?$AAd?$AAd?$AA?2?$AAv?$AAc?$AAt?$AAo?$AAo?$AAl?$AAs?$AA?2?$AAc?$AAr?$AAt?$AA_?$AAb?$AAl?$AAd?$AA?2?$AAs?$AAe?$AAl?$AAf?$AA_?$AAx?$AA8?$AA6?$AA?2?$AAc@ 10077988     LIBCMTD:_fptostr.obj
 0002:0000e9ec       ??_C@_1BC@OPALLEB@?$AA_?$AAf?$AAp?$AAt?$AAo?$AAs?$AAt?$AAr?$AA?$AA@ 100779ec     LIBCMTD:_fptostr.obj
 0002:0000ea00       ??_C@_1GM@CEDLGDDI@?$AAs?$AAi?$AAz?$AAe?$AAI?$AAn?$AAB?$AAy?$AAt?$AAe?$AAs?$AA?5?$AA?$DO?$AA?5?$AA?$CI?$AAs?$AAi?$AAz?$AAe?$AA_?$AAt?$AA?$CJ?$AA?$CI?$AA?$CI?$AAd?$AAi?$AAg?$AAi?$AAt?$AAs?$AA?5?$AA?$DO@ 10077a00     LIBCMTD:_fptostr.obj
 0002:0000ea6c       ??_C@_1BK@CLIEHFDF@?$AAp?$AAf?$AAl?$AAt?$AA?5?$AA?$CB?$AA?$DN?$AA?5?$AAN?$AAU?$AAL?$AAL?$AA?$AA@ 10077a6c     LIBCMTD:_fptostr.obj
 0002:0000ea88       ??_C@_1HC@PKFDNKN@?$AAf?$AA?3?$AA?2?$AAd?$AAd?$AA?2?$AAv?$AAc?$AAt?$AAo?$AAo?$AAl?$AAs?$AA?2?$AAc?$AAr?$AAt?$AA_?$AAb?$AAl?$AAd?$AA?2?$AAs?$AAe?$AAl?$AAf?$AA_?$AAx?$AA8?$AA6?$AA?2?$AAc@ 10077a88     LIBCMTD:cfout.obj
 0002:0000eafc       ??_C@_1BC@BPMMEHLK@?$AA_?$AAf?$AAl?$AAt?$AAo?$AAu?$AAt?$AA2?$AA?$AA@ 10077afc     LIBCMTD:cfout.obj
 0002:0000eb10       ??_C@_1FK@KODCOBKF@?$AAs?$AAt?$AAr?$AAc?$AAp?$AAy?$AA_?$AAs?$AA?$CI?$AAr?$AAe?$AAs?$AAu?$AAl?$AAt?$AAs?$AAt?$AAr?$AA?0?$AA?5?$AAr?$AAe?$AAs?$AAu?$AAl?$AAt?$AAs?$AAi?$AAz?$AAe?$AA?0?$AA?5@ 10077b10     LIBCMTD:cfout.obj
 0002:0000eb70       ??_C@_1EM@EGEEBJLG@?$AA?$CI?$AAo?$AAp?$AAt?$AAi?$AAo?$AAn?$AAs?$AA?5?$AA?$CG?$AA?5?$AA?$HO?$AA_?$AAT?$AAW?$AAO?$AA_?$AAD?$AAI?$AAG?$AAI?$AAT?$AA_?$AAE?$AAX?$AAP?$AAO?$AAN?$AAE?$AAN?$AAT?$AA?$CJ@ 10077b70     LIBCMTD:outputformat.obj
 0002:0000ebc0       ??_C@_1GM@NFGGJJCM@?$AAf?$AA?3?$AA?2?$AAd?$AAd?$AA?2?$AAv?$AAc?$AAt?$AAo?$AAo?$AAl?$AAs?$AA?2?$AAc?$AAr?$AAt?$AA_?$AAb?$AAl?$AAd?$AA?2?$AAs?$AAe?$AAl?$AAf?$AA_?$AAx?$AA8?$AA6?$AA?2?$AAc@ 10077bc0     LIBCMTD:outputformat.obj
 0002:0000ec2c       ??_C@_1CG@EBJECAJM@?$AA_?$AAs?$AAe?$AAt?$AA_?$AAo?$AAu?$AAt?$AAp?$AAu?$AAt?$AA_?$AAf?$AAo?$AAr?$AAm?$AAa?$AAt?$AA?$AA@ 10077c2c     LIBCMTD:outputformat.obj
 0002:0000ec54       ??_C@_1DG@JNDMIEJL@?$AA?$CI?$AA?$CC?$AAI?$AAn?$AAv?$AAa?$AAl?$AAi?$AAd?$AA?5?$AAi?$AAn?$AAp?$AAu?$AAt?$AA?5?$AAv?$AAa?$AAl?$AAu?$AAe?$AA?$CC?$AA?0?$AA?5?$AA0?$AA?$CJ?$AA?$AA@ 10077c54     LIBCMTD:contrlfp.obj
 0002:0000ec90       ??_C@_1HI@JIOCECAH@?$AAf?$AA?3?$AA?2?$AAd?$AAd?$AA?2?$AAv?$AAc?$AAt?$AAo?$AAo?$AAl?$AAs?$AA?2?$AAc?$AAr?$AAt?$AA_?$AAb?$AAl?$AAd?$AA?2?$AAs?$AAe?$AAl?$AAf?$AA_?$AAx?$AA8?$AA6?$AA?2?$AAc@ 10077c90     LIBCMTD:contrlfp.obj
 0002:0000ed08       ??_C@_1BK@CDOALEA@?$AA_?$AAc?$AAo?$AAn?$AAt?$AAr?$AAo?$AAl?$AAf?$AAp?$AA_?$AAs?$AA?$AA@ 10077d08     LIBCMTD:contrlfp.obj
 0002:0000ed28       ??_C@_1GA@LHEGHOAF@?$AAf?$AA?3?$AA?2?$AAd?$AAd?$AA?2?$AAv?$AAc?$AAt?$AAo?$AAo?$AAl?$AAs?$AA?2?$AAc?$AAr?$AAt?$AA_?$AAb?$AAl?$AAd?$AA?2?$AAs?$AAe?$AAl?$AAf?$AA_?$AAx?$AA8?$AA6?$AA?2?$AAc@ 10077d28     LIBCMTD:printf.obj
 0002:0000ed88       ??_C@_1O@GKDHFACN@?$AAp?$AAr?$AAi?$AAn?$AAt?$AAf?$AA?$AA@ 10077d88     LIBCMTD:printf.obj
 0002:0000ed98       ??_C@_1CO@HFMIILNF@?$AAs?$AAi?$AAz?$AAe?$AAI?$AAn?$AAB?$AAy?$AAt?$AAe?$AAs?$AA?5?$AA?$DM?$AA?$DN?$AA?5?$AAI?$AAN?$AAT?$AA_?$AAM?$AAA?$AAX?$AA?$AA@ 10077d98     LIBCMTD:wctomb.obj
 0002:0000edc8       ??_C@_1GA@LDLHPOO@?$AAf?$AA?3?$AA?2?$AAd?$AAd?$AA?2?$AAv?$AAc?$AAt?$AAo?$AAo?$AAl?$AAs?$AA?2?$AAc?$AAr?$AAt?$AA_?$AAb?$AAl?$AAd?$AA?2?$AAs?$AAe?$AAl?$AAf?$AA_?$AAx?$AA8?$AA6?$AA?2?$AAc@ 10077dc8     LIBCMTD:wctomb.obj
 0002:0000ee28       ??_C@_1BI@IEADNOHF@?$AA_?$AAw?$AAc?$AAt?$AAo?$AAm?$AAb?$AA_?$AAs?$AA_?$AAl?$AA?$AA@ 10077e28     LIBCMTD:wctomb.obj
 0002:0000ee40       ??_C@_1BI@KANOLAMF@?$AA_?$AAo?$AAu?$AAt?$AAp?$AAu?$AAt?$AA_?$AAp?$AA_?$AAl?$AA?$AA@ 10077e40     LIBCMTD:outputp.obj
 0002:0000ee58       ??_C@_1JC@PFJNKEIO@?$AA?$CI?$AA?$CI?$AAt?$AAy?$AAp?$AAe?$AA_?$AAp?$AAo?$AAs?$AA?5?$AA?$DO?$AA?$DN?$AA?5?$AA0?$AA?$CJ?$AA?5?$AA?$CG?$AA?$CG?$AA?5?$AA?$CI?$AA?$CK?$AAe?$AAn?$AAd?$AA_?$AAp?$AAo?$AAs?$AA?5?$AA?$DN?$AA?$DN@ 10077e58     LIBCMTD:outputp.obj
 0002:0000eef0       ??_C@_1EE@DMAIGNBG@?$AA?$CI?$AA?$CC?$AAI?$AAn?$AAc?$AAo?$AAr?$AAr?$AAe?$AAc?$AAt?$AA?5?$AAf?$AAo?$AAr?$AAm?$AAa?$AAt?$AA?5?$AAs?$AAp?$AAe?$AAc?$AAi?$AAf?$AAi?$AAe?$AAr?$AA?$CC?$AA?0?$AA?5?$AA0@ 10077ef0     LIBCMTD:outputp.obj
 0002:0000ef38       ??_C@_1JE@NMBHOLFI@?$AA?$CI?$AA?$CI?$AAw?$AAi?$AAd?$AAt?$AAh?$AA_?$AAp?$AAo?$AAs?$AA?5?$AA?$DO?$AA?$DN?$AA?5?$AA0?$AA?$CJ?$AA?5?$AA?$CG?$AA?$CG?$AA?5?$AA?$CI?$AA?$CK?$AAe?$AAn?$AAd?$AA_?$AAp?$AAo?$AAs?$AA?5?$AA?$DN@ 10077f38     LIBCMTD:outputp.obj
 0002:0000efd0       ??_C@_1II@PIPIMLPF@?$AA_?$AAt?$AAv?$AAa?$AAl?$AAi?$AAd?$AAa?$AAt?$AAe?$AA_?$AAp?$AAa?$AAr?$AAa?$AAm?$AA_?$AAr?$AAe?$AAu?$AAs?$AAe?$AA?$CI?$AA?$CG?$AAp?$AAo?$AAs?$AA_?$AAv?$AAa?$AAl?$AAu@ 10077fd0     LIBCMTD:outputp.obj
 0002:0000f058       ??_C@_1JG@JBJBOCFB@?$AA?$CI?$AA?$CI?$AAp?$AAr?$AAe?$AAc?$AAi?$AAs?$AA_?$AAp?$AAo?$AAs?$AA?5?$AA?$DO?$AA?$DN?$AA?5?$AA0?$AA?$CJ?$AA?5?$AA?$CG?$AA?$CG?$AA?5?$AA?$CI?$AA?$CK?$AAe?$AAn?$AAd?$AA_?$AAp?$AAo?$AAs?$AA?5@ 10078058     LIBCMTD:outputp.obj
 0002:0000f0f0       ??_C@_1IK@EIEPDKHJ@?$AA_?$AAt?$AAv?$AAa?$AAl?$AAi?$AAd?$AAa?$AAt?$AAe?$AA_?$AAp?$AAa?$AAr?$AAa?$AAm?$AA_?$AAr?$AAe?$AAu?$AAs?$AAe?$AA?$CI?$AA?$CG?$AAp?$AAo?$AAs?$AA_?$AAv?$AAa?$AAl?$AAu@ 100780f0     LIBCMTD:outputp.obj
 0002:0000f180       ??_C@_1EM@BNPHBBIA@?$AA?$CI?$AA?$CI?$AAt?$AAy?$AAp?$AAe?$AA_?$AAp?$AAo?$AAs?$AA?$DO?$AA?$DN?$AA0?$AA?$CJ?$AA?5?$AA?$CG?$AA?$CG?$AA?5?$AA?$CI?$AAt?$AAy?$AAp?$AAe?$AA_?$AAp?$AAo?$AAs?$AA?$DM?$AA_?$AAA?$AAR?$AAG@ 10078180     LIBCMTD:outputp.obj
 0002:0000f1d0       ??_C@_1IK@MHEDJAMK@?$AA_?$AAt?$AAv?$AAa?$AAl?$AAi?$AAd?$AAa?$AAt?$AAe?$AA_?$AAp?$AAa?$AAr?$AAa?$AAm?$AA_?$AAr?$AAe?$AAu?$AAs?$AAe?$AA?$CI?$AA?$CG?$AAp?$AAo?$AAs?$AA_?$AAv?$AAa?$AAl?$AAu@ 100781d0     LIBCMTD:outputp.obj
 0002:0000f260       ??_C@_1IG@FDCPLALG@?$AA_?$AAt?$AAv?$AAa?$AAl?$AAi?$AAd?$AAa?$AAt?$AAe?$AA_?$AAp?$AAa?$AAr?$AAa?$AAm?$AA_?$AAr?$AAe?$AAu?$AAs?$AAe?$AA?$CI?$AA?$CG?$AAp?$AAo?$AAs?$AA_?$AAv?$AAa?$AAl?$AAu@ 10078260     LIBCMTD:outputp.obj
 0002:0000f2e8       ??_C@_1IG@HJIMKDHC@?$AA_?$AAt?$AAv?$AAa?$AAl?$AAi?$AAd?$AAa?$AAt?$AAe?$AA_?$AAp?$AAa?$AAr?$AAa?$AAm?$AA_?$AAr?$AAe?$AAu?$AAs?$AAe?$AA?$CI?$AA?$CG?$AAp?$AAo?$AAs?$AA_?$AAv?$AAa?$AAl?$AAu@ 100782e8     LIBCMTD:outputp.obj
 0002:0000f370       ??_C@_1IM@DNGHAPLB@?$AA_?$AAt?$AAv?$AAa?$AAl?$AAi?$AAd?$AAa?$AAt?$AAe?$AA_?$AAp?$AAa?$AAr?$AAa?$AAm?$AA_?$AAr?$AAe?$AAu?$AAs?$AAe?$AA?$CI?$AA?$CG?$AAp?$AAo?$AAs?$AA_?$AAv?$AAa?$AAl?$AAu@ 10078370     LIBCMTD:outputp.obj
 0002:0000f3fc       ??_C@_1DG@GOHGNKHE@?$AAp?$AAa?$AAs?$AAs?$AA?5?$AA?$DN?$AA?$DN?$AA?5?$AAF?$AAO?$AAR?$AAM?$AAA?$AAT?$AA_?$AAO?$AAU?$AAT?$AAP?$AAU?$AAT?$AA_?$AAP?$AAA?$AAS?$AAS?$AA?$AA@ 100783fc     LIBCMTD:outputp.obj
 0002:0000f438       ??_C@_1IK@NBGDDCBN@?$AA_?$AAt?$AAv?$AAa?$AAl?$AAi?$AAd?$AAa?$AAt?$AAe?$AA_?$AAp?$AAa?$AAr?$AAa?$AAm?$AA_?$AAr?$AAe?$AAu?$AAs?$AAe?$AA?$CI?$AA?$CG?$AAp?$AAo?$AAs?$AA_?$AAv?$AAa?$AAl?$AAu@ 10078438     LIBCMTD:outputp.obj
 0002:0000f4c8       ??_C@_1JC@OACKELNN@?$AA_?$AAt?$AAv?$AAa?$AAl?$AAi?$AAd?$AAa?$AAt?$AAe?$AA_?$AAp?$AAa?$AAr?$AAa?$AAm?$AA_?$AAr?$AAe?$AAu?$AAs?$AAe?$AA?$CI?$AA?$CG?$AAp?$AAo?$AAs?$AA_?$AAv?$AAa?$AAl?$AAu@ 100784c8     LIBCMTD:outputp.obj
 0002:0000f560       ??_C@_1FK@LNCFKALM@?$AA?$CI?$AA?$CI?$AAs?$AAt?$AAa?$AAt?$AAe?$AA?5?$AA?$DN?$AA?$DN?$AA?5?$AAS?$AAT?$AA_?$AAN?$AAO?$AAR?$AAM?$AAA?$AAL?$AA?$CJ?$AA?5?$AA?$HM?$AA?$HM?$AA?5?$AA?$CI?$AAs?$AAt?$AAa?$AAt?$AAe?$AA?5@ 10078560     LIBCMTD:outputp.obj
 0002:0000f5c0       ??_C@_1FK@BCPANIEK@?$AA?$CI?$AA?$CC?$AAM?$AAi?$AAs?$AAs?$AAi?$AAn?$AAg?$AA?5?$AAp?$AAo?$AAs?$AAi?$AAt?$AAi?$AAo?$AAn?$AA?5?$AAi?$AAn?$AA?5?$AAt?$AAh?$AAe?$AA?5?$AAf?$AAo?$AAr?$AAm?$AAa?$AAt@ 100785c0     LIBCMTD:outputp.obj
 0002:0000f620       ___lookuptable_s           10078620     LIBCMTD:outputs.obj
 0002:0000f67c       ??_C@_1BI@COFBLHCG@?$AA_?$AAo?$AAu?$AAt?$AAp?$AAu?$AAt?$AA_?$AAs?$AA_?$AAl?$AA?$AA@ 1007867c     LIBCMTD:outputs.obj
 0002:0000f698       ??_C@_1GC@MHLPCCAP@?$AAf?$AA?3?$AA?2?$AAd?$AAd?$AA?2?$AAv?$AAc?$AAt?$AAo?$AAo?$AAl?$AAs?$AA?2?$AAc?$AAr?$AAt?$AA_?$AAb?$AAl?$AAd?$AA?2?$AAs?$AAe?$AAl?$AAf?$AA_?$AAx?$AA8?$AA6?$AA?2?$AAc@ 10078698     LIBCMTD:wcsicmp.obj
 0002:0000f6fc       ??_C@_1BG@EELGPCPD@?$AA_?$AAw?$AAc?$AAs?$AAi?$AAc?$AAm?$AAp?$AA_?$AAl?$AA?$AA@ 100786fc     LIBCMTD:wcsicmp.obj
 0002:0000f714       ??_C@_1BC@NHIBDOMC@?$AA_?$AAw?$AAc?$AAs?$AAi?$AAc?$AAm?$AAp?$AA?$AA@ 10078714     LIBCMTD:wcsicmp.obj
 0002:0000f728       ??_C@_1BM@CBACDFHA@?$AAf?$AAi?$AAr?$AAs?$AAt?$AA?5?$AA?$CB?$AA?$DN?$AA?5?$AAN?$AAU?$AAL?$AAL?$AA?$AA@ 10078728     LIBCMTD:wcsnicmp.obj
 0002:0000f748       ??_C@_1GE@JMKOMBJH@?$AAf?$AA?3?$AA?2?$AAd?$AAd?$AA?2?$AAv?$AAc?$AAt?$AAo?$AAo?$AAl?$AAs?$AA?2?$AAc?$AAr?$AAt?$AA_?$AAb?$AAl?$AAd?$AA?2?$AAs?$AAe?$AAl?$AAf?$AA_?$AAx?$AA8?$AA6?$AA?2?$AAc@ 10078748     LIBCMTD:wcsnicmp.obj
 0002:0000f7ac       ??_C@_1BI@KLMFNDBC@?$AA_?$AAw?$AAc?$AAs?$AAn?$AAi?$AAc?$AAm?$AAp?$AA_?$AAl?$AA?$AA@ 100787ac     LIBCMTD:wcsnicmp.obj
 0002:0000f7c4       ??_C@_1BK@LKBOPAFJ@?$AAl?$AAa?$AAs?$AAt?$AA?5?$AA?$CB?$AA?$DN?$AA?5?$AAN?$AAU?$AAL?$AAL?$AA?$AA@ 100787c4     LIBCMTD:wcsnicmp.obj
 0002:0000f7e0       ??_C@_1BE@JKOKKFEL@?$AA_?$AAw?$AAc?$AAs?$AAn?$AAi?$AAc?$AAm?$AAp?$AA?$AA@ 100787e0     LIBCMTD:wcsnicmp.obj
 0002:0000f7f8       ??_C@_1NC@EINCOKCO@?$AA_?$AAl?$AAo?$AAc?$AA_?$AAu?$AAp?$AAd?$AAa?$AAt?$AAe?$AA?4?$AAG?$AAe?$AAt?$AAL?$AAo?$AAc?$AAa?$AAl?$AAe?$AAT?$AA?$CI?$AA?$CJ?$AA?9?$AA?$DO?$AAl?$AAo?$AAc?$AAi?$AAn?$AAf@ 100787f8     LIBCMTD:mbtowc.obj
 0002:0000f8d0       ??_C@_1GA@GFFDGGFH@?$AAf?$AA?3?$AA?2?$AAd?$AAd?$AA?2?$AAv?$AAc?$AAt?$AAo?$AAo?$AAl?$AAs?$AA?2?$AAc?$AAr?$AAt?$AA_?$AAb?$AAl?$AAd?$AA?2?$AAs?$AAe?$AAl?$AAf?$AA_?$AAx?$AA8?$AA6?$AA?2?$AAc@ 100788d0     LIBCMTD:mbtowc.obj
 0002:0000f930       ??_C@_1O@HFEBJM@?$AA_?$AAw?$AAo?$AAp?$AAe?$AAn?$AA?$AA@ 10078930     LIBCMTD:wopen.obj
 0002:0000f940       ??_C@_1BO@NAANLDBI@?$AA_?$AAw?$AAs?$AAo?$AAp?$AAe?$AAn?$AA_?$AAh?$AAe?$AAl?$AAp?$AAe?$AAr?$AA?$AA@ 10078940     LIBCMTD:wopen.obj
 0002:0000f960       ??_C@_0M@HHGEPIBF@CreateFile2?$AA@ 10078960     LIBCMTD:wopen.obj
 0002:0000f96c       ??_C@_1BO@JMCLMIEA@?$AA_?$AAw?$AAs?$AAo?$AAp?$AAe?$AAn?$AA_?$AAn?$AAo?$AAl?$AAo?$AAc?$AAk?$AA?$AA@ 1007896c     LIBCMTD:wopen.obj
 0002:0000f98c       ??_C@_1CG@ICBEBDJJ@?$AA_?$AAg?$AAe?$AAt?$AA_?$AAf?$AAm?$AAo?$AAd?$AAe?$AA?$CI?$AA?$CG?$AAf?$AAm?$AAo?$AAd?$AAe?$AA?$CJ?$AA?$AA@ 1007898c     LIBCMTD:wopen.obj
 0002:0000f9b4       ??_C@_1DI@DGKIFCCE@?$AA?$CI?$AA?5?$AA?$CC?$AAI?$AAn?$AAv?$AAa?$AAl?$AAi?$AAd?$AA?5?$AAo?$AAp?$AAe?$AAn?$AA?5?$AAf?$AAl?$AAa?$AAg?$AA?$CC?$AA?5?$AA?0?$AA?5?$AA0?$AA?5?$AA?$CJ?$AA?$AA@ 100789b4     LIBCMTD:wopen.obj
 0002:0000f9ec       ??_C@_1DO@PJLMOANO@?$AA?$CI?$AA?5?$AA?$CC?$AAI?$AAn?$AAv?$AAa?$AAl?$AAi?$AAd?$AA?5?$AAs?$AAh?$AAa?$AAr?$AAi?$AAn?$AAg?$AA?5?$AAf?$AAl?$AAa?$AAg?$AA?$CC?$AA?5?$AA?0?$AA?5?$AA0?$AA?5?$AA?$CJ?$AA?$AA@ 100789ec     LIBCMTD:wopen.obj
 0002:0000fa30       ??_C@_1HM@GJANBLHJ@?$AA?$CI?$AAo?$AAf?$AAl?$AAa?$AAg?$AA?5?$AA?$CG?$AA?5?$AA?$CI?$AA_?$AAO?$AA_?$AAT?$AAE?$AAX?$AAT?$AA?5?$AA?$HM?$AA?5?$AA_?$AAO?$AA_?$AAW?$AAT?$AAE?$AAX?$AAT?$AA?5?$AA?$HM?$AA?5?$AA_@ 10078a30     LIBCMTD:wopen.obj
 0002:0000faac       ??_C@_1CM@IDLMKMPG@?$AA0?$AA?5?$AA?$CG?$AA?$CG?$AA?5?$AA?$CC?$AAI?$AAn?$AAt?$AAe?$AAr?$AAn?$AAa?$AAl?$AA?5?$AAE?$AAr?$AAr?$AAo?$AAr?$AA?$CC?$AA?$AA@ 10078aac     LIBCMTD:wopen.obj
 0002:0000fad8       ??_C@_1IA@IENOJNJF@?$AA0?$AA?5?$AA?$CG?$AA?$CG?$AA?5?$AA?$CC?$AAO?$AAn?$AAl?$AAy?$AA?5?$AAU?$AAT?$AAF?$AA?9?$AA1?$AA6?$AA?5?$AAl?$AAi?$AAt?$AAt?$AAl?$AAe?$AA?5?$AAe?$AAn?$AAd?$AAi?$AAa?$AAn?$AA?5@ 10078ad8     LIBCMTD:wopen.obj
 0002:0000fb58       ??_C@_1GE@CONPOJMA@?$AAf?$AA?3?$AA?2?$AAd?$AAd?$AA?2?$AAv?$AAc?$AAt?$AAo?$AAo?$AAl?$AAs?$AA?2?$AAc?$AAr?$AAt?$AA_?$AAb?$AAl?$AAd?$AA?2?$AAs?$AAe?$AAl?$AAf?$AA_?$AAx?$AA8?$AA6?$AA?2?$AAc@ 10078b58     LIBCMTD:strnicmp.obj
 0002:0000fbbc       ??_C@_1BI@BJLEPLEF@?$AA_?$AAs?$AAt?$AAr?$AAn?$AAi?$AAc?$AAm?$AAp?$AA_?$AAl?$AA?$AA@ 10078bbc     LIBCMTD:strnicmp.obj
 0002:0000fbd4       ??_C@_1CC@JLPHKJPH@?$AAc?$AAo?$AAu?$AAn?$AAt?$AA?5?$AA?$DM?$AA?$DN?$AA?5?$AAI?$AAN?$AAT?$AA_?$AAM?$AAA?$AAX?$AA?$AA@ 10078bd4     LIBCMTD:strnicmp.obj
 0002:0000fbf8       ??_C@_1BE@BHJDFFNA@?$AA_?$AAs?$AAt?$AAr?$AAn?$AAi?$AAc?$AAm?$AAp?$AA?$AA@ 10078bf8     LIBCMTD:strnicmp.obj
 0002:0000fc0c       ??_C@_1BK@GDEKGMNC@?$AA_?$AAw?$AAo?$AAu?$AAt?$AAp?$AAu?$AAt?$AA_?$AAp?$AA_?$AAl?$AA?$AA@ 10078c0c     LIBCMTD:woutputp.obj
 0002:0000fc28       ??_C@_1BK@ONMFGLDB@?$AA_?$AAw?$AAo?$AAu?$AAt?$AAp?$AAu?$AAt?$AA_?$AAs?$AA_?$AAl?$AA?$AA@ 10078c28     LIBCMTD:woutputs.obj
 0002:0000fc48       ??_C@_1GA@BJIGKGEA@?$AAf?$AA?3?$AA?2?$AAd?$AAd?$AA?2?$AAv?$AAc?$AAt?$AAo?$AAo?$AAl?$AAs?$AA?2?$AAc?$AAr?$AAt?$AA_?$AAb?$AAl?$AAd?$AA?2?$AAs?$AAe?$AAl?$AAf?$AA_?$AAx?$AA8?$AA6?$AA?2?$AAc@ 10078c48     LIBCMTD:fputwc.obj
 0002:0000fca8       ??_C@_1O@HJNPHHHB@?$AAf?$AAp?$AAu?$AAt?$AAw?$AAc?$AA?$AA@ 10078ca8     LIBCMTD:fputwc.obj
 0002:0000fcb8       ??_C@_1GO@DHMODCKM@?$AAf?$AA?3?$AA?2?$AAd?$AAd?$AA?2?$AAv?$AAc?$AAt?$AAo?$AAo?$AAl?$AAs?$AA?2?$AAc?$AAr?$AAt?$AA_?$AAb?$AAl?$AAd?$AA?2?$AAs?$AAe?$AAl?$AAf?$AA_?$AAx?$AA8?$AA6?$AA?2?$AAc@ 10078cb8     LIBCMTD:wmakepath_s.obj
 0002:0000fd28       ??_C@_1BK@KHBCJPCH@?$AA_?$AAw?$AAm?$AAa?$AAk?$AAe?$AAp?$AAa?$AAt?$AAh?$AA_?$AAs?$AA?$AA@ 10078d28     LIBCMTD:wmakepath_s.obj
 0002:0000fd44       ??_C@_1CI@MLPLHPBP@?$AA?$CI?$AA?$CI?$AA?$CI?$AA_?$AAP?$AAa?$AAt?$AAh?$AA?$CJ?$AA?$CJ?$AA?$CJ?$AA?5?$AA?$CB?$AA?$DN?$AA?5?$AAN?$AAU?$AAL?$AAL?$AA?$AA@ 10078d44     LIBCMTD:wsplitpath_s.obj
 0002:0000fd70       ??_C@_1HA@GHKPFCBF@?$AAf?$AA?3?$AA?2?$AAd?$AAd?$AA?2?$AAv?$AAc?$AAt?$AAo?$AAo?$AAl?$AAs?$AA?2?$AAc?$AAr?$AAt?$AA_?$AAb?$AAl?$AAd?$AA?2?$AAs?$AAe?$AAl?$AAf?$AA_?$AAx?$AA8?$AA6?$AA?2?$AAc@ 10078d70     LIBCMTD:wsplitpath_s.obj
 0002:0000fde0       ??_C@_1BM@OEAFIBCF@?$AA_?$AAw?$AAs?$AAp?$AAl?$AAi?$AAt?$AAp?$AAa?$AAt?$AAh?$AA_?$AAs?$AA?$AA@ 10078de0     LIBCMTD:wsplitpath_s.obj
 0002:0000fdfc       ??_C@_1DE@MLEJGPLF@?$AA?$CI?$AAL?$AA?$CC?$AAI?$AAn?$AAv?$AAa?$AAl?$AAi?$AAd?$AA?5?$AAp?$AAa?$AAr?$AAa?$AAm?$AAe?$AAt?$AAe?$AAr?$AA?$CC?$AA?0?$AA?5?$AA0?$AA?$CJ?$AA?$AA@ 10078dfc     LIBCMTD:wsplitpath_s.obj
 0002:0000fe30       ??_C@_1CA@MBDBOHIB@?$AA_?$AAL?$AAo?$AAc?$AAa?$AAl?$AAe?$AA?5?$AA?$CB?$AA?$DN?$AA?5?$AAN?$AAU?$AAL?$AAL?$AA?$AA@ 10078e30     LIBCMTD:strgtold.obj
 0002:0000fe50       ??_C@_1IG@IGKPPFIM@?$AAf?$AA?3?$AA?2?$AAd?$AAd?$AA?2?$AAv?$AAc?$AAt?$AAo?$AAo?$AAl?$AAs?$AA?2?$AAc?$AAr?$AAt?$AA_?$AAb?$AAl?$AAd?$AA?2?$AAs?$AAe?$AAl?$AAf?$AA_?$AAx?$AA8?$AA6?$AA?2?$AAc@ 10078e50     LIBCMTD:strgtold.obj
 0002:0000fed8       ??_C@_1BO@IHLJHOPI@?$AA_?$AA_?$AAs?$AAt?$AAr?$AAg?$AAt?$AAo?$AAl?$AAd?$AA1?$AA2?$AA_?$AAl?$AA?$AA@ 10078ed8     LIBCMTD:strgtold.obj
 0002:0000fef8       ??_C@_1HG@HFJMHCFK@?$AAf?$AA?3?$AA?2?$AAd?$AAd?$AA?2?$AAv?$AAc?$AAt?$AAo?$AAo?$AAl?$AAs?$AA?2?$AAc?$AAr?$AAt?$AA_?$AAb?$AAl?$AAd?$AA?2?$AAs?$AAe?$AAl?$AAf?$AA_?$AAx?$AA8?$AA6?$AA?2?$AAc@ 10078ef8     LIBCMTD:x10fout.obj
 0002:0000ff70       ??_C@_1BI@ELMAAFLN@?$AA$?$AAI?$AA1?$AA0?$AA_?$AAO?$AAU?$AAT?$AAP?$AAU?$AAT?$AA?$AA@ 10078f70     LIBCMTD:x10fout.obj
 0002:0000ff88       ??_C@_1EG@CDDBFNOB@?$AAs?$AAt?$AAr?$AAc?$AAp?$AAy?$AA_?$AAs?$AA?$CI?$AAf?$AAo?$AAs?$AA?9?$AA?$DO?$AAm?$AAa?$AAn?$AA?0?$AA?5?$AA2?$AA1?$AA?$CL?$AA1?$AA?0?$AA?5?$AA?$CC?$AA1?$AA?$CD?$AAS?$AAN?$AAA?$AAN@ 10078f88     LIBCMTD:x10fout.obj
 0002:0000ffd0       ??_C@_06PGGFOGJG@1?$CDSNAN?$AA@ 10078fd0     LIBCMTD:x10fout.obj
 0002:0000ffd8       ??_C@_1EE@MADEBIHF@?$AAs?$AAt?$AAr?$AAc?$AAp?$AAy?$AA_?$AAs?$AA?$CI?$AAf?$AAo?$AAs?$AA?9?$AA?$DO?$AAm?$AAa?$AAn?$AA?0?$AA?5?$AA2?$AA1?$AA?$CL?$AA1?$AA?0?$AA?5?$AA?$CC?$AA1?$AA?$CD?$AAI?$AAN?$AAD?$AA?$CC@ 10078fd8     LIBCMTD:x10fout.obj
 0002:0001001c       ??_C@_05PHHOCPM@1?$CDIND?$AA@ 1007901c     LIBCMTD:x10fout.obj
 0002:00010028       ??_C@_1EE@ICBBBPAI@?$AAs?$AAt?$AAr?$AAc?$AAp?$AAy?$AA_?$AAs?$AA?$CI?$AAf?$AAo?$AAs?$AA?9?$AA?$DO?$AAm?$AAa?$AAn?$AA?0?$AA?5?$AA2?$AA1?$AA?$CL?$AA1?$AA?0?$AA?5?$AA?$CC?$AA1?$AA?$CD?$AAI?$AAN?$AAF?$AA?$CC@ 10079028     LIBCMTD:x10fout.obj
 0002:0001006c       ??_C@_05DNEBIAHO@1?$CDINF?$AA@ 1007906c     LIBCMTD:x10fout.obj
 0002:00010078       ??_C@_1EG@MCFPJJEM@?$AAs?$AAt?$AAr?$AAc?$AAp?$AAy?$AA_?$AAs?$AA?$CI?$AAf?$AAo?$AAs?$AA?9?$AA?$DO?$AAm?$AAa?$AAn?$AA?0?$AA?5?$AA2?$AA1?$AA?$CL?$AA1?$AA?0?$AA?5?$AA?$CC?$AA1?$AA?$CD?$AAQ?$AAN?$AAA?$AAN@ 10079078     LIBCMTD:x10fout.obj
 0002:000100c0       ??_C@_06IMKFLFPG@1?$CDQNAN?$AA@ 100790c0     LIBCMTD:x10fout.obj
 0002:000100c8       ?commonFlags@?1??_control87@@9@9 100790c8     LIBCMTD:ieee87.obj
 0002:000100d0       ??_C@_1HO@BFDKGHOI@?$AAf?$AA?3?$AA?2?$AAd?$AAd?$AA?2?$AAv?$AAc?$AAt?$AAo?$AAo?$AAl?$AAs?$AA?2?$AAc?$AAr?$AAt?$AA_?$AAb?$AAl?$AAd?$AA?2?$AAs?$AAe?$AAl?$AAf?$AA_?$AAx?$AA8?$AA6?$AA?2?$AAc@ 100790d0     LIBCMTD:ieee87.obj
 0002:00010150       ??_C@_1BO@OFDNCLL@?$AA_?$AAs?$AAe?$AAt?$AA_?$AAc?$AAo?$AAn?$AAt?$AAr?$AAo?$AAl?$AAf?$AAp?$AA?$AA@ 10079150     LIBCMTD:ieee87.obj
 0002:00010170       ??_C@_1GO@OKJGOMCB@?$AA_?$AAc?$AAo?$AAn?$AAt?$AAr?$AAo?$AAl?$AAf?$AAp?$AA_?$AAs?$AA?$CI?$AA?$CI?$AA?$CI?$AAv?$AAo?$AAi?$AAd?$AA?5?$AA?$CK?$AA?$CJ?$AA0?$AA?$CJ?$AA?0?$AA?5?$AAn?$AAe?$AAw?$AAc?$AAt?$AAr@ 10079170     LIBCMTD:ieee87.obj
 0002:000101e0       ??_C@_1GC@DHFFJKMC@?$AAf?$AA?3?$AA?2?$AAd?$AAd?$AA?2?$AAv?$AAc?$AAt?$AAo?$AAo?$AAl?$AAs?$AA?2?$AAc?$AAr?$AAt?$AA_?$AAb?$AAl?$AAd?$AA?2?$AAs?$AAe?$AAl?$AAf?$AA_?$AAx?$AA8?$AA6?$AA?2?$AAc@ 100791e0     LIBCMTD:vprintf.obj
 0002:00010244       ??_C@_1BO@JGFPDJCP@?$AAv?$AAp?$AAr?$AAi?$AAn?$AAt?$AAf?$AA_?$AAh?$AAe?$AAl?$AAp?$AAe?$AAr?$AA?$AA@ 10079244     LIBCMTD:vprintf.obj
 0002:00010264       ??_C@_1BK@LAOAACLJ@?$AAn?$AAp?$AAt?$AAr?$AA?5?$AA?$CB?$AA?$DN?$AA?5?$AAN?$AAU?$AAL?$AAL?$AA?$AA@ 10079264     LIBCMTD:strtol.obj
 0002:00010280       ??_C@_1GA@IPHKKOEI@?$AAf?$AA?3?$AA?2?$AAd?$AAd?$AA?2?$AAv?$AAc?$AAt?$AAo?$AAo?$AAl?$AAs?$AA?2?$AAc?$AAr?$AAt?$AA_?$AAb?$AAl?$AAd?$AA?2?$AAs?$AAe?$AAl?$AAf?$AA_?$AAx?$AA8?$AA6?$AA?2?$AAc@ 10079280     LIBCMTD:strtol.obj
 0002:000102e0       ??_C@_1BA@LOLAMAJG@?$AAs?$AAt?$AAr?$AAt?$AAo?$AAx?$AAl?$AA?$AA@ 100792e0     LIBCMTD:strtol.obj
 0002:000102f0       ??_C@_1FE@CEHLKAHD@?$AAi?$AAb?$AAa?$AAs?$AAe?$AA?5?$AA?$DN?$AA?$DN?$AA?5?$AA0?$AA?5?$AA?$HM?$AA?$HM?$AA?5?$AA?$CI?$AA2?$AA?5?$AA?$DM?$AA?$DN?$AA?5?$AAi?$AAb?$AAa?$AAs?$AAe?$AA?5?$AA?$CG?$AA?$CG?$AA?5?$AAi?$AAb?$AAa@ 100792f0     LIBCMTD:strtol.obj
 0002:00010348       ??_C@_1GA@CADFOND@?$AAf?$AA?3?$AA?2?$AAd?$AAd?$AA?2?$AAv?$AAc?$AAt?$AAo?$AAo?$AAl?$AAs?$AA?2?$AAc?$AAr?$AAt?$AA_?$AAb?$AAl?$AAd?$AA?2?$AAs?$AAe?$AAl?$AAf?$AA_?$AAx?$AA8?$AA6?$AA?2?$AAc@ 10079348     LIBCMTD:wcstol.obj
 0002:000103a8       ??_C@_1BA@PCFLFGNC@?$AAw?$AAc?$AAs?$AAt?$AAo?$AAx?$AAl?$AA?$AA@ 100793a8     LIBCMTD:wcstol.obj
 0002:000103b8       ??_C@_1GA@OFLNHKCJ@?$AAf?$AA?3?$AA?2?$AAd?$AAd?$AA?2?$AAv?$AAc?$AAt?$AAo?$AAo?$AAl?$AAs?$AA?2?$AAc?$AAr?$AAt?$AA_?$AAb?$AAl?$AAd?$AA?2?$AAs?$AAe?$AAl?$AAf?$AA_?$AAx?$AA8?$AA6?$AA?2?$AAc@ 100793b8     LIBCMTD:wcstoq.obj
 0002:00010418       ??_C@_1BA@FACINJJA@?$AAw?$AAc?$AAs?$AAt?$AAo?$AAx?$AAq?$AA?$AA@ 10079418     LIBCMTD:wcstoq.obj
 0002:00010428       ??_C@_1BA@BALFACEM@?$AAC?$AAO?$AAN?$AAO?$AAU?$AAT?$AA$?$AA?$AA@ 10079428     LIBCMTD:initcon.obj
 0002:00010438       ??_C@_1GA@DBKMEDOF@?$AAf?$AA?3?$AA?2?$AAd?$AAd?$AA?2?$AAv?$AAc?$AAt?$AAo?$AAo?$AAl?$AAs?$AA?2?$AAc?$AAr?$AAt?$AA_?$AAb?$AAl?$AAd?$AA?2?$AAs?$AAe?$AAl?$AAf?$AA_?$AAx?$AA8?$AA6?$AA?2?$AAc@ 10079438     LIBCMTD:chsize.obj
 0002:00010498       ??_C@_1BE@MAFDNGED@?$AA_?$AAc?$AAh?$AAs?$AAi?$AAz?$AAe?$AA_?$AAs?$AA?$AA@ 10079498     LIBCMTD:chsize.obj
 0002:000104ac       ??_C@_1BI@GALBKMKE@?$AA?$CI?$AAs?$AAi?$AAz?$AAe?$AA?5?$AA?$DO?$AA?$DN?$AA?5?$AA0?$AA?$CJ?$AA?$AA@ 100794ac     LIBCMTD:chsize.obj
 0002:000104c8       ??_C@_1OA@HGPJIFPM@?$AA?$CI?$AA?$CI?$AAm?$AAo?$AAd?$AAe?$AA?5?$AA?$DN?$AA?$DN?$AA?5?$AA_?$AAO?$AA_?$AAT?$AAE?$AAX?$AAT?$AA?$CJ?$AA?5?$AA?$HM?$AA?$HM?$AA?5?$AA?$CI?$AAm?$AAo?$AAd?$AAe?$AA?5?$AA?$DN?$AA?$DN?$AA?5?$AA_@ 100794c8     LIBCMTD:setmode.obj
 0002:000105a8       ??_C@_1GC@KODPFLLJ@?$AAf?$AA?3?$AA?2?$AAd?$AAd?$AA?2?$AAv?$AAc?$AAt?$AAo?$AAo?$AAl?$AAs?$AA?2?$AAc?$AAr?$AAt?$AA_?$AAb?$AAl?$AAd?$AA?2?$AAs?$AAe?$AAl?$AAf?$AA_?$AAx?$AA8?$AA6?$AA?2?$AAc@ 100795a8     LIBCMTD:setmode.obj
 0002:0001060c       ??_C@_1BC@JBGGJDCM@?$AA_?$AAs?$AAe?$AAt?$AAm?$AAo?$AAd?$AAe?$AA?$AA@ 1007960c     LIBCMTD:setmode.obj
 0002:00010620       ??_C@_1IC@NDCJMLB@?$AA?$CI?$AA?$CI?$AAm?$AAo?$AAd?$AAe?$AA?5?$AA?$DN?$AA?$DN?$AA?5?$AA_?$AAO?$AA_?$AAT?$AAE?$AAX?$AAT?$AA?$CJ?$AA?5?$AA?$HM?$AA?$HM?$AA?5?$AA?$CI?$AAm?$AAo?$AAd?$AAe?$AA?5?$AA?$DN?$AA?$DN?$AA?5?$AA_@ 10079620     LIBCMTD:setmode.obj
 0002:000106a4       ??_C@_1BG@IEEHLOCL@?$AA_?$AAs?$AAe?$AAt?$AA_?$AAf?$AAm?$AAo?$AAd?$AAe?$AA?$AA@ 100796a4     LIBCMTD:setmode.obj
 0002:000106bc       ??_C@_1CA@GPIGPPFN@?$AA?$CI?$AAp?$AAM?$AAo?$AAd?$AAe?$AA?5?$AA?$CB?$AA?$DN?$AA?5?$AAN?$AAU?$AAL?$AAL?$AA?$CJ?$AA?$AA@ 100796bc     LIBCMTD:setmode.obj
 0002:000106dc       ??_C@_1BG@CKGMPOFH@?$AA_?$AAg?$AAe?$AAt?$AA_?$AAf?$AAm?$AAo?$AAd?$AAe?$AA?$AA@ 100796dc     LIBCMTD:setmode.obj
 0002:000106f8       ??_C@_1GA@GIMEIKLC@?$AAf?$AA?3?$AA?2?$AAd?$AAd?$AA?2?$AAv?$AAc?$AAt?$AAo?$AAo?$AAl?$AAs?$AA?2?$AAc?$AAr?$AAt?$AA_?$AAb?$AAl?$AAd?$AA?2?$AAs?$AAe?$AAl?$AAf?$AA_?$AAx?$AA8?$AA6?$AA?2?$AAc@ 100796f8     LIBCMTD:strtoq.obj
 0002:00010758       ??_C@_1BA@BMMDEPNE@?$AAs?$AAt?$AAr?$AAt?$AAo?$AAx?$AAq?$AA?$AA@ 10079758     LIBCMTD:strtoq.obj
 0002:00010768       __load_config_used         10079768     LIBCMTD:loadcfg.obj
 0002:0001080c       ??_R4error_category@std@@6B@ 1007980c     aFont.obj
 0002:00010820       ??_R3error_category@std@@8 10079820     aFont.obj
 0002:00010830       ??_R2error_category@std@@8 10079830     aFont.obj
 0002:00010838       ??_R1A@?0A@EA@error_category@std@@8 10079838     aFont.obj
 0002:00010854       ??_R4_Generic_error_category@std@@6B@ 10079854     aFont.obj
 0002:00010868       ??_R3_Generic_error_category@std@@8 10079868     aFont.obj
 0002:00010878       ??_R2_Generic_error_category@std@@8 10079878     aFont.obj
 0002:00010884       ??_R1A@?0A@EA@_Generic_error_category@std@@8 10079884     aFont.obj
 0002:000108a0       ??_R4_Iostream_error_category@std@@6B@ 100798a0     aFont.obj
 0002:000108b4       ??_R3_Iostream_error_category@std@@8 100798b4     aFont.obj
 0002:000108c4       ??_R2_Iostream_error_category@std@@8 100798c4     aFont.obj
 0002:000108d4       ??_R1A@?0A@EA@_Iostream_error_category@std@@8 100798d4     aFont.obj
 0002:000108f0       ??_R4_System_error_category@std@@6B@ 100798f0     aFont.obj
 0002:00010904       ??_R3_System_error_category@std@@8 10079904     aFont.obj
 0002:00010914       ??_R2_System_error_category@std@@8 10079914     aFont.obj
 0002:00010924       ??_R1A@?0A@EA@_System_error_category@std@@8 10079924     aFont.obj
 0002:00010940       ??_R1A@?0A@EA@exception@std@@8 10079940     libcpmtd:xthrow.obj
 0002:0001095c       ??_R3exception@std@@8      1007995c     libcpmtd:xthrow.obj
 0002:0001096c       ??_R2exception@std@@8      1007996c     libcpmtd:xthrow.obj
 0002:00010974       ??_R4bad_alloc@std@@6B@    10079974     libcpmtd:xthrow.obj
 0002:00010988       ??_R3bad_alloc@std@@8      10079988     libcpmtd:xthrow.obj
 0002:00010998       ??_R2bad_alloc@std@@8      10079998     libcpmtd:xthrow.obj
 0002:000109a4       ??_R1A@?0A@EA@bad_alloc@std@@8 100799a4     libcpmtd:xthrow.obj
 0002:000109c0       ??_R4logic_error@std@@6B@  100799c0     libcpmtd:xthrow.obj
 0002:000109d4       ??_R3logic_error@std@@8    100799d4     libcpmtd:xthrow.obj
 0002:000109e4       ??_R2logic_error@std@@8    100799e4     libcpmtd:xthrow.obj
 0002:000109f0       ??_R1A@?0A@EA@logic_error@std@@8 100799f0     libcpmtd:xthrow.obj
 0002:00010a0c       ??_R4invalid_argument@std@@6B@ 10079a0c     libcpmtd:xthrow.obj
 0002:00010a20       ??_R3invalid_argument@std@@8 10079a20     libcpmtd:xthrow.obj
 0002:00010a30       ??_R2invalid_argument@std@@8 10079a30     libcpmtd:xthrow.obj
 0002:00010a40       ??_R1A@?0A@EA@invalid_argument@std@@8 10079a40     libcpmtd:xthrow.obj
 0002:00010a5c       ??_R4length_error@std@@6B@ 10079a5c     libcpmtd:xthrow.obj
 0002:00010a70       ??_R3length_error@std@@8   10079a70     libcpmtd:xthrow.obj
 0002:00010a80       ??_R2length_error@std@@8   10079a80     libcpmtd:xthrow.obj
 0002:00010a90       ??_R1A@?0A@EA@length_error@std@@8 10079a90     libcpmtd:xthrow.obj
 0002:00010aac       ??_R4out_of_range@std@@6B@ 10079aac     libcpmtd:xthrow.obj
 0002:00010ac0       ??_R3out_of_range@std@@8   10079ac0     libcpmtd:xthrow.obj
 0002:00010ad0       ??_R2out_of_range@std@@8   10079ad0     libcpmtd:xthrow.obj
 0002:00010ae0       ??_R1A@?0A@EA@out_of_range@std@@8 10079ae0     libcpmtd:xthrow.obj
 0002:00010afc       ??_R4runtime_error@std@@6B@ 10079afc     libcpmtd:xthrow.obj
 0002:00010b10       ??_R3runtime_error@std@@8  10079b10     libcpmtd:xthrow.obj
 0002:00010b20       ??_R2runtime_error@std@@8  10079b20     libcpmtd:xthrow.obj
 0002:00010b2c       ??_R1A@?0A@EA@runtime_error@std@@8 10079b2c     libcpmtd:xthrow.obj
 0002:00010b48       ??_R4overflow_error@std@@6B@ 10079b48     libcpmtd:xthrow.obj
 0002:00010b5c       ??_R3overflow_error@std@@8 10079b5c     libcpmtd:xthrow.obj
 0002:00010b6c       ??_R2overflow_error@std@@8 10079b6c     libcpmtd:xthrow.obj
 0002:00010b7c       ??_R1A@?0A@EA@overflow_error@std@@8 10079b7c     libcpmtd:xthrow.obj
 0002:00010b98       ??_R4bad_function_call@std@@6B@ 10079b98     libcpmtd:xthrow.obj
 0002:00010bac       ??_R3bad_function_call@std@@8 10079bac     libcpmtd:xthrow.obj
 0002:00010bbc       ??_R2bad_function_call@std@@8 10079bbc     libcpmtd:xthrow.obj
 0002:00010bc8       ??_R1A@?0A@EA@bad_function_call@std@@8 10079bc8     libcpmtd:xthrow.obj
 0002:00010be4       ??_R4regex_error@std@@6B@  10079be4     libcpmtd:xthrow.obj
 0002:00010bf8       ??_R3regex_error@std@@8    10079bf8     libcpmtd:xthrow.obj
 0002:00010c08       ??_R2regex_error@std@@8    10079c08     libcpmtd:xthrow.obj
 0002:00010c18       ??_R1A@?0A@EA@regex_error@std@@8 10079c18     libcpmtd:xthrow.obj
 0002:00010c34       ??_R4type_info@@6B@        10079c34     LIBCMTD:typinfo.obj
 0002:00010c48       ??_R3type_info@@8          10079c48     LIBCMTD:typinfo.obj
 0002:00010c58       ??_R2type_info@@8          10079c58     LIBCMTD:typinfo.obj
 0002:00010c60       ??_R1A@?0A@EA@type_info@@8 10079c60     LIBCMTD:typinfo.obj
 0002:00010c7c       ??_R4exception@std@@6B@    10079c7c     LIBCMTD:stdexcpt.obj
 0002:00010c90       ??_R4bad_cast@std@@6B@     10079c90     LIBCMTD:stdexcpt.obj
 0002:00010ca4       ??_R3bad_cast@std@@8       10079ca4     LIBCMTD:stdexcpt.obj
 0002:00010cb4       ??_R2bad_cast@std@@8       10079cb4     LIBCMTD:stdexcpt.obj
 0002:00010cc0       ??_R1A@?0A@EA@bad_cast@std@@8 10079cc0     LIBCMTD:stdexcpt.obj
 0002:00010cdc       ??_R4bad_typeid@std@@6B@   10079cdc     LIBCMTD:stdexcpt.obj
 0002:00010cf0       ??_R3bad_typeid@std@@8     10079cf0     LIBCMTD:stdexcpt.obj
 0002:00010d00       ??_R2bad_typeid@std@@8     10079d00     LIBCMTD:stdexcpt.obj
 0002:00010d0c       ??_R1A@?0A@EA@bad_typeid@std@@8 10079d0c     LIBCMTD:stdexcpt.obj
 0002:00010d28       ??_R4__non_rtti_object@std@@6B@ 10079d28     LIBCMTD:stdexcpt.obj
 0002:00010d3c       ??_R3__non_rtti_object@std@@8 10079d3c     LIBCMTD:stdexcpt.obj
 0002:00010d4c       ??_R2__non_rtti_object@std@@8 10079d4c     LIBCMTD:stdexcpt.obj
 0002:00010d5c       ??_R1A@?0A@EA@__non_rtti_object@std@@8 10079d5c     LIBCMTD:stdexcpt.obj
 0002:00010d78       ??_R4bad_exception@std@@6B@ 10079d78     LIBCMTD:frame.obj
 0002:00010d8c       ??_R3bad_exception@std@@8  10079d8c     LIBCMTD:frame.obj
 0002:00010d9c       ??_R2bad_exception@std@@8  10079d9c     LIBCMTD:frame.obj
 0002:00010da8       ??_R1A@?0A@EA@bad_exception@std@@8 10079da8     LIBCMTD:frame.obj
 0002:00010dc4       ??_R4DNameNode@@6B@        10079dc4     LIBCMTD:undname.obj
 0002:00010dd8       ??_R3DNameNode@@8          10079dd8     LIBCMTD:undname.obj
 0002:00010de8       ??_R2DNameNode@@8          10079de8     LIBCMTD:undname.obj
 0002:00010df0       ??_R1A@?0A@EA@DNameNode@@8 10079df0     LIBCMTD:undname.obj
 0002:00010e0c       ??_R4charNode@@6B@         10079e0c     LIBCMTD:undname.obj
 0002:00010e20       ??_R3charNode@@8           10079e20     LIBCMTD:undname.obj
 0002:00010e30       ??_R2charNode@@8           10079e30     LIBCMTD:undname.obj
 0002:00010e3c       ??_R1A@?0A@EA@charNode@@8  10079e3c     LIBCMTD:undname.obj
 0002:00010e58       ??_R4pcharNode@@6B@        10079e58     LIBCMTD:undname.obj
 0002:00010e6c       ??_R3pcharNode@@8          10079e6c     LIBCMTD:undname.obj
 0002:00010e7c       ??_R2pcharNode@@8          10079e7c     LIBCMTD:undname.obj
 0002:00010e88       ??_R1A@?0A@EA@pcharNode@@8 10079e88     LIBCMTD:undname.obj
 0002:00010ea4       ??_R4pDNameNode@@6B@       10079ea4     LIBCMTD:undname.obj
 0002:00010eb8       ??_R3pDNameNode@@8         10079eb8     LIBCMTD:undname.obj
 0002:00010ec8       ??_R2pDNameNode@@8         10079ec8     LIBCMTD:undname.obj
 0002:00010ed4       ??_R1A@?0A@EA@pDNameNode@@8 10079ed4     LIBCMTD:undname.obj
 0002:00010ef0       ??_R4DNameStatusNode@@6B@  10079ef0     LIBCMTD:undname.obj
 0002:00010f04       ??_R3DNameStatusNode@@8    10079f04     LIBCMTD:undname.obj
 0002:00010f14       ??_R2DNameStatusNode@@8    10079f14     LIBCMTD:undname.obj
 0002:00010f20       ??_R1A@?0A@EA@DNameStatusNode@@8 10079f20     LIBCMTD:undname.obj
 0002:00010f3c       ??_R4pairNode@@6B@         10079f3c     LIBCMTD:undname.obj
 0002:00010f50       ??_R3pairNode@@8           10079f50     LIBCMTD:undname.obj
 0002:00010f60       ??_R2pairNode@@8           10079f60     LIBCMTD:undname.obj
 0002:00010f6c       ??_R1A@?0A@EA@pairNode@@8  10079f6c     LIBCMTD:undname.obj
 0002:00010f90       ___safe_se_handler_table   10079f90     <linker-defined>
 0002:000110f8       ___rtc_iaa                 1007a0f8     LIBCMTD:initsect.obj
 0002:00011108       ___rtc_izz                 1007a108     LIBCMTD:initsect.obj
 0002:0001110c       ___rtc_taa                 1007a10c     LIBCMTD:initsect.obj
 0002:0001111c       ___rtc_tzz                 1007a11c     LIBCMTD:initsect.obj
 0002:00012458       __TI2?AVbad_alloc@std@@    1007b458     libcpmtd:xthrow.obj
 0002:00012468       __CTA2?AVbad_alloc@std@@   1007b468     libcpmtd:xthrow.obj
 0002:00012474       __CT??_R0?AVbad_alloc@std@@@8??0bad_alloc@std@@QAE@ABV01@@Z12 1007b474     libcpmtd:xthrow.obj
 0002:00012490       __CT??_R0?AVexception@std@@@8??0exception@std@@QAE@ABV01@@Z12 1007b490     libcpmtd:xthrow.obj
 0002:000124ac       __TI3?AVinvalid_argument@std@@ 1007b4ac     libcpmtd:xthrow.obj
 0002:000124bc       __CTA3?AVinvalid_argument@std@@ 1007b4bc     libcpmtd:xthrow.obj
 0002:000124cc       __CT??_R0?AVinvalid_argument@std@@@8??0invalid_argument@std@@QAE@ABV01@@Z12 1007b4cc     libcpmtd:xthrow.obj
 0002:000124e8       __CT??_R0?AVlogic_error@std@@@8??0logic_error@std@@QAE@ABV01@@Z12 1007b4e8     libcpmtd:xthrow.obj
 0002:00012504       __TI3?AVlength_error@std@@ 1007b504     libcpmtd:xthrow.obj
 0002:00012514       __CTA3?AVlength_error@std@@ 1007b514     libcpmtd:xthrow.obj
 0002:00012524       __CT??_R0?AVlength_error@std@@@8??0length_error@std@@QAE@ABV01@@Z12 1007b524     libcpmtd:xthrow.obj
 0002:00012540       __TI3?AVout_of_range@std@@ 1007b540     libcpmtd:xthrow.obj
 0002:00012550       __CTA3?AVout_of_range@std@@ 1007b550     libcpmtd:xthrow.obj
 0002:00012560       __CT??_R0?AVout_of_range@std@@@8??0out_of_range@std@@QAE@ABV01@@Z12 1007b560     libcpmtd:xthrow.obj
 0002:0001257c       __TI3?AVoverflow_error@std@@ 1007b57c     libcpmtd:xthrow.obj
 0002:0001258c       __CTA3?AVoverflow_error@std@@ 1007b58c     libcpmtd:xthrow.obj
 0002:0001259c       __CT??_R0?AVoverflow_error@std@@@8??0overflow_error@std@@QAE@ABV01@@Z12 1007b59c     libcpmtd:xthrow.obj
 0002:000125b8       __CT??_R0?AVruntime_error@std@@@8??0runtime_error@std@@QAE@ABV01@@Z12 1007b5b8     libcpmtd:xthrow.obj
 0002:000125d4       __TI2?AVruntime_error@std@@ 1007b5d4     libcpmtd:xthrow.obj
 0002:000125e4       __CTA2?AVruntime_error@std@@ 1007b5e4     libcpmtd:xthrow.obj
 0002:000125f0       __TI2?AVbad_function_call@std@@ 1007b5f0     libcpmtd:xthrow.obj
 0002:00012600       __CTA2?AVbad_function_call@std@@ 1007b600     libcpmtd:xthrow.obj
 0002:0001260c       __CT??_R0?AVbad_function_call@std@@@8??0bad_function_call@std@@QAE@ABV01@@Z12 1007b60c     libcpmtd:xthrow.obj
 0002:00012628       __TI3?AVregex_error@std@@  1007b628     libcpmtd:xthrow.obj
 0002:00012638       __CTA3?AVregex_error@std@@ 1007b638     libcpmtd:xthrow.obj
 0002:00012648       __CT??_R0?AVregex_error@std@@@8??0regex_error@std@@QAE@ABV01@@Z16 1007b648     libcpmtd:xthrow.obj
 0002:00012e44       __TI2?AVbad_exception@std@@ 1007be44     LIBCMTD:frame.obj
 0002:00012e54       __CTA2?AVbad_exception@std@@ 1007be54     LIBCMTD:frame.obj
 0002:00012e60       __CT??_R0?AVbad_exception@std@@@8??0bad_exception@std@@QAE@ABV01@@Z12 1007be60     LIBCMTD:frame.obj
 0002:0001329c       __IMPORT_DESCRIPTOR_KERNEL32 1007c29c     kernel32:KERNEL32.dll
 0002:000132b0       __IMPORT_DESCRIPTOR_USER32 1007c2b0     user32:USER32.dll
 0002:000132c4       __NULL_IMPORT_DESCRIPTOR   1007c2c4     kernel32:KERNEL32.dll
 0003:00000000       ?fontMeshId@aFont@@3HA     1007d000     aFont.obj
 0003:00000004       ?__LINE__Var@?1??RenderChars@aFont@@YGXPAVPackClass@Packet@@@Z@4JA 1007d004     aFont.obj
 0003:00000008       ??_R0?AVerror_category@std@@@8 1007d008     aFont.obj
 0003:0000002c       ??_R0?AV_Generic_error_category@std@@@8 1007d02c     aFont.obj
 0003:00000058       ??_R0?AV_Iostream_error_category@std@@@8 1007d058     aFont.obj
 0003:00000084       ??_R0?AV_System_error_category@std@@@8 1007d084     aFont.obj
 0003:000000b4       ??_R0?AVbad_alloc@std@@@8  1007d0b4     libcpmtd:xthrow.obj
 0003:000000d0       ??_R0?AVexception@std@@@8  1007d0d0     libcpmtd:xthrow.obj
 0003:000000ec       ??_R0?AVinvalid_argument@std@@@8 1007d0ec     libcpmtd:xthrow.obj
 0003:00000110       ??_R0?AVlogic_error@std@@@8 1007d110     libcpmtd:xthrow.obj
 0003:00000130       ??_R0?AVlength_error@std@@@8 1007d130     libcpmtd:xthrow.obj
 0003:00000150       ??_R0?AVout_of_range@std@@@8 1007d150     libcpmtd:xthrow.obj
 0003:00000170       ??_R0?AVoverflow_error@std@@@8 1007d170     libcpmtd:xthrow.obj
 0003:00000194       ??_R0?AVruntime_error@std@@@8 1007d194     libcpmtd:xthrow.obj
 0003:000001b4       ??_R0?AVbad_function_call@std@@@8 1007d1b4     libcpmtd:xthrow.obj
 0003:000001d8       ??_R0?AVregex_error@std@@@8 1007d1d8     libcpmtd:xthrow.obj
 0003:00000204       ??_R0?AVtype_info@@@8      1007d204     LIBCMTD:typinfo.obj
 0003:0000021c       ___security_cookie         1007d21c     LIBCMTD:gs_cookie.obj
 0003:00000220       ___security_cookie_complement 1007d220     LIBCMTD:gs_cookie.obj
 0003:00000224       __fltused                  1007d224     LIBCMTD:fpinit.obj
 0003:00000228       __ldused                   1007d228     LIBCMTD:fpinit.obj
 0003:00000350       ??_R0?AVbad_cast@std@@@8   1007d350     LIBCMTD:stdexcpt.obj
 0003:0000036c       ??_R0?AVbad_typeid@std@@@8 1007d36c     LIBCMTD:stdexcpt.obj
 0003:0000038c       ??_R0?AV__non_rtti_object@std@@@8 1007d38c     LIBCMTD:stdexcpt.obj
 0003:000003b0       ___abort_behavior          1007d3b0     LIBCMTD:abort.obj
 0003:000003bc       __crtDbgFlag               1007d3bc     LIBCMTD:dbgheap.obj
 0003:000003c0       __crtBreakAlloc            1007d3c0     LIBCMTD:dbgheap.obj
 0003:000003c4       ___crtDebugFillThreshold   1007d3c4     LIBCMTD:dbgheap.obj
 0003:000003cc       __pfnAllocHook             1007d3cc     LIBCMTD:dbghook.obj
 0003:000003d0       ___isa_enabled             1007d3d0     LIBCMTD:cpu_disp.obj
 0003:000003dc       ___ptmbcinfo               1007d3dc     LIBCMTD:mbctype.obj
 0003:000004d0       __mbctype                  1007d4d0     LIBCMTD:mbctype.obj
 0003:000005d8       __mbcasemap                1007d5d8     LIBCMTD:mbctype.obj
 0003:000006d8       ___initialmbcinfo          1007d6d8     LIBCMTD:mbctype.obj
 0003:000008f8       ___flsindex                1007d8f8     LIBCMTD:tidtable.obj
 0003:00000a70       ___wclocalestr             1007da70     LIBCMTD:nlsdata.obj
 0003:00000a78       ___lc_time_c               1007da78     LIBCMTD:nlsdata.obj
 0003:00000bdc       ___ptlocinfo               1007dbdc     LIBCMTD:nlsdata.obj
 0003:00000be0       ___initiallocinfo          1007dbe0     LIBCMTD:nlsdata.obj
 0003:00000c98       ___initiallocalestructinfo 1007dc98     LIBCMTD:nlsdata.obj
 0003:00000ca0       ___mb_cur_max              1007dca0     LIBCMTD:nlsdata.obj
 0003:00000ca4       ___globallocalestatus      1007dca4     LIBCMTD:glstatus.obj
 0003:00000cb0       __iob                      1007dcb0     LIBCMTD:_file.obj
 0003:00000f30       __lookuptrailbytes         1007df30     LIBCMTD:read.obj
 0003:00001030       ___badioinfo               1007e030     LIBCMTD:ioinit.obj
 0003:00001070       __CrtDbgMode               1007e070     LIBCMTD:dbgrptt.obj
 0003:0000107c       __CrtDbgFile               1007e07c     LIBCMTD:dbgrptt.obj
 0003:00001088       __crtAssertBusy            1007e088     LIBCMTD:dbgrptt.obj
 0003:0000108c       ?_RTC_ErrorLevels@@3PAHA   1007e08c     LIBCMTD:error.obj
 0003:000010a0       ??_R0?AVbad_exception@std@@@8 1007e0a0     LIBCMTD:frame.obj
 0003:000010c0       __cfltcvt_tab              1007e0c0     LIBCMTD:cmiscdat.obj
 0003:000010e8       ___nullstring              1007e0e8     LIBCMTD:output.obj
 0003:000010ec       ___wnullstring             1007e0ec     LIBCMTD:output.obj
 0003:000010f8       ___lconv                   1007e0f8     LIBCMTD:lconv.obj
 0003:000010fc       ___lconv_static_decimal    1007e0fc     LIBCMTD:lconv.obj
 0003:00001100       ___lconv_c                 1007e100     LIBCMTD:lconv.obj
 0003:00001150       ___lconv_static_W_decimal  1007e150     LIBCMTD:lconv.obj
 0003:00001154       __pctype                   1007e154     LIBCMTD:ctype.obj
 0003:00001158       __pwctype                  1007e158     LIBCMTD:ctype.obj
 0003:00001160       __NLG_Destination          1007e160     LIBCMTD:exsup.obj
 0003:00001170       ??_R0?AVDNameNode@@@8      1007e170     LIBCMTD:undname.obj
 0003:00001188       ??_R0?AVcharNode@@@8       1007e188     LIBCMTD:undname.obj
 0003:000011a0       ??_R0?AVpcharNode@@@8      1007e1a0     LIBCMTD:undname.obj
 0003:000011b8       ??_R0?AVpDNameNode@@@8     1007e1b8     LIBCMTD:undname.obj
 0003:000011d4       ??_R0?AVDNameStatusNode@@@8 1007e1d4     LIBCMTD:undname.obj
 0003:000011f4       ??_R0?AVpairNode@@@8       1007e1f4     LIBCMTD:undname.obj
 0003:00001240       __confh                    1007e240     LIBCMTD:initcon.obj
 0003:00001250       __pow10pos                 1007e250     LIBCMTD:constpow.obj
 0003:000013b0       __pow10neg                 1007e3b0     LIBCMTD:constpow.obj
 0003:00001544       ?fontMatId@aFont@@3HA      1007e544     aFont.obj
 0003:0000154c       ?FontList@aFont@@3V?$map@HPAVFontType@@U?$less@H@std@@V?$allocator@U?$pair@$$CBHPAVFontType@@@std@@@3@@std@@A 1007e54c     aFont.obj
 0003:00001558       ?apollo@@3VApolloClass@@A  1007e558     aFont.obj
 0003:00003704       ?_Generic_object@?$_Error_objects@H@std@@2V_Generic_error_category@2@A 10080704     aFont.obj
 0003:00003708       ?_Iostream_object@?$_Error_objects@H@std@@2V_Iostream_error_category@2@A 10080708     aFont.obj
 0003:0000370c       ?_System_object@?$_Error_objects@H@std@@2V_System_error_category@2@A 1008070c     aFont.obj
 0003:00003710       ?id@?$num_put@DV?$back_insert_iterator@V?$basic_string@DU?$char_traits@D@std@@V?$allocator@D@2@@std@@@std@@@std@@2V0locale@2@A 10080710     aFont.obj
 0003:00003714       ?id@?$num_put@_WV?$back_insert_iterator@V?$basic_string@_WU?$char_traits@_W@std@@V?$allocator@_W@2@@std@@@std@@@std@@2V0locale@2@A 10080714     aFont.obj
 0003:00003718       ?ignoreAlways@?2??AddData@PackClass@Packet@@QAEIPAXI@Z@4_NA 10080718     aFont.obj
 0003:00003719       ?ignoreAlways@?9??AddData@PackClass@Packet@@QAEIPAXI@Z@4_NA 10080719     aFont.obj
 0003:0000371a       ?ignoreAlways@?BB@??AddData@PackClass@Packet@@QAEIPAXI@Z@4_NA 1008071a     aFont.obj
 0003:0000371b       ?ignoreAlways@?2???0BinClass@Data@@QAE@I@Z@4_NA 1008071b     aFont.obj
 0003:0000371c       ?ignoreAlways@?2??GetData@BinClass@Data@@QAEPAEI@Z@4_NA 1008071c     aFont.obj
 0003:0000371d       ?ignoreAlways@?2??Open@FileClass@File@@QAEHPBDI@Z@4_NA 1008071d     aFont.obj
 0003:0000371e       ?ignoreAlways@?9??Open@FileClass@File@@QAEHPBDI@Z@4_NA 1008071e     aFont.obj
 0003:0000371f       ?ignoreAlways@?2??Close@FileClass@File@@QAEXXZ@4_NA 1008071f     aFont.obj
 0003:00003720       ?ignoreAlways@?2??ReadBinFile@FileClass@File@@QAEHPAVBinClass@Data@@@Z@4_NA 10080720     aFont.obj
 0003:00003721       ?ignoreAlways@?M@??ReadBinFile@FileClass@File@@QAEHPAVBinClass@Data@@@Z@4_NA 10080721     aFont.obj
 0003:00003724       ?id@?$numpunct@D@std@@2V0locale@2@A 10080724     aFont.obj
 0003:00003728       ?id@?$numpunct@_W@std@@2V0locale@2@A 10080728     aFont.obj
 0003:00003ec0       ___pInvalidArgHandler      10080ec0     LIBCMTD:invarg.obj
 0003:00003ec8       ___fastflag                10080ec8     LIBCMTD:fpinit.obj
 0003:00003ed0       __aenvptr                  10080ed0     LIBCMTD:dllcrt0.obj
 0003:00003ed4       __wenvptr                  10080ed4     LIBCMTD:dllcrt0.obj
 0003:00004040       ___app_type                10081040     LIBCMTD:crt0msg.obj
 0003:00004670       ___pPurecall               10081670     LIBCMTD:inithelp.obj
 0003:00004674       ?_pnhHeap@@3P6AHI@ZA       10081674     LIBCMTD:handler.obj
 0003:0000467c       ?_pfnDumpClient@@3P6AXPAXI@ZA 1008167c     LIBCMTD:dbgheap.obj
 0003:00004680       ___crtDebugCheckCount      10081680     LIBCMTD:dbgheap.obj
 0003:0000469c       __C_Exit_Done              1008169c     LIBCMTD:crt0dat.obj
 0003:000046a4       ___argc                    100816a4     LIBCMTD:crt0dat.obj
 0003:000046a8       ___argv                    100816a8     LIBCMTD:crt0dat.obj
 0003:000046ac       ___wargv                   100816ac     LIBCMTD:crt0dat.obj
 0003:000046b0       __environ                  100816b0     LIBCMTD:crt0dat.obj
 0003:000046b4       __wenviron                 100816b4     LIBCMTD:crt0dat.obj
 0003:000046b8       __pgmptr                   100816b8     LIBCMTD:crt0dat.obj
 0003:000046bc       __wpgmptr                  100816bc     LIBCMTD:crt0dat.obj
 0003:000046c0       __umaskval                 100816c0     LIBCMTD:crt0dat.obj
 0003:000046c4       __exitflag                 100816c4     LIBCMTD:crt0dat.obj
 0003:000046c8       __C_Termination_Done       100816c8     LIBCMTD:crt0dat.obj
 0003:000046cc       ___winitenv                100816cc     LIBCMTD:crt0dat.obj
 0003:000046d0       ___initenv                 100816d0     LIBCMTD:crt0dat.obj
 0003:000046d4       ___isa_available           100816d4     LIBCMTD:cpu_disp.obj
 0003:000046d8       ___favor                   100816d8     LIBCMTD:cpu_disp.obj
 0003:000046dc       ___mblocalename            100816dc     LIBCMTD:mbctype.obj
 0003:000046e0       ___mbcodepage              100816e0     LIBCMTD:mbctype.obj
 0003:000046e4       ___ismbcodepage            100816e4     LIBCMTD:mbctype.obj
 0003:000046e8       ___mbulinfo                100816e8     LIBCMTD:mbctype.obj
 0003:000046f8       ___locale_changed          100816f8     LIBCMTD:wsetloca.obj
 0003:00004a20       __cflush                   10081a20     LIBCMTD:_file.obj
 0003:00004a24       ___ioInitOnce              10081a24     LIBCMTD:ioinit.obj
 0003:00004a50       ?wsprintffp@@3P6AHPADPBDZZA 10081a50     LIBCMTD:error.obj
 0003:00004a5c       ?__pInconsistency@@3P6AXXZA 10081a5c     LIBCMTD:hooks.obj
 0003:00004a68       __crtheap                  10081a68     LIBCMTD:heapinit.obj
 0003:00004b78       ___error_mode              10081b78     LIBCMTD:errmode.obj
 0003:00004b7c       __newmode                  10081b7c     LIBCMTD:_newmode.obj
 0003:00004b84       __stdbuf                   10081b84     LIBCMTD:_sftbuf.obj
 0003:00004b8c       ___lconv_static_null       10081b8c     LIBCMTD:lconv.obj
 0003:00004b90       ___lconv_static_W_null     10081b90     LIBCMTD:lconv.obj
 0003:00004b94       __commode                  10081b94     LIBCMTD:ncommode.obj
 0003:00004ba0       ?pArgList@UnDecorator@@0PAVReplicator@@A 10081ba0     LIBCMTD:undname.obj
 0003:00004ba4       ?pZNameList@UnDecorator@@0PAVReplicator@@A 10081ba4     LIBCMTD:undname.obj
 0003:00004ba8       ?pTemplateArgList@UnDecorator@@0PAVReplicator@@A 10081ba8     LIBCMTD:undname.obj
 0003:00004bac       ?gName@UnDecorator@@0PBDB  10081bac     LIBCMTD:undname.obj
 0003:00004bb0       ?name@UnDecorator@@0PBDB   10081bb0     LIBCMTD:undname.obj
 0003:00004bb4       ?outputString@UnDecorator@@0PADA 10081bb4     LIBCMTD:undname.obj
 0003:00004bb8       ?maxStringLength@UnDecorator@@0HA 10081bb8     LIBCMTD:undname.obj
 0003:00004bbc       ?disableFlags@UnDecorator@@0KA 10081bbc     LIBCMTD:undname.obj
 0003:00004bc0       ?fExplicitTemplateParams@UnDecorator@@0_NA 10081bc0     LIBCMTD:undname.obj
 0003:00004bc1       ?fGetTemplateArgumentList@UnDecorator@@0_NA 10081bc1     LIBCMTD:undname.obj
 0003:00004bc4       ?m_pGetParameter@UnDecorator@@0P6APADJ@ZA 10081bc4     LIBCMTD:undname.obj
 0003:00004c30       ?nodes@?1??make@DNameStatusNode@@SAPAV2@W4DNameStatus@@@Z@4PAV2@A 10081c30     LIBCMTD:undname.obj
 0003:00004c60       ??_B?1??make@DNameStatusNode@@SAPAV1@W4DNameStatus@@@Z@51 10081c60     LIBCMTD:undname.obj
 0003:00004c64       __outputformat             10081c64     LIBCMTD:outputformat.obj
 0003:00004c6c       __fmode                    10081c6c     LIBCMTD:txtmode.obj
 0003:00004c70       __pReportHookListW         10081c70     <common>
 0003:00004c74       __pReportHookList          10081c74     <common>
 0003:00004c78       __pfnReportHook            10081c78     <common>
 0003:00004c7c       __nhandle                  10081c7c     <common>
 0003:00004c80       ___pioinfo                 10081c80     <common>
 0003:00004d80       ___piob                    10081d80     <common>
 0003:00004d84       __nstream                  10081d84     <common>
 0003:00004da0       __bufin                    10081da0     <common>
 0003:00005da0       ___unguarded_readlc_active 10082da0     <common>
 0003:00005da4       ___setlc_active            10082da4     <common>
 0003:00005da8       __debugger_hook_dummy      10082da8     <common>
 0003:00005dac       ___dyn_tls_init_callback   10082dac     <common>
 0003:00005db0       ___onexitend               10082db0     <common>
 0003:00005db4       ___onexitbegin             10082db4     <common>
 0003:00005db8       ___mbctype_initialized     10082db8     <common>
 0003:00005dbc       ___env_initialized         10082dbc     <common>
 0003:00005dc0       __acmdln                   10082dc0     <common>

 entry point at        0001:0001bf80

 Static symbols

 0000:fff77000       .debug$S                   10000000     kernel32:KERNEL32.dll
 0000:fff77000       .debug$S                   10000000     kernel32:KERNEL32.dll
 0000:fff77000       .debug$S                   10000000     kernel32:KERNEL32.dll
 0000:fff77000       .debug$S                   10000000     kernel32:KERNEL32.dll
 0000:fff77000       .debug$S                   10000000     kernel32:KERNEL32.dll
 0000:fff77000       .debug$S                   10000000     kernel32:KERNEL32.dll
 0000:fff77000       .debug$S                   10000000     kernel32:KERNEL32.dll
 0000:fff77000       .debug$S                   10000000     kernel32:KERNEL32.dll
 0000:fff77000       .debug$S                   10000000     kernel32:KERNEL32.dll
 0000:fff77000       .debug$S                   10000000     kernel32:KERNEL32.dll
 0000:fff77000       .debug$S                   10000000     kernel32:KERNEL32.dll
 0000:fff77000       .debug$S                   10000000     kernel32:KERNEL32.dll
 0000:fff77000       .debug$S                   10000000     kernel32:KERNEL32.dll
 0000:fff77000       .debug$S                   10000000     kernel32:KERNEL32.dll
 0000:fff77000       .debug$S                   10000000     kernel32:KERNEL32.dll
 0000:fff77000       .debug$S                   10000000     kernel32:KERNEL32.dll
 0000:fff77000       .debug$S                   10000000     kernel32:KERNEL32.dll
 0000:fff77000       .debug$S                   10000000     kernel32:KERNEL32.dll
 0000:fff77000       .debug$S                   10000000     kernel32:KERNEL32.dll
 0000:fff77000       .debug$S                   10000000     kernel32:KERNEL32.dll
 0000:fff77000       .debug$S                   10000000     kernel32:KERNEL32.dll
 0000:fff77000       .debug$S                   10000000     kernel32:KERNEL32.dll
 0000:fff77000       .debug$S                   10000000     kernel32:KERNEL32.dll
 0001:fffff000       __unwindfunclet$??0?$_String_alloc@$0A@U?$_String_base_types@DV?$allocator@D@std@@@std@@@std@@QAE@ABV?$allocator@D@1@@Z$0 10000000 f   Main.obj
 0000:fff77000       .debug$S                   10000000     kernel32:KERNEL32.dll
 0000:fff77000       .debug$S                   10000000     kernel32:KERNEL32.dll
 0000:fff77000       .debug$S                   10000000     kernel32:KERNEL32.dll
 0000:fff77000       .debug$S                   10000000     kernel32:KERNEL32.dll
 0000:fff77000       .debug$S                   10000000     kernel32:KERNEL32.dll
 0000:fff77000       .debug$S                   10000000     kernel32:KERNEL32.dll
 0000:fff77000       .debug$S                   10000000     kernel32:KERNEL32.dll
 0001:fffff000       __unwindfunclet$??0?$basic_string@DU?$char_traits@D@std@@V?$allocator@D@2@@std@@QAE@PBD@Z$0 10000000 f   Main.obj
 0001:fffff000       __ehhandler$?_Copy@?$basic_string@DU?$char_traits@D@std@@V?$allocator@D@2@@std@@QAEXII@Z 10000000 f   Main.obj
 0000:fff77000       .debug$S                   10000000     kernel32:KERNEL32.dll
 0000:fff77000       .debug$S                   10000000     kernel32:KERNEL32.dll
 0000:fff77000       .debug$S                   10000000     kernel32:KERNEL32.dll
 0000:fff77000       .debug$S                   10000000     kernel32:KERNEL32.dll
 0000:fff77000       .debug$S                   10000000     kernel32:KERNEL32.dll
 0000:fff77000       .debug$S                   10000000     kernel32:KERNEL32.dll
 0000:fff77000       .debug$S                   10000000     kernel32:KERNEL32.dll
 0000:fff77000       .debug$S                   10000000     kernel32:KERNEL32.dll
 0001:fffff000       __unwindfunclet$??$construct@U_Container_proxy@std@@U12@@?$allocator@U_Container_proxy@std@@@std@@QAEXPAU_Container_proxy@1@$$QAU21@@Z$0 10000000 f   Main.obj
 0000:fff77000       .debug$S                   10000000     kernel32:KERNEL32.dll
 0001:fffff000       __unwindfunclet$??$construct@PADAAPAD@?$allocator@D@std@@QAEXPAPADAAPAD@Z$0 10000000 f   Main.obj
 0000:fff77000       .debug$S                   10000000     kernel32:KERNEL32.dll
 0002:fff97000       __unwindtable$??0?$_String_alloc@$0A@U?$_String_base_types@DV?$allocator@D@std@@@std@@@std@@QAE@ABV?$allocator@D@1@@Z 10000000     Main.obj
 0000:fff77000       .debug$S                   10000000     kernel32:KERNEL32.dll
 0002:fff97000       __unwindtable$??0?$basic_string@DU?$char_traits@D@std@@V?$allocator@D@2@@std@@QAE@PBD@Z 10000000     Main.obj
 0000:fff77000       .debug$S                   10000000     kernel32:KERNEL32.dll
 0000:fff77000       .debug$S                   10000000     kernel32:KERNEL32.dll
 0000:fff77000       .debug$S                   10000000     kernel32:KERNEL32.dll
 0000:fff77000       .debug$S                   10000000     kernel32:KERNEL32.dll
 0002:fff97000       __catchsym$?_Copy@?$basic_string@DU?$char_traits@D@std@@V?$allocator@D@2@@std@@QAEXII@Z$5 10000000     Main.obj
 0000:fff77000       .debug$S                   10000000     kernel32:KERNEL32.dll
 0002:fff97000       ?id$initializer$@?$numpunct@_W@std@@2P6AXXZA 10000000     libcpmtd:xthrow.obj
 0000:fff77000       .debug$S                   10000000     kernel32:KERNEL32.dll
 0002:fff97000       __unwindtable$??$construct@U_Container_proxy@std@@U12@@?$allocator@U_Container_proxy@std@@@std@@QAEXPAU_Container_proxy@1@$$QAU21@@Z 10000000     Main.obj
 0000:fff77000       .debug$S                   10000000     kernel32:KERNEL32.dll
 0002:fff97000       __unwindtable$??$construct@PADAAPAD@?$allocator@D@std@@QAEXPAPADAAPAD@Z 10000000     Main.obj
 0002:fff97000       ?id$initializer$@?$numpunct@D@std@@2P6AXXZA 10000000     libcpmtd:xthrow.obj
 0002:fff97000       ?id$initializer$@?$num_put@_WV?$back_insert_iterator@V?$basic_string@_WU?$char_traits@_W@std@@V?$allocator@_W@2@@std@@@std@@@std@@2P6AXXZA 10000000     libcpmtd:xthrow.obj
 0002:fff97000       ?id$initializer$@?$num_put@DV?$back_insert_iterator@V?$basic_string@DU?$char_traits@D@std@@V?$allocator@D@2@@std@@@std@@@std@@2P6AXXZA 10000000     libcpmtd:xthrow.obj
 0002:fff97000       ?_System_object$initializer$@?$_Error_objects@H@std@@2P6AXXZA 10000000     libcpmtd:xthrow.obj
 0002:fff97000       ?_Iostream_object$initializer$@?$_Error_objects@H@std@@2P6AXXZA 10000000     libcpmtd:xthrow.obj
 0002:fff97000       ?_Generic_object$initializer$@?$_Error_objects@H@std@@2P6AXXZA 10000000     libcpmtd:xthrow.obj
 0002:fff97000       ?_Generic_object$initializer$@?$_Error_objects@H@std@@2P6AXXZA 10000000     Main.obj
 0002:fff97000       ?_Iostream_object$initializer$@?$_Error_objects@H@std@@2P6AXXZA 10000000     Main.obj
 0002:fff97000       ?_System_object$initializer$@?$_Error_objects@H@std@@2P6AXXZA 10000000     Main.obj
 0002:fff97000       ?id$initializer$@?$num_put@DV?$back_insert_iterator@V?$basic_string@DU?$char_traits@D@std@@V?$allocator@D@2@@std@@@std@@@std@@2P6AXXZA 10000000     Main.obj
 0002:fff97000       ?id$initializer$@?$num_put@_WV?$back_insert_iterator@V?$basic_string@_WU?$char_traits@_W@std@@V?$allocator@_W@2@@std@@@std@@@std@@2P6AXXZA 10000000     Main.obj
 0002:fff97000       ?id$initializer$@?$numpunct@D@std@@2P6AXXZA 10000000     Main.obj
 0002:fff97000       ?id$initializer$@?$numpunct@_W@std@@2P6AXXZA 10000000     Main.obj
 0002:fff97000       __unwindtable$??$construct@PADAAPAD@?$allocator@D@std@@QAEXPAPADAAPAD@Z 10000000     libcpmtd:xthrow.obj
 0000:fff77000       .debug$S                   10000000     kernel32:KERNEL32.dll
 0002:fff97000       __unwindtable$??$construct@U_Container_proxy@std@@U12@@?$allocator@U_Container_proxy@std@@@std@@QAEXPAU_Container_proxy@1@$$QAU21@@Z 10000000     libcpmtd:xthrow.obj
 0000:fff77000       .debug$S                   10000000     kernel32:KERNEL32.dll
 0002:fff97000       __catchsym$?_Copy@?$basic_string@DU?$char_traits@D@std@@V?$allocator@D@2@@std@@QAEXII@Z$5 10000000     libcpmtd:xthrow.obj
 0000:fff77000       .debug$S                   10000000     kernel32:KERNEL32.dll
 0000:fff77000       .debug$S                   10000000     kernel32:KERNEL32.dll
 0000:fff77000       .debug$S                   10000000     kernel32:KERNEL32.dll
 0000:fff77000       .debug$S                   10000000     kernel32:KERNEL32.dll
 0002:fff97000       __unwindtable$??0?$basic_string@DU?$char_traits@D@std@@V?$allocator@D@2@@std@@QAE@PBD@Z 10000000     libcpmtd:xthrow.obj
 0000:fff77000       .debug$S                   10000000     kernel32:KERNEL32.dll
 0002:fff97000       __unwindtable$??0?$_String_alloc@$0A@U?$_String_base_types@DV?$allocator@D@std@@@std@@@std@@QAE@ABV?$allocator@D@1@@Z 10000000     libcpmtd:xthrow.obj
 0000:fff77000       .debug$S                   10000000     kernel32:KERNEL32.dll
 0001:fffff000       __unwindfunclet$??$construct@PADAAPAD@?$allocator@D@std@@QAEXPAPADAAPAD@Z$0 10000000 f   libcpmtd:xthrow.obj
 0000:fff77000       .debug$S                   10000000     kernel32:KERNEL32.dll
 0001:fffff000       __unwindfunclet$??$construct@U_Container_proxy@std@@U12@@?$allocator@U_Container_proxy@std@@@std@@QAEXPAU_Container_proxy@1@$$QAU21@@Z$0 10000000 f   libcpmtd:xthrow.obj
 0000:fff77000       .debug$S                   10000000     kernel32:KERNEL32.dll
 0000:fff77000       .debug$S                   10000000     kernel32:KERNEL32.dll
 0000:fff77000       .debug$S                   10000000     kernel32:KERNEL32.dll
 0000:fff77000       .debug$S                   10000000     kernel32:KERNEL32.dll
 0001:fffff000       __ehhandler$?_Copy@?$basic_string@DU?$char_traits@D@std@@V?$allocator@D@2@@std@@QAEXII@Z 10000000 f   libcpmtd:xthrow.obj
 0001:fffff000       __unwindfunclet$??0?$basic_string@DU?$char_traits@D@std@@V?$allocator@D@2@@std@@QAE@PBD@Z$0 10000000 f   libcpmtd:xthrow.obj
 0000:fff77000       .debug$S                   10000000     kernel32:KERNEL32.dll
 0000:fff77000       .debug$S                   10000000     kernel32:KERNEL32.dll
 0000:fff77000       .debug$S                   10000000     kernel32:KERNEL32.dll
 0000:fff77000       .debug$S                   10000000     kernel32:KERNEL32.dll
 0001:fffff000       __unwindfunclet$??0?$_String_alloc@$0A@U?$_String_base_types@DV?$allocator@D@std@@@std@@@std@@QAE@ABV?$allocator@D@1@@Z$0 10000000 f   libcpmtd:xthrow.obj
 0000:fff77000       .debug$S                   10000000     kernel32:KERNEL32.dll
 0000:fff77000       .debug$S                   10000000     kernel32:KERNEL32.dll
 0000:fff77000       .debug$S                   10000000     kernel32:KERNEL32.dll
 0000:fff77000       .debug$S                   10000000     kernel32:KERNEL32.dll
 0000:fff77000       .debug$S                   10000000     kernel32:KERNEL32.dll
 0000:fff77000       .debug$S                   10000000     kernel32:KERNEL32.dll
 0000:fff77000       .debug$S                   10000000     kernel32:KERNEL32.dll
 0002:fff97000       ?_System_object$initializer$@?$_Error_objects@H@std@@2P6AXXZA 10000000     libcpmtd:syserror.obj
 0000:fff77000       .debug$S                   10000000     kernel32:KERNEL32.dll
 0000:fff77000       .debug$S                   10000000     kernel32:KERNEL32.dll
 0000:fff77000       .debug$S                   10000000     kernel32:KERNEL32.dll
 0000:fff77000       .debug$S                   10000000     kernel32:KERNEL32.dll
 0002:fff97000       ?_Iostream_object$initializer$@?$_Error_objects@H@std@@2P6AXXZA 10000000     libcpmtd:syserror.obj
 0002:fff97000       ?_Generic_object$initializer$@?$_Error_objects@H@std@@2P6AXXZA 10000000     libcpmtd:syserror.obj
 0002:fff97000       __unwindtable$??$construct@PADAAPAD@?$allocator@D@std@@QAEXPAPADAAPAD@Z 10000000     libcpmtd:syserror.obj
 0000:fff77000       .debug$S                   10000000     kernel32:KERNEL32.dll
 0000:fff77000       .debug$S                   10000000     kernel32:KERNEL32.dll
 0000:fff77000       .debug$S                   10000000     kernel32:KERNEL32.dll
 0000:fff77000       .debug$S                   10000000     kernel32:KERNEL32.dll
 0000:fff77000       .debug$S                   10000000     kernel32:KERNEL32.dll
 0000:fff77000       .debug$S                   10000000     kernel32:KERNEL32.dll
 0000:fff77000       .debug$S                   10000000     kernel32:KERNEL32.dll
 0002:fff97000       __unwindtable$??$construct@U_Container_proxy@std@@U12@@?$allocator@U_Container_proxy@std@@@std@@QAEXPAU_Container_proxy@1@$$QAU21@@Z 10000000     libcpmtd:syserror.obj
 0000:fff77000       .debug$S                   10000000     kernel32:KERNEL32.dll
 0002:fff97000       __catchsym$?_Copy@?$basic_string@DU?$char_traits@D@std@@V?$allocator@D@2@@std@@QAEXII@Z$5 10000000     libcpmtd:syserror.obj
 0000:fff77000       .debug$S                   10000000     kernel32:KERNEL32.dll
 0000:fff77000       .debug$S                   10000000     kernel32:KERNEL32.dll
 0000:fff77000       .debug$S                   10000000     kernel32:KERNEL32.dll
 0000:fff77000       .debug$S                   10000000     kernel32:KERNEL32.dll
 0000:fff77000       .debug$S                   10000000     kernel32:KERNEL32.dll
 0000:fff77000       .debug$S                   10000000     kernel32:KERNEL32.dll
 0000:fff77000       .debug$S                   10000000     user32:USER32.dll
 0001:fffff000       __unwindfunclet$??0?$_String_alloc@$0A@U?$_String_base_types@DV?$allocator@D@std@@@std@@@std@@QAE@ABV?$allocator@D@1@@Z$0 10000000 f   System:Error_types.obj
 0001:fffff000       __unwindfunclet$??0?$basic_string@DU?$char_traits@D@std@@V?$allocator@D@2@@std@@QAE@PBD@Z$0 10000000 f   System:Error_types.obj
 0001:fffff000       __ehhandler$?_Copy@?$basic_string@DU?$char_traits@D@std@@V?$allocator@D@2@@std@@QAEXII@Z 10000000 f   System:Error_types.obj
 0001:fffff000       __unwindfunclet$??0StringClass@CRC@@QAE@XZ$0 10000000 f   System:Error_types.obj
 0001:fffff000       __unwindfunclet$??0ModIdClass@CRC@@QAE@XZ$0 10000000 f   System:Error_types.obj
 0002:fff97000       __unwindtable$??0?$basic_string@DU?$char_traits@D@std@@V?$allocator@D@2@@std@@QAE@PBD@Z 10000000     libcpmtd:syserror.obj
 0001:fffff000       __unwindfunclet$??1ModIdClass@CRC@@QAE@XZ$0 10000000 f   System:Error_types.obj
 0002:fff97000       __unwindtable$??0?$_String_alloc@$0A@U?$_String_base_types@DV?$allocator@D@std@@@std@@@std@@QAE@ABV?$allocator@D@1@@Z 10000000     libcpmtd:syserror.obj
 0001:fffff000       __unwindfunclet$??0PackClass@Packet@@QAE@XZ$0 10000000 f   System:Error_types.obj
 0001:fffff000       __unwindfunclet$??$construct@PADAAPAD@?$allocator@D@std@@QAEXPAPADAAPAD@Z$0 10000000 f   libcpmtd:syserror.obj
 0001:fffff000       __unwindfunclet$??1PackClass@Packet@@QAE@XZ$0 10000000 f   System:Error_types.obj
 0001:fffff000       __unwindfunclet$??$construct@U_Container_proxy@std@@U12@@?$allocator@U_Container_proxy@std@@@std@@QAEXPAU_Container_proxy@1@$$QAU21@@Z$0 10000000 f   libcpmtd:syserror.obj
 0000:fff77000       .debug$S                   10000000     kernel32:KERNEL32.dll
 0001:fffff000       __unwindfunclet$??$construct@U_Container_proxy@std@@U12@@?$allocator@U_Container_proxy@std@@@std@@QAEXPAU_Container_proxy@1@$$QAU21@@Z$0 10000000 f   System:Error_types.obj
 0001:fffff000       __unwindfunclet$??$construct@PADAAPAD@?$allocator@D@std@@QAEXPAPADAAPAD@Z$0 10000000 f   System:Error_types.obj
 0002:fff97000       __unwindtable$??0?$_String_alloc@$0A@U?$_String_base_types@DV?$allocator@D@std@@@std@@@std@@QAE@ABV?$allocator@D@1@@Z 10000000     System:Error_types.obj
 0002:fff97000       __unwindtable$??0?$basic_string@DU?$char_traits@D@std@@V?$allocator@D@2@@std@@QAE@PBD@Z 10000000     System:Error_types.obj
 0002:fff97000       __catchsym$?_Copy@?$basic_string@DU?$char_traits@D@std@@V?$allocator@D@2@@std@@QAEXII@Z$5 10000000     System:Error_types.obj
 0002:fff97000       __unwindtable$??0StringClass@CRC@@QAE@XZ 10000000     System:Error_types.obj
 0001:fffff000       __ehhandler$?_Copy@?$basic_string@DU?$char_traits@D@std@@V?$allocator@D@2@@std@@QAEXII@Z 10000000 f   libcpmtd:syserror.obj
 0001:fffff000       __unwindfunclet$??0?$basic_string@DU?$char_traits@D@std@@V?$allocator@D@2@@std@@QAE@PBD@Z$0 10000000 f   libcpmtd:syserror.obj
 0002:fff97000       __unwindtable$??0ModIdClass@CRC@@QAE@XZ 10000000     System:Error_types.obj
 0001:fffff000       __unwindfunclet$??0?$_String_alloc@$0A@U?$_String_base_types@DV?$allocator@D@std@@@std@@@std@@QAE@ABV?$allocator@D@1@@Z$0 10000000 f   libcpmtd:syserror.obj
 0002:fff97000       __unwindtable$??1ModIdClass@CRC@@QAE@XZ 10000000     System:Error_types.obj
 0002:fff97000       ?id$initializer$@?$numpunct@_W@std@@2P6AXXZA 10000000     System:Error_types.obj
 0002:fff97000       ?id$initializer$@?$numpunct@D@std@@2P6AXXZA 10000000     System:Error_types.obj
 0002:fff97000       ?id$initializer$@?$num_put@_WV?$back_insert_iterator@V?$basic_string@_WU?$char_traits@_W@std@@V?$allocator@_W@2@@std@@@std@@@std@@2P6AXXZA 10000000     System:Error_types.obj
 0002:fff97000       ?id$initializer$@?$num_put@DV?$back_insert_iterator@V?$basic_string@DU?$char_traits@D@std@@V?$allocator@D@2@@std@@@std@@@std@@2P6AXXZA 10000000     System:Error_types.obj
 0002:fff97000       ?_System_object$initializer$@?$_Error_objects@H@std@@2P6AXXZA 10000000     System:Error_types.obj
 0002:fff97000       ?_Iostream_object$initializer$@?$_Error_objects@H@std@@2P6AXXZA 10000000     System:Error_types.obj
 0002:fff97000       ?_Generic_object$initializer$@?$_Error_objects@H@std@@2P6AXXZA 10000000     System:Error_types.obj
 0002:fff97000       __unwindtable$??$construct@PADAAPAD@?$allocator@D@std@@QAEXPAPADAAPAD@Z 10000000     System:Error_types.obj
 0002:fff97000       __unwindtable$??0PackClass@Packet@@QAE@XZ 10000000     System:Error_types.obj
 0002:fff97000       __unwindtable$??1PackClass@Packet@@QAE@XZ 10000000     System:Error_types.obj
 0002:fff97000       __unwindtable$??$construct@U_Container_proxy@std@@U12@@?$allocator@U_Container_proxy@std@@@std@@QAEXPAU_Container_proxy@1@$$QAU21@@Z 10000000     System:Error_types.obj
 0002:fff97008       __ehfuncinfo$??0?$basic_string@DU?$char_traits@D@std@@V?$allocator@D@2@@std@@QAE@PBD@Z 10000008     Main.obj
 0002:fff97008       __ehfuncinfo$??0?$basic_string@DU?$char_traits@D@std@@V?$allocator@D@2@@std@@QAE@PBD@Z 10000008     libcpmtd:xthrow.obj
 0002:fff97008       __ehfuncinfo$??0?$_String_alloc@$0A@U?$_String_base_types@DV?$allocator@D@std@@@std@@@std@@QAE@ABV?$allocator@D@1@@Z 10000008     libcpmtd:xthrow.obj
 0002:fff97008       __ehfuncinfo$??0?$_String_alloc@$0A@U?$_String_base_types@DV?$allocator@D@std@@@std@@@std@@QAE@ABV?$allocator@D@1@@Z 10000008     Main.obj
 0001:fffff008       __ehhandler$??0?$basic_string@DU?$char_traits@D@std@@V?$allocator@D@2@@std@@QAE@PBD@Z 10000008 f   System:Error_types.obj
 0001:fffff008       __unwindfunclet$??0ModIdClass@CRC@@QAE@XZ$1 10000008 f   System:Error_types.obj
 0001:fffff008       __ehhandler$??0?$basic_string@DU?$char_traits@D@std@@V?$allocator@D@2@@std@@QAE@PBD@Z 10000008 f   libcpmtd:xthrow.obj
 0002:fff97008       __ehfuncinfo$??0?$basic_string@DU?$char_traits@D@std@@V?$allocator@D@2@@std@@QAE@PBD@Z 10000008     libcpmtd:syserror.obj
 0001:fffff008       __ehhandler$??0?$_String_alloc@$0A@U?$_String_base_types@DV?$allocator@D@std@@@std@@@std@@QAE@ABV?$allocator@D@1@@Z 10000008 f   libcpmtd:xthrow.obj
 0002:fff97008       __ehfuncinfo$??$construct@PADAAPAD@?$allocator@D@std@@QAEXPAPADAAPAD@Z 10000008     libcpmtd:syserror.obj
 0002:fff97008       __ehfuncinfo$??$construct@U_Container_proxy@std@@U12@@?$allocator@U_Container_proxy@std@@@std@@QAEXPAU_Container_proxy@1@$$QAU21@@Z 10000008     System:Error_types.obj
 0001:fffff008       __unwindfunclet$??1ModIdClass@CRC@@QAE@XZ$1 10000008 f   System:Error_types.obj
 0002:fff97008       __ehfuncinfo$??$construct@PADAAPAD@?$allocator@D@std@@QAEXPAPADAAPAD@Z 10000008     System:Error_types.obj
 0002:fff97008       __ehfuncinfo$??0?$_String_alloc@$0A@U?$_String_base_types@DV?$allocator@D@std@@@std@@@std@@QAE@ABV?$allocator@D@1@@Z 10000008     System:Error_types.obj
 0002:fff97008       __ehfuncinfo$??0?$basic_string@DU?$char_traits@D@std@@V?$allocator@D@2@@std@@QAE@PBD@Z 10000008     System:Error_types.obj
 0002:fff97008       __ehfuncinfo$??$construct@U_Container_proxy@std@@U12@@?$allocator@U_Container_proxy@std@@@std@@QAEXPAU_Container_proxy@1@$$QAU21@@Z 10000008     Main.obj
 0001:fffff008       __ehhandler$??0?$_String_alloc@$0A@U?$_String_base_types@DV?$allocator@D@std@@@std@@@std@@QAE@ABV?$allocator@D@1@@Z 10000008 f   libcpmtd:syserror.obj
 0002:fff97008       __ehfuncinfo$??0?$_String_alloc@$0A@U?$_String_base_types@DV?$allocator@D@std@@@std@@@std@@QAE@ABV?$allocator@D@1@@Z 10000008     libcpmtd:syserror.obj
 0001:fffff008       __ehhandler$??0?$basic_string@DU?$char_traits@D@std@@V?$allocator@D@2@@std@@QAE@PBD@Z 10000008 f   libcpmtd:syserror.obj
 0001:fffff008       __ehhandler$??0?$basic_string@DU?$char_traits@D@std@@V?$allocator@D@2@@std@@QAE@PBD@Z 10000008 f   Main.obj
 0002:fff97008       __ehfuncinfo$??$construct@U_Container_proxy@std@@U12@@?$allocator@U_Container_proxy@std@@@std@@QAEXPAU_Container_proxy@1@$$QAU21@@Z 10000008     libcpmtd:syserror.obj
 0002:fff97008       __ehfuncinfo$??$construct@U_Container_proxy@std@@U12@@?$allocator@U_Container_proxy@std@@@std@@QAEXPAU_Container_proxy@1@$$QAU21@@Z 10000008     libcpmtd:xthrow.obj
 0001:fffff008       __ehhandler$??0?$_String_alloc@$0A@U?$_String_base_types@DV?$allocator@D@std@@@std@@@std@@QAE@ABV?$allocator@D@1@@Z 10000008 f   Main.obj
 0002:fff97008       __ehfuncinfo$??$construct@PADAAPAD@?$allocator@D@std@@QAEXPAPADAAPAD@Z 10000008     libcpmtd:xthrow.obj
 0002:fff97008       __ehfuncinfo$??0StringClass@CRC@@QAE@XZ 10000008     System:Error_types.obj
 0002:fff97008       __ehfuncinfo$??$construct@PADAAPAD@?$allocator@D@std@@QAEXPAPADAAPAD@Z 10000008     Main.obj
 0001:fffff008       __ehhandler$??0?$_String_alloc@$0A@U?$_String_base_types@DV?$allocator@D@std@@@std@@@std@@QAE@ABV?$allocator@D@1@@Z 10000008 f   System:Error_types.obj
 0001:fffff00b       __ehhandler$??0StringClass@CRC@@QAE@XZ 1000000b f   System:Error_types.obj
 0001:fffff00e       __unwindfunclet$??1PackClass@Packet@@QAE@XZ$1 1000000e f   System:Error_types.obj
 0001:fffff00e       __unwindfunclet$??0PackClass@Packet@@QAE@XZ$1 1000000e f   System:Error_types.obj
 0002:fff97010       __catchsym$?_Copy@?$basic_string@DU?$char_traits@D@std@@V?$allocator@D@2@@std@@QAEXII@Z$4 10000010     Main.obj
 0002:fff97010       __ehfuncinfo$??1PackClass@Packet@@QAE@XZ 10000010     System:Error_types.obj
 0002:fff97010       __catchsym$?_Copy@?$basic_string@DU?$char_traits@D@std@@V?$allocator@D@2@@std@@QAEXII@Z$4 10000010     libcpmtd:xthrow.obj
 0002:fff97010       __catchsym$?_Copy@?$basic_string@DU?$char_traits@D@std@@V?$allocator@D@2@@std@@QAEXII@Z$4 10000010     libcpmtd:syserror.obj
 0002:fff97010       __catchsym$?_Copy@?$basic_string@DU?$char_traits@D@std@@V?$allocator@D@2@@std@@QAEXII@Z$4 10000010     System:Error_types.obj
 0001:fffff011       __ehhandler$??$construct@PADAAPAD@?$allocator@D@std@@QAEXPAPADAAPAD@Z 10000011 f   libcpmtd:xthrow.obj
 0001:fffff011       __ehhandler$??$construct@PADAAPAD@?$allocator@D@std@@QAEXPAPADAAPAD@Z 10000011 f   libcpmtd:syserror.obj
 0001:fffff011       __ehhandler$??$construct@U_Container_proxy@std@@U12@@?$allocator@U_Container_proxy@std@@@std@@QAEXPAU_Container_proxy@1@$$QAU21@@Z 10000011 f   libcpmtd:xthrow.obj
 0001:fffff011       __ehhandler$??$construct@U_Container_proxy@std@@U12@@?$allocator@U_Container_proxy@std@@@std@@QAEXPAU_Container_proxy@1@$$QAU21@@Z 10000011 f   libcpmtd:syserror.obj
 0001:fffff014       __ehhandler$??$construct@PADAAPAD@?$allocator@D@std@@QAEXPAPADAAPAD@Z 10000014 f   Main.obj
 0001:fffff014       __ehhandler$??$construct@U_Container_proxy@std@@U12@@?$allocator@U_Container_proxy@std@@@std@@QAEXPAU_Container_proxy@1@$$QAU21@@Z 10000014 f   System:Error_types.obj
 0001:fffff014       __ehhandler$??$construct@PADAAPAD@?$allocator@D@std@@QAEXPAPADAAPAD@Z 10000014 f   System:Error_types.obj
 0001:fffff014       __ehhandler$??$construct@U_Container_proxy@std@@U12@@?$allocator@U_Container_proxy@std@@@std@@QAEXPAU_Container_proxy@1@$$QAU21@@Z 10000014 f   Main.obj
 0001:fffff016       __unwindfunclet$??0ModIdClass@CRC@@QAE@XZ$2 10000016 f   System:Error_types.obj
 0001:fffff016       __unwindfunclet$??1ModIdClass@CRC@@QAE@XZ$2 10000016 f   System:Error_types.obj
 0002:fff97018       __ehfuncinfo$??1ModIdClass@CRC@@QAE@XZ 10000018     System:Error_types.obj
 0002:fff97018       __ehfuncinfo$??0PackClass@Packet@@QAE@XZ 10000018     System:Error_types.obj
 0002:fff97018       __ehfuncinfo$??0ModIdClass@CRC@@QAE@XZ 10000018     System:Error_types.obj
 0001:fffff01c       __unwindfunclet$??0PackClass@Packet@@QAE@XZ$2 1000001c f   System:Error_types.obj
 0001:fffff01c       __ehhandler$??1PackClass@Packet@@QAE@XZ 1000001c f   System:Error_types.obj
 0002:fff97020       __unwindtable$?_Copy@?$basic_string@DU?$char_traits@D@std@@V?$allocator@D@2@@std@@QAEXII@Z 10000020     Main.obj
 0002:fff97020       __unwindtable$?_Copy@?$basic_string@DU?$char_traits@D@std@@V?$allocator@D@2@@std@@QAEXII@Z 10000020     libcpmtd:syserror.obj
 0002:fff97020       __unwindtable$?_Copy@?$basic_string@DU?$char_traits@D@std@@V?$allocator@D@2@@std@@QAEXII@Z 10000020     libcpmtd:xthrow.obj
 0002:fff97020       __unwindtable$?_Copy@?$basic_string@DU?$char_traits@D@std@@V?$allocator@D@2@@std@@QAEXII@Z 10000020     System:Error_types.obj
 0001:fffff024       __ehhandler$??0ModIdClass@CRC@@QAE@XZ 10000024 f   System:Error_types.obj
 0001:fffff024       __ehhandler$??1ModIdClass@CRC@@QAE@XZ 10000024 f   System:Error_types.obj
 0001:fffff02a       __ehhandler$??0PackClass@Packet@@QAE@XZ 1000002a f   System:Error_types.obj
 0002:fff97040       __ehfuncinfo$?_Copy@?$basic_string@DU?$char_traits@D@std@@V?$allocator@D@2@@std@@QAEXII@Z 10000040     libcpmtd:syserror.obj
 0002:fff97040       __ehfuncinfo$?_Copy@?$basic_string@DU?$char_traits@D@std@@V?$allocator@D@2@@std@@QAEXII@Z 10000040     libcpmtd:xthrow.obj
 0002:fff97040       __ehfuncinfo$?_Copy@?$basic_string@DU?$char_traits@D@std@@V?$allocator@D@2@@std@@QAEXII@Z 10000040     Main.obj
 0002:fff97040       __ehfuncinfo$?_Copy@?$basic_string@DU?$char_traits@D@std@@V?$allocator@D@2@@std@@QAEXII@Z 10000040     System:Error_types.obj
 0002:fff97064       __tryblocktable$?_Copy@?$basic_string@DU?$char_traits@D@std@@V?$allocator@D@2@@std@@QAEXII@Z 10000064     Main.obj
 0002:fff97064       __tryblocktable$?_Copy@?$basic_string@DU?$char_traits@D@std@@V?$allocator@D@2@@std@@QAEXII@Z 10000064     libcpmtd:syserror.obj
 0002:fff97064       __tryblocktable$?_Copy@?$basic_string@DU?$char_traits@D@std@@V?$allocator@D@2@@std@@QAEXII@Z 10000064     System:Error_types.obj
 0002:fff97064       __tryblocktable$?_Copy@?$basic_string@DU?$char_traits@D@std@@V?$allocator@D@2@@std@@QAEXII@Z 10000064     libcpmtd:xthrow.obj
 0001:fffff078       $LN5                       10000078     System:Error_types.obj
 0001:fffff080       $LN4                       10000080     System:Error_types.obj
 0001:fffff080       $LN5                       10000080     Main.obj
 0001:fffff080       $LN5                       10000080     System:Error_types.obj
 0001:fffff084       $LN5                       10000084     System:Error_types.obj
 0001:fffff084       $LN5                       10000084     Main.obj
 0001:fffff088       $LN4                       10000088     Main.obj
 0001:fffff088       $LN4                       10000088     System:Error_types.obj
 0001:fffff08c       $LN4                       1000008c     System:Error_types.obj
 0001:fffff08c       $LN3                       1000008c     System:Error_types.obj
 0001:fffff08c       $LN4                       1000008c     Main.obj
 0001:fffff094       $LN3                       10000094     System:Error_types.obj
 0001:fffff094       $LN3                       10000094     Main.obj
 0001:fffff098       $LN3                       10000098     Main.obj
 0001:fffff098       $LN3                       10000098     System:Error_types.obj
 0001:fffff0a0       $LN10                      100000a0     Main.obj
 0001:fffff0a0       $LN10                      100000a0     System:Error_types.obj
 0001:fffff0a8       $LN9                       100000a8     Main.obj
 0001:fffff0a8       $LN9                       100000a8     System:Error_types.obj
 0001:fffff0b4       $LN8                       100000b4     Main.obj
 0001:fffff0b4       $LN8                       100000b4     System:Error_types.obj
 0001:fffff0cf       __catch$?_Copy@?$basic_string@DU?$char_traits@D@std@@V?$allocator@D@2@@std@@QAEXII@Z$0 100000cf f   libcpmtd:syserror.obj
 0001:fffff0cf       __catch$?_Copy@?$basic_string@DU?$char_traits@D@std@@V?$allocator@D@2@@std@@QAEXII@Z$0 100000cf f   libcpmtd:xthrow.obj
 0001:fffff0e4       $LN9                       100000e4     System:Error_types.obj
 0001:fffff0ec       $LN8                       100000ec     System:Error_types.obj
 0001:fffff0f5       __catch$?_Copy@?$basic_string@DU?$char_traits@D@std@@V?$allocator@D@2@@std@@QAEXII@Z$0 100000f5 f   Main.obj
 0001:fffff0f5       __catch$?_Copy@?$basic_string@DU?$char_traits@D@std@@V?$allocator@D@2@@std@@QAEXII@Z$0 100000f5 f   System:Error_types.obj
 0001:fffff104       $LN7                       10000104     System:Error_types.obj
 0001:fffff105       __catch$?_Copy@?$basic_string@DU?$char_traits@D@std@@V?$allocator@D@2@@std@@QAEXII@Z$1 10000105 f   libcpmtd:xthrow.obj
 0001:fffff105       __catch$?_Copy@?$basic_string@DU?$char_traits@D@std@@V?$allocator@D@2@@std@@QAEXII@Z$1 10000105 f   libcpmtd:syserror.obj
 0001:fffff109       $LN6                       10000109     System:Error_types.obj
 0001:fffff13a       __catch$?_Copy@?$basic_string@DU?$char_traits@D@std@@V?$allocator@D@2@@std@@QAEXII@Z$1 1000013a f   System:Error_types.obj
 0001:fffff13a       __catch$?_Copy@?$basic_string@DU?$char_traits@D@std@@V?$allocator@D@2@@std@@QAEXII@Z$1 1000013a f   Main.obj
 0001:fffff210       $LN23                      10000210     Main.obj
 0001:fffff210       $LN23                      10000210     System:Error_types.obj
 0001:fffff218       $LN22                      10000218     System:Error_types.obj
 0001:fffff218       $LN22                      10000218     Main.obj
 0001:fffff224       $LN20                      10000224     Main.obj
 0001:fffff224       $LN20                      10000224     System:Error_types.obj
 0001:00001804       __catch$??$_Buynode@U?$pair@HPAVFontType@@@std@@@?$_Tree_buy@U?$pair@$$CBHPAVFontType@@@std@@V?$allocator@U?$pair@$$CBHPAVFontType@@@std@@@2@@std@@QAEPAU?$_Tree_node@U?$pair@$$CBHPAVFontType@@@std@@PAX@1@$$QAU?$pair@HPAVFontType@@@1@@Z$0 10002804 f i aFont.obj
 0001:00001924       __catch$??$_Buynode@U?$pair@IPAUFunction@@@std@@@?$_Tree_buy@U?$pair@$$CBIPAUFunction@@@std@@V?$allocator@U?$pair@$$CBIPAUFunction@@@std@@@2@@std@@QAEPAU?$_Tree_node@U?$pair@$$CBIPAUFunction@@@std@@PAX@1@$$QAU?$pair@IPAUFunction@@@1@@Z$0 10002924 f i aFont.obj
 0001:000033fe       __catch$??$_Insert_hint@AAU?$pair@$$CBHPAVFontType@@@std@@PAU?$_Tree_node@U?$pair@$$CBHPAVFontType@@@std@@PAX@2@@?$_Tree@V?$_Tmap_traits@HPAVFontType@@U?$less@H@std@@V?$allocator@U?$pair@$$CBHPAVFontType@@@std@@@3@$0A@@std@@@std@@IAE?AV?$_Tree_iterator@V?$_Tree_val@U?$_Tree_simple_types@U?$pair@$$CBHPAVFontType@@@std@@@std@@@std@@@1@V?$_Tree_const_iterator@V?$_Tree_val@U?$_Tree_simple_types@U?$pair@$$CBHPAVFontType@@@std@@@std@@@std@@@1@AAU?$pair@$$CBHPAVFontType@@@1@PAU?$_Tree_node@U?$pair@$$CBHPAVFontType@@@std@@PAX@1@@Z$0 100043fe f i aFont.obj
 0001:000034e0       $LN90                      100044e0     aFont.obj
 0001:000034e8       $LN89                      100044e8     aFont.obj
 0001:000034f4       $LN87                      100044f4     aFont.obj
 0001:0000463e       __catch$??$_Insert_hint@AAU?$pair@$$CBIPAUFunction@@@std@@PAU?$_Tree_node@U?$pair@$$CBIPAUFunction@@@std@@PAX@2@@?$_Tree@V?$_Tmap_traits@IPAUFunction@@UFcmp@@V?$allocator@U?$pair@$$CBIPAUFunction@@@std@@@std@@$0A@@std@@@std@@IAE?AV?$_Tree_iterator@V?$_Tree_val@U?$_Tree_simple_types@U?$pair@$$CBIPAUFunction@@@std@@@std@@@std@@@1@V?$_Tree_const_iterator@V?$_Tree_val@U?$_Tree_simple_types@U?$pair@$$CBIPAUFunction@@@std@@@std@@@std@@@1@AAU?$pair@$$CBIPAUFunction@@@1@PAU?$_Tree_node@U?$pair@$$CBIPAUFunction@@@std@@PAX@1@@Z$0 1000563e f i aFont.obj
 0001:00004720       $LN90                      10005720     aFont.obj
 0001:00004728       $LN89                      10005728     aFont.obj
 0001:00004734       $LN87                      10005734     aFont.obj
 0001:00004d65       __catch$??$_Insert_nohint@AAU?$pair@$$CBHPAVFontType@@@std@@PAU?$_Tree_node@U?$pair@$$CBHPAVFontType@@@std@@PAX@2@@?$_Tree@V?$_Tmap_traits@HPAVFontType@@U?$less@H@std@@V?$allocator@U?$pair@$$CBHPAVFontType@@@std@@@3@$0A@@std@@@std@@IAE?AU?$pair@V?$_Tree_iterator@V?$_Tree_val@U?$_Tree_simple_types@U?$pair@$$CBHPAVFontType@@@std@@@std@@@std@@@std@@_N@1@_NAAU?$pair@$$CBHPAVFontType@@@1@PAU?$_Tree_node@U?$pair@$$CBHPAVFontType@@@std@@PAX@1@@Z$0 10005d65 f i aFont.obj
 0001:00004dc4       $LN38                      10005dc4     aFont.obj
 0001:00004dcc       $LN37                      10005dcc     aFont.obj
 0001:00004dd8       $LN35                      10005dd8     aFont.obj
 0001:00005405       __catch$??$_Insert_nohint@AAU?$pair@$$CBIPAUFunction@@@std@@PAU?$_Tree_node@U?$pair@$$CBIPAUFunction@@@std@@PAX@2@@?$_Tree@V?$_Tmap_traits@IPAUFunction@@UFcmp@@V?$allocator@U?$pair@$$CBIPAUFunction@@@std@@@std@@$0A@@std@@@std@@IAE?AU?$pair@V?$_Tree_iterator@V?$_Tree_val@U?$_Tree_simple_types@U?$pair@$$CBIPAUFunction@@@std@@@std@@@std@@@std@@_N@1@_NAAU?$pair@$$CBIPAUFunction@@@1@PAU?$_Tree_node@U?$pair@$$CBIPAUFunction@@@std@@PAX@1@@Z$0 10006405 f i aFont.obj
 0001:00005464       $LN38                      10006464     aFont.obj
 0001:0000546c       $LN37                      1000646c     aFont.obj
 0001:00005478       $LN35                      10006478     aFont.obj
 0001:00006cb4       $LN5                       10007cb4     aFont.obj
 0001:00006cbc       $LN4                       10007cbc     aFont.obj
 0001:00006cc8       $LN3                       10007cc8     aFont.obj
 0001:00007101       __catch$??0?$_Tree_alloc@$0A@U?$_Tree_base_types@U?$pair@$$CBHPAVFontType@@@std@@V?$allocator@U?$pair@$$CBHPAVFontType@@@std@@@2@@std@@@std@@QAE@ABV?$allocator@U?$pair@$$CBHPAVFontType@@@std@@@1@@Z$0 10008101 f i aFont.obj
 0001:000071d1       __catch$??0?$_Tree_alloc@$0A@U?$_Tree_base_types@U?$pair@$$CBIPAUFunction@@@std@@V?$allocator@U?$pair@$$CBIPAUFunction@@@std@@@2@@std@@@std@@QAE@ABV?$allocator@U?$pair@$$CBIPAUFunction@@@std@@@1@@Z$0 100081d1 f i aFont.obj
 0001:000072a1       __catch$??0?$_Tree_alloc@$0A@U?$_Tree_base_types@U?$pair@$$CBIPAX@std@@V?$allocator@U?$pair@$$CBIPAX@std@@@2@@std@@@std@@QAE@ABV?$allocator@U?$pair@$$CBIPAX@std@@@1@@Z$0 100082a1 f i aFont.obj
 0001:00009ba4       $LN5                       1000aba4     aFont.obj
 0001:00009bac       $LN4                       1000abac     aFont.obj
 0001:00009bb8       $LN3                       1000abb8     aFont.obj
 0001:0000a0f8       $LN11                      1000b0f8     aFont.obj
 0001:0000a100       $LN10                      1000b100     aFont.obj
 0001:0000a10c       $LN8                       1000b10c     aFont.obj
 0001:0000aa04       $LN15                      1000ba04     aFont.obj
 0001:0000aa0c       $LN14                      1000ba0c     aFont.obj
 0001:0000aa18       $LN12                      1000ba18     aFont.obj
 0001:0000ac30       $LN15                      1000bc30     aFont.obj
 0001:0000ac38       $LN14                      1000bc38     aFont.obj
 0001:0000ac44       $LN12                      1000bc44     aFont.obj
 0001:0000ae78       $LN15                      1000be78     aFont.obj
 0001:0000ae80       $LN14                      1000be80     aFont.obj
 0001:0000ae8c       $LN12                      1000be8c     aFont.obj
 0001:0000b248       $LN9                       1000c248     aFont.obj
 0001:0000b250       $LN8                       1000c250     aFont.obj
 0001:0000b25c       $LN6                       1000c25c     aFont.obj
 0001:0000b418       $LN9                       1000c418     aFont.obj
 0001:0000b420       $LN8                       1000c420     aFont.obj
 0001:0000b42c       $LN6                       1000c42c     aFont.obj
 0001:0000b5e8       $LN9                       1000c5e8     aFont.obj
 0001:0000b5f0       $LN8                       1000c5f0     aFont.obj
 0001:0000b5fc       $LN6                       1000c5fc     aFont.obj
 0001:0000b7b8       $LN9                       1000c7b8     aFont.obj
 0001:0000b7c0       $LN8                       1000c7c0     aFont.obj
 0001:0000b7cc       $LN6                       1000c7cc     aFont.obj
 0001:0000ca98       $LN5                       1000da98     aFont.obj
 0001:0000caa0       $LN4                       1000daa0     aFont.obj
 0001:0000caac       $LN3                       1000daac     aFont.obj
 0001:0000d47c       $LN13                      1000e47c     aFont.obj
 0001:0000d484       $LN12                      1000e484     aFont.obj
 0001:0000d490       $LN10                      1000e490     aFont.obj
 0001:0000d90c       $LN25                      1000e90c     aFont.obj
 0001:0000d914       $LN24                      1000e914     aFont.obj
 0001:0000d950       $LN22                      1000e950     aFont.obj
 0001:0000d959       $LN21                      1000e959     aFont.obj
 0001:0000d95e       $LN20                      1000e95e     aFont.obj
 0001:0000d962       $LN19                      1000e962     aFont.obj
 0001:0000d968       $LN18                      1000e968     aFont.obj
 0001:0000e464       $LN23                      1000f464     aFont.obj
 0001:0000e46c       $LN22                      1000f46c     aFont.obj
 0001:0000e484       $LN20                      1000f484     aFont.obj
 0001:0000e48b       $LN19                      1000f48b     aFont.obj
 0001:0000ea14       $LN9                       1000fa14     aFont.obj
 0001:0000ea1c       $LN8                       1000fa1c     aFont.obj
 0001:0000ea34       $LN7                       1000fa34     aFont.obj
 0001:0000ea39       $LN6                       1000fa39     aFont.obj
 0001:0000eb3c       $LN12                      1000fb3c     aFont.obj
 0001:0000eb44       $LN11                      1000fb44     aFont.obj
 0001:0000eb5c       $LN9                       1000fb5c     aFont.obj
 0001:0000eb62       $LN8                       1000fb62     aFont.obj
 0001:0000ebf4       $LN5                       1000fbf4     aFont.obj
 0001:0000ebfc       $LN4                       1000fbfc     aFont.obj
 0001:0000ec08       $LN3                       1000fc08     aFont.obj
 0001:0000ecb4       $LN5                       1000fcb4     aFont.obj
 0001:0000ecbc       $LN4                       1000fcbc     aFont.obj
 0001:0000ecc8       $LN3                       1000fcc8     aFont.obj
 0001:0000ed74       $LN5                       1000fd74     aFont.obj
 0001:0000ed7c       $LN4                       1000fd7c     aFont.obj
 0001:0000ed88       $LN3                       1000fd88     aFont.obj
 0001:0000ee34       $LN5                       1000fe34     aFont.obj
 0001:0000ee3c       $LN4                       1000fe3c     aFont.obj
 0001:0000ee48       $LN3                       1000fe48     aFont.obj
 0001:0000ef8a       __catch$?_Buyheadnode@?$_Tree_alloc@$0A@U?$_Tree_base_types@U?$pair@$$CBHPAVFontType@@@std@@V?$allocator@U?$pair@$$CBHPAVFontType@@@std@@@2@@std@@@std@@QAEPAU?$_Tree_node@U?$pair@$$CBHPAVFontType@@@std@@PAX@2@XZ$0 1000ff8a f i aFont.obj
 0001:0000f010       $LN11                      10010010     aFont.obj
 0001:0000f018       $LN10                      10010018     aFont.obj
 0001:0000f024       $LN8                       10010024     aFont.obj
 0001:0000f15a       __catch$?_Buyheadnode@?$_Tree_alloc@$0A@U?$_Tree_base_types@U?$pair@$$CBIPAUFunction@@@std@@V?$allocator@U?$pair@$$CBIPAUFunction@@@std@@@2@@std@@@std@@QAEPAU?$_Tree_node@U?$pair@$$CBIPAUFunction@@@std@@PAX@2@XZ$0 1001015a f i aFont.obj
 0001:0000f1e0       $LN11                      100101e0     aFont.obj
 0001:0000f1e8       $LN10                      100101e8     aFont.obj
 0001:0000f1f4       $LN8                       100101f4     aFont.obj
 0001:0000f32a       __catch$?_Buyheadnode@?$_Tree_alloc@$0A@U?$_Tree_base_types@U?$pair@$$CBIPAX@std@@V?$allocator@U?$pair@$$CBIPAX@std@@@2@@std@@@std@@QAEPAU?$_Tree_node@U?$pair@$$CBIPAX@std@@PAX@2@XZ$0 1001032a f i aFont.obj
 0001:0000f3b0       $LN11                      100103b0     aFont.obj
 0001:0000f3b8       $LN10                      100103b8     aFont.obj
 0001:0000f3c4       $LN8                       100103c4     aFont.obj
 0001:0000f503       __catch$?_Buynode0@?$_Tree_buy@U?$pair@$$CBHPAVFontType@@@std@@V?$allocator@U?$pair@$$CBHPAVFontType@@@std@@@2@@std@@QAEPAU?$_Tree_node@U?$pair@$$CBHPAVFontType@@@std@@PAX@2@XZ$0 10010503 f i aFont.obj
 0001:0000f693       __catch$?_Buynode0@?$_Tree_buy@U?$pair@$$CBIPAUFunction@@@std@@V?$allocator@U?$pair@$$CBIPAUFunction@@@std@@@2@@std@@QAEPAU?$_Tree_node@U?$pair@$$CBIPAUFunction@@@std@@PAX@2@XZ$0 10010693 f i aFont.obj
 0001:0000f8b5       __catch$?_Copy@?$basic_string@DU?$char_traits@D@std@@V?$allocator@D@2@@std@@QAEXII@Z$0 100108b5 f i aFont.obj
 0001:0000f8fa       __catch$?_Copy@?$basic_string@DU?$char_traits@D@std@@V?$allocator@D@2@@std@@QAEXII@Z$1 100108fa f i aFont.obj
 0001:0000f9d0       $LN23                      100109d0     aFont.obj
 0001:0000f9d8       $LN22                      100109d8     aFont.obj
 0001:0000f9e4       $LN20                      100109e4     aFont.obj
 0001:0000fe20       $LN5                       10010e20     aFont.obj
 0001:0000fe28       $LN4                       10010e28     aFont.obj
 0001:0000fe34       $LN3                       10010e34     aFont.obj
 0001:0000fed0       $LN5                       10010ed0     aFont.obj
 0001:0000fed8       $LN4                       10010ed8     aFont.obj
 0001:0000fee4       $LN3                       10010ee4     aFont.obj
 0001:0000ff80       $LN5                       10010f80     aFont.obj
 0001:0000ff88       $LN4                       10010f88     aFont.obj
 0001:0000ff94       $LN3                       10010f94     aFont.obj
 0001:00010030       $LN5                       10011030     aFont.obj
 0001:00010038       $LN4                       10011038     aFont.obj
 0001:00010044       $LN3                       10011044     aFont.obj
 0001:000115c0       $LN10                      100125c0     aFont.obj
 0001:000115c8       $LN9                       100125c8     aFont.obj
 0001:000115d4       $LN8                       100125d4     aFont.obj
 0001:0001177c       $LN13                      1001277c     aFont.obj
 0001:00011784       $LN12                      10012784     aFont.obj
 0001:00011790       $LN10                      10012790     aFont.obj
 0001:0001189c       $LN13                      1001289c     aFont.obj
 0001:000118a4       $LN12                      100128a4     aFont.obj
 0001:000118b0       $LN10                      100128b0     aFont.obj
 0001:000119bc       $LN13                      100129bc     aFont.obj
 0001:000119c4       $LN12                      100129c4     aFont.obj
 0001:000119d0       $LN10                      100129d0     aFont.obj
 0001:00015564       $LN20                      10016564     aFont.obj
 0001:0001556c       $LN19                      1001656c     aFont.obj
 0001:00015578       $LN17                      10016578     aFont.obj
 0001:00016130       $LN10                      10017130     System:Error_types.obj
 0001:00016138       $LN9                       10017138     System:Error_types.obj
 0001:00016144       $LN8                       10017144     System:Error_types.obj
 0001:0001625c       $LN8                       1001725c     System:Error_types.obj
 0001:00016264       $LN7                       10017264     System:Error_types.obj
 0001:00016270       $LN5                       10017270     System:Error_types.obj
 0001:000163b0       $LN5                       100173b0     System:Error_types.obj
 0001:000163b8       $LN4                       100173b8     System:Error_types.obj
 0001:000163c4       $LN3                       100173c4     System:Error_types.obj
 0001:00016f9c       $LN21                      10017f9c     libcpmtd:xthrow.obj
 0001:00017590       __onexit_nolock            10018590 f   LIBCMTD:onexit.obj
 0001:000179d0       $$000000                   100189d0     LIBCMTD:memcpy.obj
 0001:00017c20       LeadUpVec                  10018c20     LIBCMTD:memcpy.obj
 0001:00017c9c       UnwindUpVec                10018c9c     LIBCMTD:memcpy.obj
 0001:00017d08       TrailUpVec                 10018d08     LIBCMTD:memcpy.obj
 0001:00017dac       LeadDownVec                10018dac     LIBCMTD:memcpy.obj
 0001:00017e38       UnwindDownVec              10018e38     LIBCMTD:memcpy.obj
 0001:00017ea4       TrailDownVec               10018ea4     LIBCMTD:memcpy.obj
 0001:00018020       $$000000                   10019020     LIBCMTD:memset.obj
 0001:000180b0       $$000000                   100190b0     LIBCMTD:strcat.obj
 0001:000181b0       $$000000                   100191b0     LIBCMTD:strcmp.obj
 0001:00018240       $$000000                   10019240     LIBCMTD:strlen.obj
 0001:000182d0       $$000000                   100192d0     LIBCMTD:memmove.obj
 0001:00018520       LeadUpVec                  10019520     LIBCMTD:memmove.obj
 0001:0001859c       UnwindUpVec                1001959c     LIBCMTD:memmove.obj
 0001:00018608       TrailUpVec                 10019608     LIBCMTD:memmove.obj
 0001:000186ac       LeadDownVec                100196ac     LIBCMTD:memmove.obj
 0001:00018738       UnwindDownVec              10019738     LIBCMTD:memmove.obj
 0001:000187a4       TrailDownVec               100197a4     LIBCMTD:memmove.obj
 0001:0001b540       ?CatchGuardHandler@@YA?AW4_EXCEPTION_DISPOSITION@@PAUEHExceptionRecord@@PAUCatchGuardRN@@PAX2@Z 1001c540 f   LIBCMTD:_trnsctrl_.obj
 0001:0001b590       ?TranslatorGuardHandler@@YA?AW4_EXCEPTION_DISPOSITION@@PAUEHExceptionRecord@@PAUTranslatorGuardRN@@PAX2@Z 1001c590 f   LIBCMTD:_trnsctrl_.obj
 0001:0001bfb0       ___DllMainCRTStartup       1001cfb0 f   LIBCMTD:dllcrt0.obj
 0001:0001d7c0       ?_CrtMemDumpAllObjectsSince_stat@@YAXPBU_CrtMemState@@PAUlocaleinfo_struct@@@Z 1001e7c0 f   LIBCMTD:dbgheap.obj
 0001:0001dad0       ?__crtIsBadReadPtr@@YAHPBXI@Z 1001ead0 f   LIBCMTD:dbgheap.obj
 0001:0001dc00       _CheckBytes                1001ec00 f   LIBCMTD:dbgheap.obj
 0001:0001e094       $LN51                      1001f094     LIBCMTD:dbgheap.obj
 0001:0001ff10       __heap_alloc_dbg_impl      10020f10 f   LIBCMTD:dbgheap.obj
 0001:000205b0       __nh_malloc_dbg_impl       100215b0 f   LIBCMTD:dbgheap.obj
 0001:00020630       __printMemBlockData        10021630 f   LIBCMTD:dbgheap.obj
 0001:00020950       _realloc_help              10021950 f   LIBCMTD:dbgheap.obj
 0001:00020f60       _ValidateLocalCookies      10021f60 f   LIBCMTD:chandler4.obj
 0001:00021950       __initterm                 10022950 f   LIBCMTD:crt0dat.obj
 0001:000219e0       _doexit                    100229e0 f   LIBCMTD:crt0dat.obj
 0001:00021c00       ___IsPackagedAppHelper     10022c00 f   LIBCMTD:winapisupp.obj
 0001:00022a70       ?CPtoLocaleName@@YAPB_WH@Z 10023a70 f   LIBCMTD:mbctype.obj
 0001:00022ae4       $LN10                      10023ae4     LIBCMTD:mbctype.obj
 0001:00022af8       $LN9                       10023af8     LIBCMTD:mbctype.obj
 0001:00022b10       ?getSystemCP@@YAHH@Z       10023b10 f   LIBCMTD:mbctype.obj
 0001:00022c20       ?setSBCS@@YAXPAUthreadmbcinfostruct@@@Z 10023c20 f   LIBCMTD:mbctype.obj
 0001:00022d00       ?setSBUpLow@@YAXPAUthreadmbcinfostruct@@@Z 10023d00 f   LIBCMTD:mbctype.obj
 0001:00023800       ?__crtLCMapStringA_stat@@YAHPAUlocaleinfo_struct@@PB_WKPBDHPADHHH@Z 10024800 f   LIBCMTD:a_map.obj
 0001:00023aa0       ?strncnt@@YAHPBDH@Z        10024aa0 f   LIBCMTD:a_map.obj
 0001:000248e8       $LN16                      100258e8     LIBCMTD:wsetloca.obj
 0001:00024900       __copytlocinfo_nolock      10025900 f   LIBCMTD:wsetloca.obj
 0001:00025540       __wsetlocale_get_all       10026540 f   LIBCMTD:wsetloca.obj
 0001:00025900       __wsetlocale_nolock        10026900 f   LIBCMTD:wsetloca.obj
 0001:00025d50       __wsetlocale_set_cat       10026d50 f   LIBCMTD:wsetloca.obj
 0001:00026330       _sync_legacy_variables_lk  10027330 f   LIBCMTD:wsetloca.obj
 0001:00026f80       _flsall                    10027f80 f   LIBCMTD:fflush.obj
 0001:00027abc       $LN92                      10028abc     LIBCMTD:_open.obj
 0001:00027af0       $LN91                      10028af0     LIBCMTD:_open.obj
 0001:00027b50       $$000000                   10028b50     LIBCMTD:exsup4.obj
 0001:00027be0       __unwind_handler4          10028be0 f   LIBCMTD:exsup4.obj
 0001:00029cc0       $$000000                   1002acc0     LIBCMTD:chkstk.obj
 0001:0002aad0       _ctrlevent_capture@4       1002bad0 f   LIBCMTD:winsig.obj
 0001:0002aea0       $LN41                      1002bea0     LIBCMTD:winsig.obj
 0001:0002aeb8       $LN39                      1002beb8     LIBCMTD:winsig.obj
 0001:0002aed0       _siglookup                 1002bed0 f   LIBCMTD:winsig.obj
 0001:0002b290       $LN49                      1002c290     LIBCMTD:winsig.obj
 0001:0002b2a4       $LN46                      1002c2a4     LIBCMTD:winsig.obj
 0001:0002b2bc       $LN50                      1002c2bc     LIBCMTD:winsig.obj
 0001:0002b2c4       $LN47                      1002c2c4     LIBCMTD:winsig.obj
 0001:0002ca90       ?DebuggerProbe@@YAHK@Z     1002da90 f   LIBCMTD:error.obj
 0001:0002cb30       ?DebuggerRuntime@@YAHKHPAXPB_W@Z 1002db30 f   LIBCMTD:error.obj
 0001:0002cea0       ?_getMemBlockDataString@@YAXPAD00I@Z 1002dea0 f   LIBCMTD:error.obj
 0001:0002cf10       ?failwithmessage@@YAXPAXHHPBD@Z 1002df10 f   LIBCMTD:error.obj
 0001:0002d320       $$000000                   1002e320     LIBCMTD:lowhelpr.obj
 0001:0002d6a0       ?CallCatchBlock@@YAPAXPAUEHExceptionRecord@@PAUEHRegistrationNode@@PAU_CONTEXT@@PBU_s_FuncInfo@@PAXHK@Z 1002e6a0 f   LIBCMTD:frame.obj
 0001:0002d940       ?CallUnexpected@@YAXPBU_s_ESTypeList@@@Z 1002e940 f   LIBCMTD:frame.obj
 0001:0002d98a       __catch$?CallUnexpected@@YAXPBU_s_ESTypeList@@@Z$0 1002e98a f   LIBCMTD:frame.obj
 0001:0002d9d0       ?CatchIt@@YAXPAUEHExceptionRecord@@PAUEHRegistrationNode@@PAU_CONTEXT@@PAXPBU_s_FuncInfo@@PBU_s_HandlerType@@PBU_s_CatchableType@@PBU_s_TryBlockMapEntry@@H1E@Z 1002e9d0 f   LIBCMTD:frame.obj
 0001:0002da90       ?ExFilterRethrow@@YAHPAU_EXCEPTION_POINTERS@@@Z 1002ea90 f   LIBCMTD:frame.obj
 0001:0002db00       ?FindHandler@@YAXPAUEHExceptionRecord@@PAUEHRegistrationNode@@PAU_CONTEXT@@PAXPBU_s_FuncInfo@@EH1@Z 1002eb00 f   LIBCMTD:frame.obj
 0001:0002dfd0       ?FindHandlerForForeignException@@YAXPAUEHExceptionRecord@@PAUEHRegistrationNode@@PAU_CONTEXT@@PAXPBU_s_FuncInfo@@HH1@Z 1002efd0 f   LIBCMTD:frame.obj
 0001:0002e160       ?IsInExceptionSpec@@YAEPAUEHExceptionRecord@@PBU_s_ESTypeList@@@Z 1002f160 f   LIBCMTD:frame.obj
 0001:0002e220       ?Is_bad_exception_allowed@@YAEPBU_s_ESTypeList@@@Z 1002f220 f   LIBCMTD:frame.obj
 0001:00030140       __cftoe2_l                 10031140 f   LIBCMTD:cvt.obj
 0001:000307a0       __cftof2_l                 100317a0 f   LIBCMTD:cvt.obj
 0001:000311c0       __shift                    100321c0 f   LIBCMTD:cvt.obj
 0001:000314a0       _xcptlookup                100324a0 f   LIBCMTD:winxfltr.obj
 0001:000316d0       _parse_cmdline             100326d0 f   LIBCMTD:stdargv.obj
 0001:000336f8       $LN172                     100346f8     LIBCMTD:output.obj
 0001:00033718       $LN173                     10034718     LIBCMTD:output.obj
 0001:00033730       $LN168                     10034730     LIBCMTD:output.obj
 0001:00033744       $LN174                     10034744     LIBCMTD:output.obj
 0001:00033758       $LN169                     10034758     LIBCMTD:output.obj
 0001:00033788       $LN175                     10034788     LIBCMTD:output.obj
 0001:000337c4       $LN170                     100347c4     LIBCMTD:output.obj
 0001:00033860       _write_char                10034860 f   LIBCMTD:output.obj
 0001:00033900       _write_multi_char          10034900 f   LIBCMTD:output.obj
 0001:00033940       _write_string              10034940 f   LIBCMTD:output.obj
 0001:00035460       ?__crtGetLocaleInfoA_stat@@YAHPAUlocaleinfo_struct@@PB_WKPADH@Z 10036460 f   LIBCMTD:a_loc.obj
 0001:00035c00       __is_LFH_enabled           10036c00 f   LIBCMTD:expand.obj
 0001:000373c0       _fix_grouping              100383c0 f   LIBCMTD:initmon.obj
 0001:00037840       _fix_grouping              10038840 f   LIBCMTD:initnum.obj
 0001:00038300       __get_lc_time              10039300 f   LIBCMTD:inittime.obj
 0001:00039240       ?__crtGetStringTypeA_stat@@YAHPAUlocaleinfo_struct@@KPBDHPAGHH@Z 1003a240 f   LIBCMTD:a_str.obj
 0001:00039bc0       _cmpBYTE                   1003abc0 f   LIBCMTD:memcmp.obj
 0001:00039bf0       _cmpDWORD                  1003abf0 f   LIBCMTD:memcmp.obj
 0001:00039cc0       _cmpResult                 1003acc0 f   LIBCMTD:memcmp.obj
 0001:00039cf0       _cmpWORD                   1003acf0 f   LIBCMTD:memcmp.obj
 0001:00039f14       $LN22                      1003af14     LIBCMTD:memcmp.obj
 0001:00039f30       _unaligned_memcmp          1003af30 f   LIBCMTD:memcmp.obj
 0001:0003a5b4       $LN79                      1003b5b4     LIBCMTD:memcmp.obj
 0001:0003a810       _GetLocaleNameFromDefault  1003b810 f   LIBCMTD:getqloc.obj
 0001:0003a8b0       _GetLocaleNameFromLangCountry 1003b8b0 f   LIBCMTD:getqloc.obj
 0001:0003a990       _GetLocaleNameFromLanguage 1003b990 f   LIBCMTD:getqloc.obj
 0001:0003aa20       _GetPrimaryLen             1003ba20 f   LIBCMTD:getqloc.obj
 0001:0003aaa0       _LangCountryEnumProcEx@12  1003baa0 f   LIBCMTD:getqloc.obj
 0001:0003b000       _LanguageEnumProcEx@12     1003c000 f   LIBCMTD:getqloc.obj
 0001:0003b140       _ProcessCodePage           1003c140 f   LIBCMTD:getqloc.obj
 0001:0003b1f0       _TestDefaultCountry        1003c1f0 f   LIBCMTD:getqloc.obj
 0001:0003b250       _TestDefaultLanguage       1003c250 f   LIBCMTD:getqloc.obj
 0001:0003b2a0       _TranslateName             1003c2a0 f   LIBCMTD:getqloc.obj
 0001:0003d2e0       _refresh_std_handles       1003e2e0 f   LIBCMTD:write.obj
 0001:0003e110       $$000000                   1003f110     LIBCMTD:exsup.obj
 0001:0003e130       __unwind_handler           1003f130 f   LIBCMTD:exsup.obj
 0001:000405e8       $LN161                     100415e8     LIBCMTD:woutput.obj
 0001:00040608       $LN162                     10041608     LIBCMTD:woutput.obj
 0001:00040620       $LN157                     10041620     LIBCMTD:woutput.obj
 0001:00040634       $LN163                     10041634     LIBCMTD:woutput.obj
 0001:00040648       $LN158                     10041648     LIBCMTD:woutput.obj
 0001:00040678       $LN164                     10041678     LIBCMTD:woutput.obj
 0001:000406b4       $LN159                     100416b4     LIBCMTD:woutput.obj
 0001:000406f0       _write_char                100416f0 f   LIBCMTD:woutput.obj
 0001:00040750       _write_multi_char          10041750 f   LIBCMTD:woutput.obj
 0001:00040790       _write_string              10041790 f   LIBCMTD:woutput.obj
 0001:00040c50       @x64toa_s@24               10041c50 f   LIBCMTD:xtoas.obj
 0001:000411b0       _xtoa_s@20                 100421b0 f   LIBCMTD:xtoas.obj
 0001:00041d80       ?wcsncnt@@YAIPB_WI@Z       10042d80 f   LIBCMTD:wcstombs.obj
 0001:000426c0       @x64tow_s@24               100436c0 f   LIBCMTD:xtows.obj
 0001:00042c30       _xtow_s@20                 10043c30 f   LIBCMTD:xtows.obj
 0001:00043030       ?GetPdbDll@@YAPAUHINSTANCE__@@XZ 10044030 f   LIBCMTD:pdblkup.obj
 0001:00043170       ?GetPdbDllFromInstallPath@@YAPAUHINSTANCE__@@XZ 10044170 f   LIBCMTD:pdblkup.obj
 0001:00043390       ?GetPdbDllPathFromFilePath@@YAHPB_WPA_WI@Z 10044390 f   LIBCMTD:pdblkup.obj
 0001:00047d6c       $LN57                      10048d6c     LIBCMTD:undname.obj
 0001:00047d98       $LN53                      10048d98     LIBCMTD:undname.obj
 0001:00047db8       $LN58                      10048db8     LIBCMTD:undname.obj
 0001:00047dec       $LN54                      10048dec     LIBCMTD:undname.obj
 0001:00047e48       $LN59                      10048e48     LIBCMTD:undname.obj
 0001:00047e58       $LN55                      10048e58     LIBCMTD:undname.obj
 0001:00047e78       $LN60                      10048e78     LIBCMTD:undname.obj
 0001:00047e80       $LN56                      10048e80     LIBCMTD:undname.obj
 0001:00047ff0       $LN18                      10048ff0     LIBCMTD:undname.obj
 0001:00048010       $LN17                      10049010     LIBCMTD:undname.obj
 0001:00049080       $LN16                      1004a080     LIBCMTD:undname.obj
 0001:000490a0       $LN15                      1004a0a0     LIBCMTD:undname.obj
 0001:00049234       $LN17                      1004a234     LIBCMTD:undname.obj
 0001:00049254       $LN18                      1004a254     LIBCMTD:undname.obj
 0001:0004925c       $LN16                      1004a25c     LIBCMTD:undname.obj
 0001:0004a5c0       $LN62                      1004b5c0     LIBCMTD:undname.obj
 0001:0004a5dc       $LN59                      1004b5dc     LIBCMTD:undname.obj
 0001:0004a63c       $LN63                      1004b63c     LIBCMTD:undname.obj
 0001:0004a670       $LN60                      1004b670     LIBCMTD:undname.obj
 0001:0004a6d0       $LN64                      1004b6d0     LIBCMTD:undname.obj
 0001:0004a6e4       $LN65                      1004b6e4     LIBCMTD:undname.obj
 0001:0004a6ec       $LN61                      1004b6ec     LIBCMTD:undname.obj
 0001:0004aa28       $LN28                      1004ba28     LIBCMTD:undname.obj
 0001:0004aa3c       $LN26                      1004ba3c     LIBCMTD:undname.obj
 0001:0004aa80       $LN29                      1004ba80     LIBCMTD:undname.obj
 0001:0004aaa4       $LN27                      1004baa4     LIBCMTD:undname.obj
 0001:0004b414       $LN40                      1004c414     LIBCMTD:undname.obj
 0001:0004b42c       $LN39                      1004c42c     LIBCMTD:undname.obj
 0001:0004c0d4       $LN34                      1004d0d4     LIBCMTD:undname.obj
 0001:0004c0f8       $LN33                      1004d0f8     LIBCMTD:undname.obj
 0001:0004c14c       $LN35                      1004d14c     LIBCMTD:undname.obj
 0001:0004cd34       $LN118                     1004dd34     LIBCMTD:undname.obj
 0001:0004cd50       $LN119                     1004dd50     LIBCMTD:undname.obj
 0001:0004cd78       $LN116                     1004dd78     LIBCMTD:undname.obj
 0001:0004cdcc       $LN120                     1004ddcc     LIBCMTD:undname.obj
 0001:0004cde0       $LN117                     1004dde0     LIBCMTD:undname.obj
 0001:0004ce34       $LN121                     1004de34     LIBCMTD:undname.obj
 0001:0004d870       ?und_memcpy@@YAXPADPBDI@Z  1004e870 f   LIBCMTD:undname.obj
 0001:0004d8b0       ?und_strlen@@YAIPBD@Z      1004e8b0 f   LIBCMTD:undname.obj
 0001:0004d8f0       ?und_strncmp@@YAIPBD0I@Z   1004e8f0 f   LIBCMTD:undname.obj
 0001:0004e6c0       $$000000                   1004f6c0     LIBCMTD:strrchr.obj
 0001:0004f090       $$000000                   10050090     LIBCMTD:lldiv.obj
 0001:0004f140       $$000000                   10050140     LIBCMTD:llrem.obj
 0001:0004f200       $$000000                   10050200     LIBCMTD:llshl.obj
 0001:0004f220       $$000000                   10050220     LIBCMTD:ullshr.obj
 0001:0004f3f0       ?x_ismbbtype_l@@YAHPAUlocaleinfo_struct@@IHH@Z 100503f0 f   LIBCMTD:ismbbyte.obj
 0001:00050330       $$000000                   10051330     LIBCMTD:ulldiv.obj
 0001:000503a0       $$000000                   100513a0     LIBCMTD:ullrem.obj
 0001:00054110       $LN425                     10055110     LIBCMTD:outputp.obj
 0001:00054130       $LN426                     10055130     LIBCMTD:outputp.obj
 0001:00054148       $LN421                     10055148     LIBCMTD:outputp.obj
 0001:0005415c       $LN427                     1005515c     LIBCMTD:outputp.obj
 0001:00054170       $LN422                     10055170     LIBCMTD:outputp.obj
 0001:000541a0       $LN428                     100551a0     LIBCMTD:outputp.obj
 0001:000541dc       $LN423                     100551dc     LIBCMTD:outputp.obj
 0001:00054214       $LN429                     10055214     LIBCMTD:outputp.obj
 0001:00054550       _write_char                10055550 f   LIBCMTD:outputp.obj
 0001:000545f0       _write_multi_char          100555f0 f   LIBCMTD:outputp.obj
 0001:00054630       _write_string              10055630 f   LIBCMTD:outputp.obj
 0001:00055e10       $LN181                     10056e10     LIBCMTD:outputs.obj
 0001:00055e30       $LN182                     10056e30     LIBCMTD:outputs.obj
 0001:00055e48       $LN177                     10056e48     LIBCMTD:outputs.obj
 0001:00055e5c       $LN183                     10056e5c     LIBCMTD:outputs.obj
 0001:00055e70       $LN178                     10056e70     LIBCMTD:outputs.obj
 0001:00055ea0       $LN184                     10056ea0     LIBCMTD:outputs.obj
 0001:00055edc       $LN179                     10056edc     LIBCMTD:outputs.obj
 0001:00055f20       _write_char                10056f20 f   LIBCMTD:outputs.obj
 0001:00055fc0       _write_multi_char          10056fc0 f   LIBCMTD:outputs.obj
 0001:00056000       _write_string              10057000 f   LIBCMTD:outputs.obj
 0001:00056ed0       ___createFile              10057ed0 f   LIBCMTD:wopen.obj
 0001:000583f8       $LN138                     100593f8     LIBCMTD:wopen.obj
 0001:00058410       $LN137                     10059410     LIBCMTD:wopen.obj
 0001:00058484       $LN139                     10059484     LIBCMTD:wopen.obj
 0001:00058498       $LN140                     10059498     LIBCMTD:wopen.obj
 0001:000584e0       $$000000                   100594e0     LIBCMTD:strncmp.obj
 0001:0005c534       $LN399                     1005d534     LIBCMTD:woutputp.obj
 0001:0005c554       $LN400                     1005d554     LIBCMTD:woutputp.obj
 0001:0005c56c       $LN395                     1005d56c     LIBCMTD:woutputp.obj
 0001:0005c580       $LN401                     1005d580     LIBCMTD:woutputp.obj
 0001:0005c594       $LN396                     1005d594     LIBCMTD:woutputp.obj
 0001:0005c5c4       $LN402                     1005d5c4     LIBCMTD:woutputp.obj
 0001:0005c600       $LN397                     1005d600     LIBCMTD:woutputp.obj
 0001:0005c638       $LN403                     1005d638     LIBCMTD:woutputp.obj
 0001:0005c660       _write_char                1005d660 f   LIBCMTD:woutputp.obj
 0001:0005c6c0       _write_multi_char          1005d6c0 f   LIBCMTD:woutputp.obj
 0001:0005c700       _write_string              1005d700 f   LIBCMTD:woutputp.obj
 0001:0005dcc0       $LN170                     1005ecc0     LIBCMTD:woutputs.obj
 0001:0005dce0       $LN171                     1005ece0     LIBCMTD:woutputs.obj
 0001:0005dcf8       $LN166                     1005ecf8     LIBCMTD:woutputs.obj
 0001:0005dd0c       $LN172                     1005ed0c     LIBCMTD:woutputs.obj
 0001:0005dd20       $LN167                     1005ed20     LIBCMTD:woutputs.obj
 0001:0005dd50       $LN173                     1005ed50     LIBCMTD:woutputs.obj
 0001:0005dd8c       $LN168                     1005ed8c     LIBCMTD:woutputs.obj
 0001:0005ddd0       _write_char                1005edd0 f   LIBCMTD:woutputs.obj
 0001:0005de30       _write_multi_char          1005ee30 f   LIBCMTD:woutputs.obj
 0001:0005de70       _write_string              1005ee70 f   LIBCMTD:woutputs.obj
 0001:00060654       $LN137                     10061654     LIBCMTD:strgtold.obj
 0001:00060684       $LN138                     10061684     LIBCMTD:strgtold.obj
 0001:00060694       $LN134                     10061694     LIBCMTD:strgtold.obj
 0001:000606d0       $LN139                     100616d0     LIBCMTD:strgtold.obj
 0001:000606dc       $LN135                     100616dc     LIBCMTD:strgtold.obj
 0001:00060718       $LN140                     10061718     LIBCMTD:strgtold.obj
 0001:00060724       $LN136                     10061724     LIBCMTD:strgtold.obj
 0001:00060e20       ___abstract_cw_sse2        10061e20 f   LIBCMTD:ieee87.obj
 0001:00060f70       ___abstract_sw_sse2        10061f70 f   LIBCMTD:ieee87.obj
 0001:00061000       ___clearfp_sse2            10062000 f   LIBCMTD:ieee87.obj
 0001:000610d0       ___control87_sse2          100620d0 f   LIBCMTD:ieee87.obj
 0001:00061150       ___fpreset_sse2            10062150 f   LIBCMTD:ieee87.obj
 0001:00061170       ___hw_cw_sse2              10062170 f   LIBCMTD:ieee87.obj
 0001:000612c0       ___statusfp_sse2           100622c0 f   LIBCMTD:ieee87.obj
 0001:000612e0       __abstract_cw              100622e0 f   LIBCMTD:ieee87.obj
 0001:00061430       __abstract_sw              10062430 f   LIBCMTD:ieee87.obj
 0001:00061630       __hw_cw                    10062630 f   LIBCMTD:ieee87.obj
 0001:00061b40       ?strtoxl@@YAKPAUlocaleinfo_struct@@PBDPAPBDHH@Z 10062b40 f   LIBCMTD:strtol.obj
 0001:00062120       ?wcstoxl@@YAKPB_WPAPB_WHH@Z 10063120 f   LIBCMTD:wcstol.obj
 0001:00062560       ?wcstoxq@@YA_KPAUlocaleinfo_struct@@PB_WPAPB_WHH@Z 10063560 f   LIBCMTD:wcstoq.obj
 0001:000639c0       $$000000                   100649c0     LIBCMTD:_strnicm.obj
 0001:00063d30       ?strtoxq@@YA_KPAUlocaleinfo_struct@@PBDPAPBDHH@Z 10064d30 f   LIBCMTD:strtoq.obj
 0001:00064ab0       $$000000                   10065ab0     LIBCMTD:llmul.obj
 0001:00064d50       __unwindfunclet$??$?0AAV?$_Tree_iterator@V?$_Tree_val@U?$_Tree_simple_types@U?$pair@$$CBHPAVFontType@@@std@@@std@@@std@@@std@@_N@?$pair@V?$_Tree_iterator@V?$_Tree_val@U?$_Tree_simple_types@U?$pair@$$CBHPAVFontType@@@std@@@std@@@std@@@std@@_N@std@@QAE@AAV?$_Tree_iterator@V?$_Tree_val@U?$_Tree_simple_types@U?$pair@$$CBHPAVFontType@@@std@@@std@@@std@@@1@$$QA_NPAPAX@Z$0 10065d50 f   aFont.obj
 0001:00064d58       __ehhandler$??$?0AAV?$_Tree_iterator@V?$_Tree_val@U?$_Tree_simple_types@U?$pair@$$CBHPAVFontType@@@std@@@std@@@std@@@std@@_N@?$pair@V?$_Tree_iterator@V?$_Tree_val@U?$_Tree_simple_types@U?$pair@$$CBHPAVFontType@@@std@@@std@@@std@@@std@@_N@std@@QAE@AAV?$_Tree_iterator@V?$_Tree_val@U?$_Tree_simple_types@U?$pair@$$CBHPAVFontType@@@std@@@std@@@std@@@1@$$QA_NPAPAX@Z 10065d58 f   aFont.obj
 0001:00064d80       __unwindfunclet$??$?0AAV?$_Tree_iterator@V?$_Tree_val@U?$_Tree_simple_types@U?$pair@$$CBIPAUFunction@@@std@@@std@@@std@@@std@@_N@?$pair@V?$_Tree_iterator@V?$_Tree_val@U?$_Tree_simple_types@U?$pair@$$CBIPAUFunction@@@std@@@std@@@std@@@std@@_N@std@@QAE@AAV?$_Tree_iterator@V?$_Tree_val@U?$_Tree_simple_types@U?$pair@$$CBIPAUFunction@@@std@@@std@@@std@@@1@$$QA_NPAPAX@Z$0 10065d80 f   aFont.obj
 0001:00064d88       __ehhandler$??$?0AAV?$_Tree_iterator@V?$_Tree_val@U?$_Tree_simple_types@U?$pair@$$CBIPAUFunction@@@std@@@std@@@std@@@std@@_N@?$pair@V?$_Tree_iterator@V?$_Tree_val@U?$_Tree_simple_types@U?$pair@$$CBIPAUFunction@@@std@@@std@@@std@@@std@@_N@std@@QAE@AAV?$_Tree_iterator@V?$_Tree_val@U?$_Tree_simple_types@U?$pair@$$CBIPAUFunction@@@std@@@std@@@std@@@1@$$QA_NPAPAX@Z 10065d88 f   aFont.obj
 0001:00064db0       __unwindfunclet$??$?0V?$_Tree_iterator@V?$_Tree_val@U?$_Tree_simple_types@U?$pair@$$CBHPAVFontType@@@std@@@std@@@std@@@std@@_N@?$pair@V?$_Tree_iterator@V?$_Tree_val@U?$_Tree_simple_types@U?$pair@$$CBHPAVFontType@@@std@@@std@@@std@@@std@@_N@std@@QAE@$$QAU01@PAPAX@Z$0 10065db0 f   aFont.obj
 0001:00064db8       __ehhandler$??$?0V?$_Tree_iterator@V?$_Tree_val@U?$_Tree_simple_types@U?$pair@$$CBHPAVFontType@@@std@@@std@@@std@@@std@@_N@?$pair@V?$_Tree_iterator@V?$_Tree_val@U?$_Tree_simple_types@U?$pair@$$CBHPAVFontType@@@std@@@std@@@std@@@std@@_N@std@@QAE@$$QAU01@PAPAX@Z 10065db8 f   aFont.obj
 0001:00064de0       __unwindfunclet$??$?0V?$_Tree_iterator@V?$_Tree_val@U?$_Tree_simple_types@U?$pair@$$CBHPAVFontType@@@std@@@std@@@std@@@std@@_N@?$pair@V?$_Tree_iterator@V?$_Tree_val@U?$_Tree_simple_types@U?$pair@$$CBHPAVFontType@@@std@@@std@@@std@@@std@@_N@std@@QAE@$$QAV?$_Tree_iterator@V?$_Tree_val@U?$_Tree_simple_types@U?$pair@$$CBHPAVFontType@@@std@@@std@@@std@@@1@$$QA_NPAPAX@Z$0 10065de0 f   aFont.obj
 0001:00064de8       __ehhandler$??$?0V?$_Tree_iterator@V?$_Tree_val@U?$_Tree_simple_types@U?$pair@$$CBHPAVFontType@@@std@@@std@@@std@@@std@@_N@?$pair@V?$_Tree_iterator@V?$_Tree_val@U?$_Tree_simple_types@U?$pair@$$CBHPAVFontType@@@std@@@std@@@std@@@std@@_N@std@@QAE@$$QAV?$_Tree_iterator@V?$_Tree_val@U?$_Tree_simple_types@U?$pair@$$CBHPAVFontType@@@std@@@std@@@std@@@1@$$QA_NPAPAX@Z 10065de8 f   aFont.obj
 0001:00064e10       __unwindfunclet$??$?0V?$_Tree_iterator@V?$_Tree_val@U?$_Tree_simple_types@U?$pair@$$CBIPAUFunction@@@std@@@std@@@std@@@std@@_N@?$pair@V?$_Tree_iterator@V?$_Tree_val@U?$_Tree_simple_types@U?$pair@$$CBIPAUFunction@@@std@@@std@@@std@@@std@@_N@std@@QAE@$$QAU01@PAPAX@Z$0 10065e10 f   aFont.obj
 0001:00064e18       __ehhandler$??$?0V?$_Tree_iterator@V?$_Tree_val@U?$_Tree_simple_types@U?$pair@$$CBIPAUFunction@@@std@@@std@@@std@@@std@@_N@?$pair@V?$_Tree_iterator@V?$_Tree_val@U?$_Tree_simple_types@U?$pair@$$CBIPAUFunction@@@std@@@std@@@std@@@std@@_N@std@@QAE@$$QAU01@PAPAX@Z 10065e18 f   aFont.obj
 0001:00064e40       __unwindfunclet$??$?0V?$_Tree_iterator@V?$_Tree_val@U?$_Tree_simple_types@U?$pair@$$CBIPAUFunction@@@std@@@std@@@std@@@std@@_N@?$pair@V?$_Tree_iterator@V?$_Tree_val@U?$_Tree_simple_types@U?$pair@$$CBIPAUFunction@@@std@@@std@@@std@@@std@@_N@std@@QAE@$$QAV?$_Tree_iterator@V?$_Tree_val@U?$_Tree_simple_types@U?$pair@$$CBIPAUFunction@@@std@@@std@@@std@@@1@$$QA_NPAPAX@Z$0 10065e40 f   aFont.obj
 0001:00064e48       __ehhandler$??$?0V?$_Tree_iterator@V?$_Tree_val@U?$_Tree_simple_types@U?$pair@$$CBIPAUFunction@@@std@@@std@@@std@@@std@@_N@?$pair@V?$_Tree_iterator@V?$_Tree_val@U?$_Tree_simple_types@U?$pair@$$CBIPAUFunction@@@std@@@std@@@std@@@std@@_N@std@@QAE@$$QAV?$_Tree_iterator@V?$_Tree_val@U?$_Tree_simple_types@U?$pair@$$CBIPAUFunction@@@std@@@std@@@std@@@1@$$QA_NPAPAX@Z 10065e48 f   aFont.obj
 0001:00064e70       __ehhandler$??$_Buynode@U?$pair@HPAVFontType@@@std@@@?$_Tree_buy@U?$pair@$$CBHPAVFontType@@@std@@V?$allocator@U?$pair@$$CBHPAVFontType@@@std@@@2@@std@@QAEPAU?$_Tree_node@U?$pair@$$CBHPAVFontType@@@std@@PAX@1@$$QAU?$pair@HPAVFontType@@@1@@Z 10065e70 f   aFont.obj
 0001:00064e90       __ehhandler$??$_Buynode@U?$pair@IPAUFunction@@@std@@@?$_Tree_buy@U?$pair@$$CBIPAUFunction@@@std@@V?$allocator@U?$pair@$$CBIPAUFunction@@@std@@@2@@std@@QAEPAU?$_Tree_node@U?$pair@$$CBIPAUFunction@@@std@@PAX@1@$$QAU?$pair@IPAUFunction@@@1@@Z 10065e90 f   aFont.obj
 0001:00064eb0       __unwindfunclet$??$_Insert_hint@AAU?$pair@$$CBHPAVFontType@@@std@@PAU?$_Tree_node@U?$pair@$$CBHPAVFontType@@@std@@PAX@2@@?$_Tree@V?$_Tmap_traits@HPAVFontType@@U?$less@H@std@@V?$allocator@U?$pair@$$CBHPAVFontType@@@std@@@3@$0A@@std@@@std@@IAE?AV?$_Tree_iterator@V?$_Tree_val@U?$_Tree_simple_types@U?$pair@$$CBHPAVFontType@@@std@@@std@@@std@@@1@V?$_Tree_const_iterator@V?$_Tree_val@U?$_Tree_simple_types@U?$pair@$$CBHPAVFontType@@@std@@@std@@@std@@@1@AAU?$pair@$$CBHPAVFontType@@@1@PAU?$_Tree_node@U?$pair@$$CBHPAVFontType@@@std@@PAX@1@@Z$2 10065eb0 f   aFont.obj
