 aMaterial

 Timestamp is 452fc0ca (Sat Oct 14 02:07:30 2006)

 Preferred load address is 10000000

 Start         Length     Name                   Class
 0001:00000000 0006b372H .text                   CODE
 0001:0006b380 00001822H .text$x                 CODE
 0001:0006cbb0 000000e9H .text$yc                CODE
 0001:0006cca0 0000044fH .text$yd                CODE
 0002:00000000 00000160H .idata$5                DATA
 0002:00000160 0000a202H .rdata                  DATA
 0002:0000a364 00000060H .rdata$debug            DATA
 0002:0000a3c4 0000028cH .rdata$r                DATA
 0002:0000a650 00000004H .rtc$IAA                DATA
 0002:0000a654 00000010H .rtc$IMZ                DATA
 0002:0000a664 00000004H .rtc$IZZ                DATA
 0002:0000a668 00000004H .rtc$TAA                DATA
 0002:0000a66c 00000010H .rtc$TMZ                DATA
 0002:0000a67c 00000004H .rtc$TZZ                DATA
 0002:0000a680 00001c28H .xdata$x                DATA
 0002:0000c2a8 00000050H .idata$2                DATA
 0002:0000c2f8 00000014H .idata$3                DATA
 0002:0000c30c 00000160H .idata$4                DATA
 0002:0000c46c 00000614H .idata$6                DATA
 0002:0000ca80 0000004fH .edata                  DATA
 0003:00000000 00000004H .CRT$XCA                DATA
 0003:00000004 00000004H .CRT$XCAA               DATA
 0003:00000008 0000000cH .CRT$XCU                DATA
 0003:00000014 00000004H .CRT$XCZ                DATA
 0003:00000018 00000004H .CRT$XIA                DATA
 0003:0000001c 00000010H .CRT$XIC                DATA
 0003:0000002c 00000004H .CRT$XIY                DATA
 0003:00000030 00000004H .CRT$XIZ                DATA
 0003:00000034 00000004H .CRT$XPA                DATA
 0003:00000038 00000004H .CRT$XPX                DATA
 0003:0000003c 00000004H .CRT$XPZ                DATA
 0003:00000040 00000004H .CRT$XTA                DATA
 0003:00000044 00000004H .CRT$XTB                DATA
 0003:00000048 00000004H .CRT$XTZ                DATA
 0003:00000080 000042ecH .data                   DATA
 0003:00004380 00008048H .bss                    DATA
 0004:00000000 000008e0H .data1                  DATA

  Address         Publics by Value              Rva+Base     Lib:Object

 0000:00000000       ___safe_se_handler_table   00000000     <absolute>
 0000:00000000       __except_list              00000000     <absolute>
 0000:00000000       ___safe_se_handler_count   00000000     <absolute>
 0001:00000000       ?PreInit@aMaterial@@YGXXZ  10001000 f   aMaterial.obj
 0001:000001b0       ?SetAPIMode@aMaterial@@YGXPAVPackClass@Packet@@@Z 100011b0 f   aMaterial.obj
 0001:00000200       ?Init@aMaterial@@YGXPAVPackClass@Packet@@@Z 10001200 f   aMaterial.obj
 0001:00000350       ?SetRenderDevice@aMaterial@@YGXPAVPackClass@Packet@@@Z 10001350 f   aMaterial.obj
 0001:000003e0       ?SetMaterialDX8@aMaterial@@YGXH@Z 100013e0 f   aMaterial.obj
 0001:00000530       ?SetMaterialOGL@aMaterial@@YGXH@Z 10001530 f   aMaterial.obj
 0001:000005d0       ?SetMaterial@aMaterial@@YGXPAVPackClass@Packet@@@Z 100015d0 f   aMaterial.obj
 0001:00000650       ?SetDefaultValues@aMaterial@@YGXH@Z 10001650 f   aMaterial.obj
 0001:00000760       ?CreateMaterial@aMaterial@@YGHXZ 10001760 f   aMaterial.obj
 0001:000008f0       ??0MaterialType@aMaterial@@QAE@XZ 100018f0 f i aMaterial.obj
 0001:00000970       ??0GenMaterial@aMaterial@@QAE@XZ 10001970 f i aMaterial.obj
 0001:00000a10       ?RemoveMaterial@aMaterial@@YGXH@Z 10001a10 f   aMaterial.obj
 0001:00000be0       ??_GMaterialType@aMaterial@@QAEPAXI@Z 10001be0 f i aMaterial.obj
 0001:00000c40       ??_GGenMaterial@aMaterial@@QAEPAXI@Z 10001c40 f i aMaterial.obj
 0001:00000ca0       ??1MaterialType@aMaterial@@QAE@XZ 10001ca0 f i aMaterial.obj
 0001:00000d20       ??1GenMaterial@aMaterial@@QAE@XZ 10001d20 f i aMaterial.obj
 0001:00000dc0       ?RemoveMaterial@aMaterial@@YGXPAVPackClass@Packet@@@Z 10001dc0 f   aMaterial.obj
 0001:00000ec0       ?CreateMaterial@aMaterial@@YGXPAVPackClass@Packet@@@Z 10001ec0 f   aMaterial.obj
 0001:00000fb0       ?SetMaterialAmbient@aMaterial@@YGXPAVPackClass@Packet@@@Z 10001fb0 f   aMaterial.obj
 0001:00001170       ?SetMaterialDiffuse@aMaterial@@YGXPAVPackClass@Packet@@@Z 10002170 f   aMaterial.obj
 0001:00001320       ?SetMaterialSpecular@aMaterial@@YGXPAVPackClass@Packet@@@Z 10002320 f   aMaterial.obj
 0001:000014e0       ?SetMaterialEmissive@aMaterial@@YGXPAVPackClass@Packet@@@Z 100024e0 f   aMaterial.obj
 0001:000016a0       ?RemoveTexture@aMaterial@@YGXH@Z 100026a0 f   aMaterial.obj
 0001:00001940       ??_GTextureType@aMaterial@@QAEPAXI@Z 10002940 f i aMaterial.obj
 0001:000019a0       ??1TextureType@aMaterial@@QAE@XZ 100029a0 f i aMaterial.obj
 0001:000019e0       ?SetProperties@aMaterial@@YGXPAVPackClass@Packet@@@Z 100029e0 f   aMaterial.obj
 0001:00001a10       ?FindMaterial@aMaterial@@YGXPAVPackClass@Packet@@@Z 10002a10 f   aMaterial.obj
 0001:00001a40       ?AddRAWTexture@aMaterial@@YGHPBDAAVBinClass@Data@@HH@Z 10002a40 f   aMaterial.obj
 0001:00001d30       ??0TextureType@aMaterial@@QAE@XZ 10002d30 f i aMaterial.obj
 0001:00001d80       ?AddPPMTexture@aMaterial@@YGHPBDAAVBinClass@Data@@@Z 10002d80 f   aMaterial.obj
 0001:000021a0       ?AddTGATexture@aMaterial@@YGHPBDAAVBinClass@Data@@@Z 100031a0 f   aMaterial.obj
 0001:00002850       ?AddBMPTexture@aMaterial@@YGHPBDAAVBinClass@Data@@@Z 10003850 f   aMaterial.obj
 0001:00002b90       ?LoadFontMaterial@aMaterial@@YGXPAVPackClass@Packet@@@Z 10003b90 f   aMaterial.obj
 0001:00002cf0       ?LoadTexture@aMaterial@@YGXPAVPackClass@Packet@@@Z 10003cf0 f   aMaterial.obj
 0001:00003380       ?UnloadTexture@aMaterial@@YGXPAVPackClass@Packet@@@Z 10004380 f   aMaterial.obj
 0001:000033b0       ?FindTexture@aMaterial@@YGXPAVPackClass@Packet@@@Z 100043b0 f   aMaterial.obj
 0001:000033e0       ?AddTexture@aMaterial@@YGXPAVPackClass@Packet@@@Z 100043e0 f   aMaterial.obj
 0001:00003560       ?RemoveTexture@aMaterial@@YGXPAVPackClass@Packet@@@Z 10004560 f   aMaterial.obj
 0001:00003590       ?Kill@aMaterial@@YGXPAVPackClass@Packet@@@Z 10004590 f   aMaterial.obj
 0001:000036c0       ??0?$vector@IV?$allocator@I@std@@@std@@QAE@XZ 100046c0 f i aMaterial.obj
 0001:00003720       ??1?$vector@IV?$allocator@I@std@@@std@@QAE@XZ 10004720 f i aMaterial.obj
 0001:00003760       ?empty@?$vector@IV?$allocator@I@std@@@std@@QBE_NXZ 10004760 f i aMaterial.obj
 0001:000037b0       ??A?$vector@IV?$allocator@I@std@@@std@@QAEAAII@Z 100047b0 f i aMaterial.obj
 0001:00003820       ?push_back@?$vector@IV?$allocator@I@std@@@std@@QAEXABI@Z 10004820 f i aMaterial.obj
 0001:000038c0       ??A?$map@HPAUTextureType@aMaterial@@U?$less@H@std@@V?$allocator@U?$pair@$$CBHPAUTextureType@aMaterial@@@std@@@4@@std@@QAEAAPAUTextureType@aMaterial@@ABH@Z 100048c0 f i aMaterial.obj
 0001:000039c0       ?begin@?$_Tree@V?$_Tmap_traits@HPAUTextureType@aMaterial@@U?$less@H@std@@V?$allocator@U?$pair@$$CBHPAUTextureType@aMaterial@@@std@@@4@$0A@@std@@@std@@QAE?AViterator@12@XZ 100049c0 f i aMaterial.obj
 0001:00003a10       ?end@?$_Tree@V?$_Tmap_traits@HPAUTextureType@aMaterial@@U?$less@H@std@@V?$allocator@U?$pair@$$CBHPAUTextureType@aMaterial@@@std@@@4@$0A@@std@@@std@@QAE?AViterator@12@XZ 10004a10 f i aMaterial.obj
 0001:00003a60       ?clear@?$_Tree@V?$_Tmap_traits@HPAUTextureType@aMaterial@@U?$less@H@std@@V?$allocator@U?$pair@$$CBHPAUTextureType@aMaterial@@@std@@@4@$0A@@std@@@std@@QAEXXZ 10004a60 f i aMaterial.obj
 0001:00003af0       ?find@?$_Tree@V?$_Tmap_traits@HPAUTextureType@aMaterial@@U?$less@H@std@@V?$allocator@U?$pair@$$CBHPAUTextureType@aMaterial@@@std@@@4@$0A@@std@@@std@@QAE?AViterator@12@ABH@Z 10004af0 f i aMaterial.obj
 0001:00003bf0       ??A?$map@HPAUMaterialType@aMaterial@@U?$less@H@std@@V?$allocator@U?$pair@$$CBHPAUMaterialType@aMaterial@@@std@@@4@@std@@QAEAAPAUMaterialType@aMaterial@@ABH@Z 10004bf0 f i aMaterial.obj
 0001:00003cf0       ?begin@?$_Tree@V?$_Tmap_traits@HPAUMaterialType@aMaterial@@U?$less@H@std@@V?$allocator@U?$pair@$$CBHPAUMaterialType@aMaterial@@@std@@@4@$0A@@std@@@std@@QAE?AViterator@12@XZ 10004cf0 f i aMaterial.obj
 0001:00003d40       ?end@?$_Tree@V?$_Tmap_traits@HPAUMaterialType@aMaterial@@U?$less@H@std@@V?$allocator@U?$pair@$$CBHPAUMaterialType@aMaterial@@@std@@@4@$0A@@std@@@std@@QAE?AViterator@12@XZ 10004d40 f i aMaterial.obj
 0001:00003d90       ?size@?$_Tree@V?$_Tmap_traits@HPAUMaterialType@aMaterial@@U?$less@H@std@@V?$allocator@U?$pair@$$CBHPAUMaterialType@aMaterial@@@std@@@4@$0A@@std@@@std@@QBEIXZ 10004d90 f i aMaterial.obj
 0001:00003dc0       ?clear@?$_Tree@V?$_Tmap_traits@HPAUMaterialType@aMaterial@@U?$less@H@std@@V?$allocator@U?$pair@$$CBHPAUMaterialType@aMaterial@@@std@@@4@$0A@@std@@@std@@QAEXXZ 10004dc0 f i aMaterial.obj
 0001:00003e50       ?find@?$_Tree@V?$_Tmap_traits@HPAUMaterialType@aMaterial@@U?$less@H@std@@V?$allocator@U?$pair@$$CBHPAUMaterialType@aMaterial@@@std@@@4@$0A@@std@@@std@@QAE?AViterator@12@ABH@Z 10004e50 f i aMaterial.obj
 0001:00003f50       ??Citerator@?$_Tree@V?$_Tmap_traits@HPAUMaterialType@aMaterial@@U?$less@H@std@@V?$allocator@U?$pair@$$CBHPAUMaterialType@aMaterial@@@std@@@4@$0A@@std@@@std@@QBEPAU?$pair@$$CBHPAUMaterialType@aMaterial@@@2@XZ 10004f50 f i aMaterial.obj
 0001:00003f90       ??Eiterator@?$_Tree@V?$_Tmap_traits@HPAUMaterialType@aMaterial@@U?$less@H@std@@V?$allocator@U?$pair@$$CBHPAUMaterialType@aMaterial@@@std@@@4@$0A@@std@@@std@@QAE?AV012@H@Z 10004f90 f i aMaterial.obj
 0001:00004010       ??8const_iterator@?$_Tree@V?$_Tmap_traits@HPAUMaterialType@aMaterial@@U?$less@H@std@@V?$allocator@U?$pair@$$CBHPAUMaterialType@aMaterial@@@std@@@4@$0A@@std@@@std@@QBE_NABV012@@Z 10005010 f i aMaterial.obj
 0001:00004050       ??9const_iterator@?$_Tree@V?$_Tmap_traits@HPAUMaterialType@aMaterial@@U?$less@H@std@@V?$allocator@U?$pair@$$CBHPAUMaterialType@aMaterial@@@std@@@4@$0A@@std@@@std@@QBE_NABV012@@Z 10005050 f i aMaterial.obj
 0001:000040a0       ??Citerator@?$_Tree@V?$_Tmap_traits@HPAUTextureType@aMaterial@@U?$less@H@std@@V?$allocator@U?$pair@$$CBHPAUTextureType@aMaterial@@@std@@@4@$0A@@std@@@std@@QBEPAU?$pair@$$CBHPAUTextureType@aMaterial@@@2@XZ 100050a0 f i aMaterial.obj
 0001:000040e0       ??Eiterator@?$_Tree@V?$_Tmap_traits@HPAUTextureType@aMaterial@@U?$less@H@std@@V?$allocator@U?$pair@$$CBHPAUTextureType@aMaterial@@@std@@@4@$0A@@std@@@std@@QAE?AV012@H@Z 100050e0 f i aMaterial.obj
 0001:00004160       ??8const_iterator@?$_Tree@V?$_Tmap_traits@HPAUTextureType@aMaterial@@U?$less@H@std@@V?$allocator@U?$pair@$$CBHPAUTextureType@aMaterial@@@std@@@4@$0A@@std@@@std@@QBE_NABV012@@Z 10005160 f i aMaterial.obj
 0001:000041a0       ??9const_iterator@?$_Tree@V?$_Tmap_traits@HPAUTextureType@aMaterial@@U?$less@H@std@@V?$allocator@U?$pair@$$CBHPAUTextureType@aMaterial@@@std@@@4@$0A@@std@@@std@@QBE_NABV012@@Z 100051a0 f i aMaterial.obj
 0001:000041f0       ??0?$allocator@I@std@@QAE@XZ 100051f0 f i aMaterial.obj
 0001:00004220       ?capacity@?$vector@IV?$allocator@I@std@@@std@@QBEIXZ 10005220 f i aMaterial.obj
 0001:00004280       ?begin@?$vector@IV?$allocator@I@std@@@std@@QAE?AViterator@12@XZ 10005280 f i aMaterial.obj
 0001:000042d0       ?end@?$vector@IV?$allocator@I@std@@@std@@QAE?AViterator@12@XZ 100052d0 f i aMaterial.obj
 0001:00004320       ?size@?$vector@IV?$allocator@I@std@@@std@@QBEIXZ 10005320 f i aMaterial.obj
 0001:00004380       ?insert@?$vector@IV?$allocator@I@std@@@std@@QAE?AViterator@12@V312@ABI@Z 10005380 f i aMaterial.obj
 0001:00004430       ?_Buy@?$vector@IV?$allocator@I@std@@@std@@IAE_NI@Z 10005430 f i aMaterial.obj
 0001:000044e0       ?_Tidy@?$vector@IV?$allocator@I@std@@@std@@IAEXXZ 100054e0 f i aMaterial.obj
 0001:00004580       ?_Ufill@?$vector@IV?$allocator@I@std@@@std@@IAEPAIPAIIABI@Z 10005580 f i aMaterial.obj
 0001:000045e0       ??0?$_Vector_val@IV?$allocator@I@std@@@std@@IAE@V?$allocator@I@1@@Z 100055e0 f i aMaterial.obj
 0001:00004630       ?_Key@?$_Tree@V?$_Tmap_traits@HPAUTextureType@aMaterial@@U?$less@H@std@@V?$allocator@U?$pair@$$CBHPAUTextureType@aMaterial@@@std@@@4@$0A@@std@@@std@@KGABHPAU_Node@?$_Tree_nod@V?$_Tmap_traits@HPAUTextureType@aMaterial@@U?$less@H@std@@V?$allocator@U?$pair@$$CBHPAUTextureType@aMaterial@@@std@@@4@$0A@@std@@@2@@Z 10005630 f i aMaterial.obj
 0001:00004680       ?insert@?$_Tree@V?$_Tmap_traits@HPAUTextureType@aMaterial@@U?$less@H@std@@V?$allocator@U?$pair@$$CBHPAUTextureType@aMaterial@@@std@@@4@$0A@@std@@@std@@QAE?AViterator@12@V312@ABU?$pair@$$CBHPAUTextureType@aMaterial@@@2@@Z 10005680 f i aMaterial.obj
 0001:00004c50       ??0StringClass@Data@@QAE@XZ 10005c50 f i aMaterial.obj
 0001:00004ca0       ??1StringClass@Data@@QAE@XZ 10005ca0 f i aMaterial.obj
 0001:00004cd0       ?String@StringClass@Data@@QAEPBDXZ 10005cd0 f i aMaterial.obj
 0001:00004d10       ?Clear@StringClass@Data@@QAEXXZ 10005d10 f i aMaterial.obj
 0001:00004d70       ??6StringClass@Data@@QAEXPBD@Z 10005d70 f i aMaterial.obj
 0001:00004dd0       ?lower_bound@?$_Tree@V?$_Tmap_traits@HPAUTextureType@aMaterial@@U?$less@H@std@@V?$allocator@U?$pair@$$CBHPAUTextureType@aMaterial@@@std@@@4@$0A@@std@@@std@@QAE?AViterator@12@ABH@Z 10005dd0 f i aMaterial.obj
 0001:00004e30       ??HStringClass@Data@@QAE?AV01@PBD@Z 10005e30 f i aMaterial.obj
 0001:00004f30       ?_Erase@?$_Tree@V?$_Tmap_traits@HPAUTextureType@aMaterial@@U?$less@H@std@@V?$allocator@U?$pair@$$CBHPAUTextureType@aMaterial@@@std@@@4@$0A@@std@@@std@@IAEXPAU_Node@?$_Tree_nod@V?$_Tmap_traits@HPAUTextureType@aMaterial@@U?$less@H@std@@V?$allocator@U?$pair@$$CBHPAUTextureType@aMaterial@@@std@@@4@$0A@@std@@@2@@Z 10005f30 f i aMaterial.obj
 0001:00004fd0       ?_Lmost@?$_Tree@V?$_Tmap_traits@HPAUTextureType@aMaterial@@U?$less@H@std@@V?$allocator@U?$pair@$$CBHPAUTextureType@aMaterial@@@std@@@4@$0A@@std@@@std@@IAEAAPAU_Node@?$_Tree_nod@V?$_Tmap_traits@HPAUTextureType@aMaterial@@U?$less@H@std@@V?$allocator@U?$pair@$$CBHPAUTextureType@aMaterial@@@std@@@4@$0A@@std@@@2@XZ 10005fd0 f i aMaterial.obj
 0001:00005020       ?_Rmost@?$_Tree@V?$_Tmap_traits@HPAUTextureType@aMaterial@@U?$less@H@std@@V?$allocator@U?$pair@$$CBHPAUTextureType@aMaterial@@@std@@@4@$0A@@std@@@std@@IAEAAPAU_Node@?$_Tree_nod@V?$_Tmap_traits@HPAUTextureType@aMaterial@@U?$less@H@std@@V?$allocator@U?$pair@$$CBHPAUTextureType@aMaterial@@@std@@@4@$0A@@std@@@2@XZ 10006020 f i aMaterial.obj
 0001:00005070       ?_Root@?$_Tree@V?$_Tmap_traits@HPAUTextureType@aMaterial@@U?$less@H@std@@V?$allocator@U?$pair@$$CBHPAUTextureType@aMaterial@@@std@@@4@$0A@@std@@@std@@IAEAAPAU_Node@?$_Tree_nod@V?$_Tmap_traits@HPAUTextureType@aMaterial@@U?$less@H@std@@V?$allocator@U?$pair@$$CBHPAUTextureType@aMaterial@@@std@@@4@$0A@@std@@@2@XZ 10006070 f i aMaterial.obj
 0001:000050c0       ??R?$less@H@std@@QBE_NABH0@Z 100060c0 f i aMaterial.obj
 0001:00005100       ?_Key@?$_Tree@V?$_Tmap_traits@HPAUMaterialType@aMaterial@@U?$less@H@std@@V?$allocator@U?$pair@$$CBHPAUMaterialType@aMaterial@@@std@@@4@$0A@@std@@@std@@KGABHPAU_Node@?$_Tree_nod@V?$_Tmap_traits@HPAUMaterialType@aMaterial@@U?$less@H@std@@V?$allocator@U?$pair@$$CBHPAUMaterialType@aMaterial@@@std@@@4@$0A@@std@@@2@@Z 10006100 f i aMaterial.obj
 0001:00005150       ?Size@StringClass@Data@@QAEHXZ 10006150 f i aMaterial.obj
 0001:000051a0       ??4StringClass@Data@@QAEXPBD@Z 100061a0 f i aMaterial.obj
 0001:000051f0       ?SetData@StringClass@Data@@QAEXPBD@Z 100061f0 f i aMaterial.obj
 0001:00005250       ??4StringClass@Data@@QAEXPAD@Z 10006250 f i aMaterial.obj
 0001:000052a0       ?SetData@StringClass@Data@@QAEXPAD@Z 100062a0 f i aMaterial.obj
 0001:00005300       ?insert@?$_Tree@V?$_Tmap_traits@HPAUMaterialType@aMaterial@@U?$less@H@std@@V?$allocator@U?$pair@$$CBHPAUMaterialType@aMaterial@@@std@@@4@$0A@@std@@@std@@QAE?AViterator@12@V312@ABU?$pair@$$CBHPAUMaterialType@aMaterial@@@2@@Z 10006300 f i aMaterial.obj
 0001:000058d0       ?lower_bound@?$_Tree@V?$_Tmap_traits@HPAUMaterialType@aMaterial@@U?$less@H@std@@V?$allocator@U?$pair@$$CBHPAUMaterialType@aMaterial@@@std@@@4@$0A@@std@@@std@@QAE?AViterator@12@ABH@Z 100068d0 f i aMaterial.obj
 0001:00005930       ?_Erase@?$_Tree@V?$_Tmap_traits@HPAUMaterialType@aMaterial@@U?$less@H@std@@V?$allocator@U?$pair@$$CBHPAUMaterialType@aMaterial@@@std@@@4@$0A@@std@@@std@@IAEXPAU_Node@?$_Tree_nod@V?$_Tmap_traits@HPAUMaterialType@aMaterial@@U?$less@H@std@@V?$allocator@U?$pair@$$CBHPAUMaterialType@aMaterial@@@std@@@4@$0A@@std@@@2@@Z 10006930 f i aMaterial.obj
 0001:000059d0       ?_Lmost@?$_Tree@V?$_Tmap_traits@HPAUMaterialType@aMaterial@@U?$less@H@std@@V?$allocator@U?$pair@$$CBHPAUMaterialType@aMaterial@@@std@@@4@$0A@@std@@@std@@IAEAAPAU_Node@?$_Tree_nod@V?$_Tmap_traits@HPAUMaterialType@aMaterial@@U?$less@H@std@@V?$allocator@U?$pair@$$CBHPAUMaterialType@aMaterial@@@std@@@4@$0A@@std@@@2@XZ 100069d0 f i aMaterial.obj
 0001:00005a20       ?_Rmost@?$_Tree@V?$_Tmap_traits@HPAUMaterialType@aMaterial@@U?$less@H@std@@V?$allocator@U?$pair@$$CBHPAUMaterialType@aMaterial@@@std@@@4@$0A@@std@@@std@@IAEAAPAU_Node@?$_Tree_nod@V?$_Tmap_traits@HPAUMaterialType@aMaterial@@U?$less@H@std@@V?$allocator@U?$pair@$$CBHPAUMaterialType@aMaterial@@@std@@@4@$0A@@std@@@2@XZ 10006a20 f i aMaterial.obj
 0001:00005a70       ?_Root@?$_Tree@V?$_Tmap_traits@HPAUMaterialType@aMaterial@@U?$less@H@std@@V?$allocator@U?$pair@$$CBHPAUMaterialType@aMaterial@@@std@@@4@$0A@@std@@@std@@IAEAAPAU_Node@?$_Tree_nod@V?$_Tmap_traits@HPAUMaterialType@aMaterial@@U?$less@H@std@@V?$allocator@U?$pair@$$CBHPAUMaterialType@aMaterial@@@std@@@4@$0A@@std@@@2@XZ 10006a70 f i aMaterial.obj
 0001:00005ac0       ??0iterator@?$_Tree@V?$_Tmap_traits@HPAUMaterialType@aMaterial@@U?$less@H@std@@V?$allocator@U?$pair@$$CBHPAUMaterialType@aMaterial@@@std@@@4@$0A@@std@@@std@@QAE@PAU_Node@?$_Tree_nod@V?$_Tmap_traits@HPAUMaterialType@aMaterial@@U?$less@H@std@@V?$allocator@U?$pair@$$CBHPAUMaterialType@aMaterial@@@std@@@4@$0A@@std@@@2@@Z 10006ac0 f i aMaterial.obj
 0001:00005b10       ??Diterator@?$_Tree@V?$_Tmap_traits@HPAUMaterialType@aMaterial@@U?$less@H@std@@V?$allocator@U?$pair@$$CBHPAUMaterialType@aMaterial@@@std@@@4@$0A@@std@@@std@@QBEAAU?$pair@$$CBHPAUMaterialType@aMaterial@@@2@XZ 10006b10 f i aMaterial.obj
 0001:00005b50       ??Eiterator@?$_Tree@V?$_Tmap_traits@HPAUMaterialType@aMaterial@@U?$less@H@std@@V?$allocator@U?$pair@$$CBHPAUMaterialType@aMaterial@@@std@@@4@$0A@@std@@@std@@QAEAAV012@XZ 10006b50 f i aMaterial.obj
 0001:00005ba0       ?_Mynode@const_iterator@?$_Tree@V?$_Tmap_traits@HPAUMaterialType@aMaterial@@U?$less@H@std@@V?$allocator@U?$pair@$$CBHPAUMaterialType@aMaterial@@@std@@@4@$0A@@std@@@std@@QBEPAU_Node@?$_Tree_nod@V?$_Tmap_traits@HPAUMaterialType@aMaterial@@U?$less@H@std@@V?$allocator@U?$pair@$$CBHPAUMaterialType@aMaterial@@@std@@@4@$0A@@std@@@3@XZ 10006ba0 f i aMaterial.obj
 0001:00005bd0       ??0iterator@?$_Tree@V?$_Tmap_traits@HPAUTextureType@aMaterial@@U?$less@H@std@@V?$allocator@U?$pair@$$CBHPAUTextureType@aMaterial@@@std@@@4@$0A@@std@@@std@@QAE@PAU_Node@?$_Tree_nod@V?$_Tmap_traits@HPAUTextureType@aMaterial@@U?$less@H@std@@V?$allocator@U?$pair@$$CBHPAUTextureType@aMaterial@@@std@@@4@$0A@@std@@@2@@Z 10006bd0 f i aMaterial.obj
 0001:00005c20       ??Diterator@?$_Tree@V?$_Tmap_traits@HPAUTextureType@aMaterial@@U?$less@H@std@@V?$allocator@U?$pair@$$CBHPAUTextureType@aMaterial@@@std@@@4@$0A@@std@@@std@@QBEAAU?$pair@$$CBHPAUTextureType@aMaterial@@@2@XZ 10006c20 f i aMaterial.obj
 0001:00005c60       ??Eiterator@?$_Tree@V?$_Tmap_traits@HPAUTextureType@aMaterial@@U?$less@H@std@@V?$allocator@U?$pair@$$CBHPAUTextureType@aMaterial@@@std@@@4@$0A@@std@@@std@@QAEAAV012@XZ 10006c60 f i aMaterial.obj
 0001:00005cb0       ?_Mynode@const_iterator@?$_Tree@V?$_Tmap_traits@HPAUTextureType@aMaterial@@U?$less@H@std@@V?$allocator@U?$pair@$$CBHPAUTextureType@aMaterial@@@std@@@4@$0A@@std@@@std@@QBEPAU_Node@?$_Tree_nod@V?$_Tmap_traits@HPAUTextureType@aMaterial@@U?$less@H@std@@V?$allocator@U?$pair@$$CBHPAUTextureType@aMaterial@@@std@@@4@$0A@@std@@@3@XZ 10006cb0 f i aMaterial.obj
 0001:00005ce0       ??0?$pair@$$CBHPAUMaterialType@aMaterial@@@std@@QAE@ABHABQAUMaterialType@aMaterial@@@Z 10006ce0 f i aMaterial.obj
 0001:00005d30       ??0?$pair@$$CBHPAUTextureType@aMaterial@@@std@@QAE@ABHABQAUTextureType@aMaterial@@@Z 10006d30 f i aMaterial.obj
 0001:00005d80       ??Diterator@?$vector@IV?$allocator@I@std@@@std@@QBEAAIXZ 10006d80 f i aMaterial.obj
 0001:00005dc0       ??Hiterator@?$vector@IV?$allocator@I@std@@@std@@QBE?AV012@H@Z 10006dc0 f i aMaterial.obj
 0001:00005e50       ??0?$allocator@I@std@@QAE@ABV01@@Z 10006e50 f i aMaterial.obj
 0001:00005e80       ?deallocate@?$allocator@I@std@@QAEXPAII@Z 10006e80 f i aMaterial.obj
 0001:00005ed0       ?allocate@?$allocator@I@std@@QAEPAII@Z 10006ed0 f i aMaterial.obj
 0001:00005f20       ?max_size@?$vector@IV?$allocator@I@std@@@std@@QBEIXZ 10006f20 f i aMaterial.obj
 0001:00005f60       ?_Destroy@?$vector@IV?$allocator@I@std@@@std@@IAEXPAI0@Z 10006f60 f i aMaterial.obj
 0001:00005fb0       ?_Insert_n@?$vector@IV?$allocator@I@std@@@std@@IAEXViterator@12@IABI@Z 10006fb0 f i aMaterial.obj
 0001:00006330       ?_Xlen@?$vector@IV?$allocator@I@std@@@std@@IBEXXZ 10007330 f i aMaterial.obj
 0001:000063c0       ??0?$basic_string@DU?$char_traits@D@std@@V?$allocator@D@2@@std@@QAE@PBD@Z 100073c0 f i aMaterial.obj
 0001:00006430       ??1?$basic_string@DU?$char_traits@D@std@@V?$allocator@D@2@@std@@QAE@XZ 10007430 f i aMaterial.obj
 0001:00006480       ?assign@?$basic_string@DU?$char_traits@D@std@@V?$allocator@D@2@@std@@QAEAAV12@PBD@Z 10007480 f i aMaterial.obj
 0001:000064e0       ?_Tidy@?$basic_string@DU?$char_traits@D@std@@V?$allocator@D@2@@std@@IAEX_NI@Z 100074e0 f i aMaterial.obj
 0001:00006580       ??0?$_String_val@DV?$allocator@D@std@@@std@@IAE@V?$allocator@D@1@@Z 10007580 f i aMaterial.obj
 0001:000065d0       ??0?$allocator@D@std@@QAE@XZ 100075d0 f i aMaterial.obj
 0001:00006600       ??0?$allocator@D@std@@QAE@ABV01@@Z 10007600 f i aMaterial.obj
 0001:00006630       ?length@?$char_traits@D@std@@SAIPBD@Z 10007630 f i aMaterial.obj
 0001:00006670       ?copy@?$char_traits@D@std@@SAPADPADPBDI@Z 10007670 f i aMaterial.obj
 0001:000066c0       ??0length_error@std@@QAE@ABV?$basic_string@DU?$char_traits@D@std@@V?$allocator@D@2@@1@@Z 100076c0 f i aMaterial.obj
 0001:00006720       ??0logic_error@std@@QAE@ABV?$basic_string@DU?$char_traits@D@std@@V?$allocator@D@2@@1@@Z 10007720 f i aMaterial.obj
 0001:000067b0       ??0?$basic_string@DU?$char_traits@D@std@@V?$allocator@D@2@@std@@QAE@ABV01@@Z 100077b0 f i aMaterial.obj
 0001:00006820       ?assign@?$basic_string@DU?$char_traits@D@std@@V?$allocator@D@2@@std@@QAEAAV12@ABV12@II@Z 10007820 f i aMaterial.obj
 0001:00006900       ?size@?$basic_string@DU?$char_traits@D@std@@V?$allocator@D@2@@std@@QBEIXZ 10007900 f i aMaterial.obj
 0001:00006930       ?_Myptr@?$basic_string@DU?$char_traits@D@std@@V?$allocator@D@2@@std@@QBEPBDXZ 10007930 f i aMaterial.obj
 0001:00006990       ?what@logic_error@std@@UBEPBDXZ 10007990 f i aMaterial.obj
 0001:000069e0       ?c_str@?$basic_string@DU?$char_traits@D@std@@V?$allocator@D@2@@std@@QBEPBDXZ 100079e0 f i aMaterial.obj
 0001:00006a20       ??_Elogic_error@std@@UAEPAXI@Z 10007a20 f i aMaterial.obj
 0001:00006a20       ??_Glogic_error@std@@UAEPAXI@Z 10007a20 f i aMaterial.obj
 0001:00006a80       ??1logic_error@std@@UAE@XZ 10007a80 f i aMaterial.obj
 0001:00006b00       ??1length_error@std@@UAE@XZ 10007b00 f i aMaterial.obj
 0001:00006b50       ??_Elength_error@std@@UAEPAXI@Z 10007b50 f i aMaterial.obj
 0001:00006b50       ??_Glength_error@std@@UAEPAXI@Z 10007b50 f i aMaterial.obj
 0001:00006bb0       ?assign@?$basic_string@DU?$char_traits@D@std@@V?$allocator@D@2@@std@@QAEAAV12@PBDI@Z 10007bb0 f i aMaterial.obj
 0001:00006c60       ?erase@?$basic_string@DU?$char_traits@D@std@@V?$allocator@D@2@@std@@QAEAAV12@II@Z 10007c60 f i aMaterial.obj
 0001:00006d20       ?move@?$char_traits@D@std@@SAPADPADPBDI@Z 10007d20 f i aMaterial.obj
 0001:00006d70       ?_Eos@?$basic_string@DU?$char_traits@D@std@@V?$allocator@D@2@@std@@IAEXI@Z 10007d70 f i aMaterial.obj
 0001:00006de0       ?assign@?$char_traits@D@std@@SAXAADABD@Z 10007de0 f i aMaterial.obj
 0001:00006e10       ?_Grow@?$basic_string@DU?$char_traits@D@std@@V?$allocator@D@2@@std@@IAE_NI_N@Z 10007e10 f i aMaterial.obj
 0001:00006ee0       ?_Myptr@?$basic_string@DU?$char_traits@D@std@@V?$allocator@D@2@@std@@QAEPADXZ 10007ee0 f i aMaterial.obj
 0001:00006f40       ?deallocate@?$allocator@D@std@@QAEXPADI@Z 10007f40 f i aMaterial.obj
 0001:00006f90       ?_Isnil@?$_Tree@V?$_Tmap_traits@HPAUTextureType@aMaterial@@U?$less@H@std@@V?$allocator@U?$pair@$$CBHPAUTextureType@aMaterial@@@std@@@4@$0A@@std@@@std@@KGAADPAU_Node@?$_Tree_nod@V?$_Tmap_traits@HPAUTextureType@aMaterial@@U?$less@H@std@@V?$allocator@U?$pair@$$CBHPAUTextureType@aMaterial@@@std@@@4@$0A@@std@@@2@@Z 10007f90 f i aMaterial.obj
 0001:00006fc0       ?_Left@?$_Tree@V?$_Tmap_traits@HPAUTextureType@aMaterial@@U?$less@H@std@@V?$allocator@U?$pair@$$CBHPAUTextureType@aMaterial@@@std@@@4@$0A@@std@@@std@@KGAAPAU_Node@?$_Tree_nod@V?$_Tmap_traits@HPAUTextureType@aMaterial@@U?$less@H@std@@V?$allocator@U?$pair@$$CBHPAUTextureType@aMaterial@@@std@@@4@$0A@@std@@@2@PAU342@@Z 10007fc0 f i aMaterial.obj
 0001:00006ff0       ?_Parent@?$_Tree@V?$_Tmap_traits@HPAUTextureType@aMaterial@@U?$less@H@std@@V?$allocator@U?$pair@$$CBHPAUTextureType@aMaterial@@@std@@@4@$0A@@std@@@std@@KGAAPAU_Node@?$_Tree_nod@V?$_Tmap_traits@HPAUTextureType@aMaterial@@U?$less@H@std@@V?$allocator@U?$pair@$$CBHPAUTextureType@aMaterial@@@std@@@4@$0A@@std@@@2@PAU342@@Z 10007ff0 f i aMaterial.obj
 0001:00007020       ?_Right@?$_Tree@V?$_Tmap_traits@HPAUTextureType@aMaterial@@U?$less@H@std@@V?$allocator@U?$pair@$$CBHPAUTextureType@aMaterial@@@std@@@4@$0A@@std@@@std@@KGAAPAU_Node@?$_Tree_nod@V?$_Tmap_traits@HPAUTextureType@aMaterial@@U?$less@H@std@@V?$allocator@U?$pair@$$CBHPAUTextureType@aMaterial@@@std@@@4@$0A@@std@@@2@PAU342@@Z 10008020 f i aMaterial.obj
 0001:00007050       ?_Myval@?$_Tree@V?$_Tmap_traits@HPAUTextureType@aMaterial@@U?$less@H@std@@V?$allocator@U?$pair@$$CBHPAUTextureType@aMaterial@@@std@@@4@$0A@@std@@@std@@KGAAU?$pair@$$CBHPAUTextureType@aMaterial@@@2@PAU_Node@?$_Tree_nod@V?$_Tmap_traits@HPAUTextureType@aMaterial@@U?$less@H@std@@V?$allocator@U?$pair@$$CBHPAUTextureType@aMaterial@@@std@@@4@$0A@@std@@@2@@Z 10008050 f i aMaterial.obj
 0001:00007080       ?size@?$_Tree@V?$_Tmap_traits@HPAUTextureType@aMaterial@@U?$less@H@std@@V?$allocator@U?$pair@$$CBHPAUTextureType@aMaterial@@@std@@@4@$0A@@std@@@std@@QBEIXZ 10008080 f i aMaterial.obj
 0001:000070b0       ?insert@?$_Tree@V?$_Tmap_traits@HPAUTextureType@aMaterial@@U?$less@H@std@@V?$allocator@U?$pair@$$CBHPAUTextureType@aMaterial@@@std@@@4@$0A@@std@@@std@@QAE?AU?$pair@Viterator@?$_Tree@V?$_Tmap_traits@HPAUTextureType@aMaterial@@U?$less@H@std@@V?$allocator@U?$pair@$$CBHPAUTextureType@aMaterial@@@std@@@4@$0A@@std@@@std@@_N@2@ABU?$pair@$$CBHPAUTextureType@aMaterial@@@2@@Z 100080b0 f i aMaterial.obj
 0001:000072d0       ?_Insert@?$_Tree@V?$_Tmap_traits@HPAUTextureType@aMaterial@@U?$less@H@std@@V?$allocator@U?$pair@$$CBHPAUTextureType@aMaterial@@@std@@@4@$0A@@std@@@std@@IAE?AViterator@12@_NPAU_Node@?$_Tree_nod@V?$_Tmap_traits@HPAUTextureType@aMaterial@@U?$less@H@std@@V?$allocator@U?$pair@$$CBHPAUTextureType@aMaterial@@@std@@@4@$0A@@std@@@2@ABU?$pair@$$CBHPAUTextureType@aMaterial@@@2@@Z 100082d0 f i aMaterial.obj
 0001:000076c0       ?_Lbound@?$_Tree@V?$_Tmap_traits@HPAUTextureType@aMaterial@@U?$less@H@std@@V?$allocator@U?$pair@$$CBHPAUTextureType@aMaterial@@@std@@@4@$0A@@std@@@std@@IBEPAU_Node@?$_Tree_nod@V?$_Tmap_traits@HPAUTextureType@aMaterial@@U?$less@H@std@@V?$allocator@U?$pair@$$CBHPAUTextureType@aMaterial@@@std@@@4@$0A@@std@@@2@ABH@Z 100086c0 f i aMaterial.obj
 0001:00007770       ?_Kfn@?$_Tmap_traits@HPAUTextureType@aMaterial@@U?$less@H@std@@V?$allocator@U?$pair@$$CBHPAUTextureType@aMaterial@@@std@@@4@$0A@@std@@SGABHABU?$pair@$$CBHPAUTextureType@aMaterial@@@2@@Z 10008770 f i aMaterial.obj
 0001:000077a0       ?deallocate@?$allocator@U_Node@?$_Tree_nod@V?$_Tmap_traits@HPAUTextureType@aMaterial@@U?$less@H@std@@V?$allocator@U?$pair@$$CBHPAUTextureType@aMaterial@@@std@@@4@$0A@@std@@@std@@@std@@QAEXPAU_Node@?$_Tree_nod@V?$_Tmap_traits@HPAUTextureType@aMaterial@@U?$less@H@std@@V?$allocator@U?$pair@$$CBHPAUTextureType@aMaterial@@@std@@@4@$0A@@std@@@2@I@Z 100087a0 f i aMaterial.obj
 0001:000077f0       ?destroy@?$allocator@U_Node@?$_Tree_nod@V?$_Tmap_traits@HPAUTextureType@aMaterial@@U?$less@H@std@@V?$allocator@U?$pair@$$CBHPAUTextureType@aMaterial@@@std@@@4@$0A@@std@@@std@@@std@@QAEXPAU_Node@?$_Tree_nod@V?$_Tmap_traits@HPAUTextureType@aMaterial@@U?$less@H@std@@V?$allocator@U?$pair@$$CBHPAUTextureType@aMaterial@@@std@@@4@$0A@@std@@@2@@Z 100087f0 f i aMaterial.obj
 0001:00007840       ?_Isnil@?$_Tree@V?$_Tmap_traits@HPAUMaterialType@aMaterial@@U?$less@H@std@@V?$allocator@U?$pair@$$CBHPAUMaterialType@aMaterial@@@std@@@4@$0A@@std@@@std@@KGAADPAU_Node@?$_Tree_nod@V?$_Tmap_traits@HPAUMaterialType@aMaterial@@U?$less@H@std@@V?$allocator@U?$pair@$$CBHPAUMaterialType@aMaterial@@@std@@@4@$0A@@std@@@2@@Z 10008840 f i aMaterial.obj
 0001:00007870       ?_Left@?$_Tree@V?$_Tmap_traits@HPAUMaterialType@aMaterial@@U?$less@H@std@@V?$allocator@U?$pair@$$CBHPAUMaterialType@aMaterial@@@std@@@4@$0A@@std@@@std@@KGAAPAU_Node@?$_Tree_nod@V?$_Tmap_traits@HPAUMaterialType@aMaterial@@U?$less@H@std@@V?$allocator@U?$pair@$$CBHPAUMaterialType@aMaterial@@@std@@@4@$0A@@std@@@2@PAU342@@Z 10008870 f i aMaterial.obj
 0001:000078a0       ?_Parent@?$_Tree@V?$_Tmap_traits@HPAUMaterialType@aMaterial@@U?$less@H@std@@V?$allocator@U?$pair@$$CBHPAUMaterialType@aMaterial@@@std@@@4@$0A@@std@@@std@@KGAAPAU_Node@?$_Tree_nod@V?$_Tmap_traits@HPAUMaterialType@aMaterial@@U?$less@H@std@@V?$allocator@U?$pair@$$CBHPAUMaterialType@aMaterial@@@std@@@4@$0A@@std@@@2@PAU342@@Z 100088a0 f i aMaterial.obj
 0001:000078d0       ?_Right@?$_Tree@V?$_Tmap_traits@HPAUMaterialType@aMaterial@@U?$less@H@std@@V?$allocator@U?$pair@$$CBHPAUMaterialType@aMaterial@@@std@@@4@$0A@@std@@@std@@KGAAPAU_Node@?$_Tree_nod@V?$_Tmap_traits@HPAUMaterialType@aMaterial@@U?$less@H@std@@V?$allocator@U?$pair@$$CBHPAUMaterialType@aMaterial@@@std@@@4@$0A@@std@@@2@PAU342@@Z 100088d0 f i aMaterial.obj
 0001:00007900       ?_Myval@?$_Tree@V?$_Tmap_traits@HPAUMaterialType@aMaterial@@U?$less@H@std@@V?$allocator@U?$pair@$$CBHPAUMaterialType@aMaterial@@@std@@@4@$0A@@std@@@std@@KGAAU?$pair@$$CBHPAUMaterialType@aMaterial@@@2@PAU_Node@?$_Tree_nod@V?$_Tmap_traits@HPAUMaterialType@aMaterial@@U?$less@H@std@@V?$allocator@U?$pair@$$CBHPAUMaterialType@aMaterial@@@std@@@4@$0A@@std@@@2@@Z 10008900 f i aMaterial.obj
 0001:00007930       ?insert@?$_Tree@V?$_Tmap_traits@HPAUMaterialType@aMaterial@@U?$less@H@std@@V?$allocator@U?$pair@$$CBHPAUMaterialType@aMaterial@@@std@@@4@$0A@@std@@@std@@QAE?AU?$pair@Viterator@?$_Tree@V?$_Tmap_traits@HPAUMaterialType@aMaterial@@U?$less@H@std@@V?$allocator@U?$pair@$$CBHPAUMaterialType@aMaterial@@@std@@@4@$0A@@std@@@std@@_N@2@ABU?$pair@$$CBHPAUMaterialType@aMaterial@@@2@@Z 10008930 f i aMaterial.obj
 0001:00007b50       ?_Insert@?$_Tree@V?$_Tmap_traits@HPAUMaterialType@aMaterial@@U?$less@H@std@@V?$allocator@U?$pair@$$CBHPAUMaterialType@aMaterial@@@std@@@4@$0A@@std@@@std@@IAE?AViterator@12@_NPAU_Node@?$_Tree_nod@V?$_Tmap_traits@HPAUMaterialType@aMaterial@@U?$less@H@std@@V?$allocator@U?$pair@$$CBHPAUMaterialType@aMaterial@@@std@@@4@$0A@@std@@@2@ABU?$pair@$$CBHPAUMaterialType@aMaterial@@@2@@Z 10008b50 f i aMaterial.obj
 0001:00007f40       ?_Lbound@?$_Tree@V?$_Tmap_traits@HPAUMaterialType@aMaterial@@U?$less@H@std@@V?$allocator@U?$pair@$$CBHPAUMaterialType@aMaterial@@@std@@@4@$0A@@std@@@std@@IBEPAU_Node@?$_Tree_nod@V?$_Tmap_traits@HPAUMaterialType@aMaterial@@U?$less@H@std@@V?$allocator@U?$pair@$$CBHPAUMaterialType@aMaterial@@@std@@@4@$0A@@std@@@2@ABH@Z 10008f40 f i aMaterial.obj
 0001:00007ff0       ?_Kfn@?$_Tmap_traits@HPAUMaterialType@aMaterial@@U?$less@H@std@@V?$allocator@U?$pair@$$CBHPAUMaterialType@aMaterial@@@std@@@4@$0A@@std@@SGABHABU?$pair@$$CBHPAUMaterialType@aMaterial@@@2@@Z 10008ff0 f i aMaterial.obj
 0001:00008020       ?deallocate@?$allocator@U_Node@?$_Tree_nod@V?$_Tmap_traits@HPAUMaterialType@aMaterial@@U?$less@H@std@@V?$allocator@U?$pair@$$CBHPAUMaterialType@aMaterial@@@std@@@4@$0A@@std@@@std@@@std@@QAEXPAU_Node@?$_Tree_nod@V?$_Tmap_traits@HPAUMaterialType@aMaterial@@U?$less@H@std@@V?$allocator@U?$pair@$$CBHPAUMaterialType@aMaterial@@@std@@@4@$0A@@std@@@2@I@Z 10009020 f i aMaterial.obj
 0001:00008070       ?destroy@?$allocator@U_Node@?$_Tree_nod@V?$_Tmap_traits@HPAUMaterialType@aMaterial@@U?$less@H@std@@V?$allocator@U?$pair@$$CBHPAUMaterialType@aMaterial@@@std@@@4@$0A@@std@@@std@@@std@@QAEXPAU_Node@?$_Tree_nod@V?$_Tmap_traits@HPAUMaterialType@aMaterial@@U?$less@H@std@@V?$allocator@U?$pair@$$CBHPAUMaterialType@aMaterial@@@std@@@4@$0A@@std@@@2@@Z 10009070 f i aMaterial.obj
 0001:000080c0       ??0iterator@?$_Tree@V?$_Tmap_traits@HPAUMaterialType@aMaterial@@U?$less@H@std@@V?$allocator@U?$pair@$$CBHPAUMaterialType@aMaterial@@@std@@@4@$0A@@std@@@std@@QAE@XZ 100090c0 f i aMaterial.obj
 0001:00008110       ??Fiterator@?$_Tree@V?$_Tmap_traits@HPAUMaterialType@aMaterial@@U?$less@H@std@@V?$allocator@U?$pair@$$CBHPAUMaterialType@aMaterial@@@std@@@4@$0A@@std@@@std@@QAEAAV012@XZ 10009110 f i aMaterial.obj
 0001:00008160       ??0const_iterator@?$_Tree@V?$_Tmap_traits@HPAUMaterialType@aMaterial@@U?$less@H@std@@V?$allocator@U?$pair@$$CBHPAUMaterialType@aMaterial@@@std@@@4@$0A@@std@@@std@@QAE@PAU_Node@?$_Tree_nod@V?$_Tmap_traits@HPAUMaterialType@aMaterial@@U?$less@H@std@@V?$allocator@U?$pair@$$CBHPAUMaterialType@aMaterial@@@std@@@4@$0A@@std@@@2@@Z 10009160 f i aMaterial.obj
 0001:000081a0       ??Dconst_iterator@?$_Tree@V?$_Tmap_traits@HPAUMaterialType@aMaterial@@U?$less@H@std@@V?$allocator@U?$pair@$$CBHPAUMaterialType@aMaterial@@@std@@@4@$0A@@std@@@std@@QBEABU?$pair@$$CBHPAUMaterialType@aMaterial@@@2@XZ 100091a0 f i aMaterial.obj
 0001:000081f0       ??Econst_iterator@?$_Tree@V?$_Tmap_traits@HPAUMaterialType@aMaterial@@U?$less@H@std@@V?$allocator@U?$pair@$$CBHPAUMaterialType@aMaterial@@@std@@@4@$0A@@std@@@std@@QAEAAV012@XZ 100091f0 f i aMaterial.obj
 0001:00008240       ??0iterator@?$_Tree@V?$_Tmap_traits@HPAUTextureType@aMaterial@@U?$less@H@std@@V?$allocator@U?$pair@$$CBHPAUTextureType@aMaterial@@@std@@@4@$0A@@std@@@std@@QAE@XZ 10009240 f i aMaterial.obj
 0001:00008290       ?Int@CRC@@YGII@Z           10009290 f i aMaterial.obj
 0001:000082d0       ??Fiterator@?$_Tree@V?$_Tmap_traits@HPAUTextureType@aMaterial@@U?$less@H@std@@V?$allocator@U?$pair@$$CBHPAUTextureType@aMaterial@@@std@@@4@$0A@@std@@@std@@QAEAAV012@XZ 100092d0 f i aMaterial.obj
 0001:00008320       ??0const_iterator@?$_Tree@V?$_Tmap_traits@HPAUTextureType@aMaterial@@U?$less@H@std@@V?$allocator@U?$pair@$$CBHPAUTextureType@aMaterial@@@std@@@4@$0A@@std@@@std@@QAE@PAU_Node@?$_Tree_nod@V?$_Tmap_traits@HPAUTextureType@aMaterial@@U?$less@H@std@@V?$allocator@U?$pair@$$CBHPAUTextureType@aMaterial@@@std@@@4@$0A@@std@@@2@@Z 10009320 f i aMaterial.obj
 0001:00008360       ??Dconst_iterator@?$_Tree@V?$_Tmap_traits@HPAUTextureType@aMaterial@@U?$less@H@std@@V?$allocator@U?$pair@$$CBHPAUTextureType@aMaterial@@@std@@@4@$0A@@std@@@std@@QBEABU?$pair@$$CBHPAUTextureType@aMaterial@@@2@XZ 10009360 f i aMaterial.obj
 0001:000083b0       ??Econst_iterator@?$_Tree@V?$_Tmap_traits@HPAUTextureType@aMaterial@@U?$less@H@std@@V?$allocator@U?$pair@$$CBHPAUTextureType@aMaterial@@@std@@@4@$0A@@std@@@std@@QAEAAV012@XZ 100093b0 f i aMaterial.obj
 0001:00008400       ??0iterator@?$vector@IV?$allocator@I@std@@@std@@QAE@PAI@Z 10009400 f i aMaterial.obj
 0001:00008450       ??Yiterator@?$vector@IV?$allocator@I@std@@@std@@QAEAAV012@H@Z 10009450 f i aMaterial.obj
 0001:00008490       ??Giterator@?$vector@IV?$allocator@I@std@@@std@@QBEHABVconst_iterator@12@@Z 10009490 f i aMaterial.obj
 0001:000084f0       ??Dconst_iterator@?$vector@IV?$allocator@I@std@@@std@@QBEABIXZ 100094f0 f i aMaterial.obj
 0001:00008520       ??0length_error@std@@QAE@ABV01@@Z 10009520 f i aMaterial.obj
 0001:00008580       ??0StringClass@CRC@@QAE@XZ 10009580 f i aMaterial.obj
 0001:00008600       ??0logic_error@std@@QAE@ABV01@@Z 10009600 f i aMaterial.obj
 0001:00008690       ??0StringClass@CRC@@QAE@PAD@Z 10009690 f i aMaterial.obj
 0001:00008730       ?Str@CRC@@YGIPBD@Z         10009730 f i aMaterial.obj
 0001:00008770       ?max_size@?$basic_string@DU?$char_traits@D@std@@V?$allocator@D@2@@std@@QBEIXZ 10009770 f i aMaterial.obj
 0001:000087e0       ?_Copy@?$basic_string@DU?$char_traits@D@std@@V?$allocator@D@2@@std@@IAEXII@Z 100097e0 f i aMaterial.obj
 0001:00008970       ??1StringClass@CRC@@QAE@XZ 10009970 f i aMaterial.obj
 0001:000089c0       ?Clear@StringClass@CRC@@QAEXXZ 100099c0 f i aMaterial.obj
 0001:00008a10       ?Id@StringClass@CRC@@QAEIXZ 10009a10 f i aMaterial.obj
 0001:00008a40       ?_Inside@?$basic_string@DU?$char_traits@D@std@@V?$allocator@D@2@@std@@IAE_NPBD@Z 10009a40 f i aMaterial.obj
 0001:00008aa0       ?String@StringClass@CRC@@QAEPADXZ 10009aa0 f i aMaterial.obj
 0001:00008b00       ?Empty@StringClass@Data@@QAEHXZ 10009b00 f i aMaterial.obj
 0001:00008b40       ?SetString@StringClass@CRC@@QAEXPAD@Z 10009b40 f i aMaterial.obj
 0001:00008bc0       ?Lower@StringClass@Data@@QAEXXZ 10009bc0 f i aMaterial.obj
 0001:00008c20       ?CalcStringCRC@StringClass@CRC@@QAEIXZ 10009c20 f i aMaterial.obj
 0001:00008c80       ??6StringClass@CRC@@QAEXV0Data@@@Z 10009c80 f i aMaterial.obj
 0001:00008d00       ?AddString@StringClass@CRC@@QAEXPAD@Z 10009d00 f i aMaterial.obj
 0001:00008d70       ??6ModIdClass@CRC@@QAEXPBD@Z 10009d70 f i aMaterial.obj
 0001:00008dc0       ?AddString@ModIdClass@CRC@@QAEXPBD@Z 10009dc0 f i aMaterial.obj
 0001:00008e10       ??6StringClass@CRC@@QAEXPBD@Z 10009e10 f i aMaterial.obj
 0001:00008e60       ?Update@ModIdClass@CRC@@QAEXXZ 10009e60 f i aMaterial.obj
 0001:00008f60       ?Empty@StringClass@CRC@@QAEHXZ 10009f60 f i aMaterial.obj
 0001:00008fb0       ??4StringClass@CRC@@QAEXPAD@Z 10009fb0 f i aMaterial.obj
 0001:00009000       ??0PackClass@Packet@@QAE@XZ 1000a000 f i aMaterial.obj
 0001:000090b0       ??0TimeClass@CRC@@QAE@XZ   1000a0b0 f i aMaterial.obj
 0001:00009100       ??1TimeClass@CRC@@QAE@XZ   1000a100 f i aMaterial.obj
 0001:00009130       ?CalcCrc@TimeClass@CRC@@QAEXXZ 1000a130 f i aMaterial.obj
 0001:000091c0       ??0ModIdClass@CRC@@QAE@XZ  1000a1c0 f i aMaterial.obj
 0001:00009260       ??1ModIdClass@CRC@@QAE@XZ  1000a260 f i aMaterial.obj
 0001:00009300       ?Clear@ModIdClass@CRC@@QAEXXZ 1000a300 f i aMaterial.obj
 0001:00009360       ??1PackClass@Packet@@QAE@XZ 1000a360 f i aMaterial.obj
 0001:00009400       ?max_size@?$allocator@I@std@@QBEIXZ 1000a400 f i aMaterial.obj
 0001:00009460       ?Build@PackClass@Packet@@QAEXPBD0@Z 1000a460 f i aMaterial.obj
 0001:000094d0       ?Clear@PackClass@Packet@@QAEXXZ 1000a4d0 f i aMaterial.obj
 0001:00009560       ?DataClear@PackClass@Packet@@QAEXXZ 1000a560 f i aMaterial.obj
 0001:000095b0       ?ParamsClear@PackClass@Packet@@QAEXXZ 1000a5b0 f i aMaterial.obj
 0001:00009600       ?GetData@PackClass@Packet@@QAEPBDPBD@Z 1000a600 f i aMaterial.obj
 0001:000096a0       ?GetDataIndex@PackClass@Packet@@QAEPBDIPBD@Z 1000a6a0 f i aMaterial.obj
 0001:000096e0       ?_Color@?$_Tree@V?$_Tmap_traits@HPAUTextureType@aMaterial@@U?$less@H@std@@V?$allocator@U?$pair@$$CBHPAUTextureType@aMaterial@@@std@@@4@$0A@@std@@@std@@KGAADPAU_Node@?$_Tree_nod@V?$_Tmap_traits@HPAUTextureType@aMaterial@@U?$less@H@std@@V?$allocator@U?$pair@$$CBHPAUTextureType@aMaterial@@@std@@@4@$0A@@std@@@2@@Z 1000a6e0 f i aMaterial.obj
 0001:00009710       ?max_size@?$_Tree@V?$_Tmap_traits@HPAUTextureType@aMaterial@@U?$less@H@std@@V?$allocator@U?$pair@$$CBHPAUTextureType@aMaterial@@@std@@@4@$0A@@std@@@std@@QBEIXZ 1000a710 f i aMaterial.obj
 0001:00009760       ??0BinClass@Data@@QAE@I@Z  1000a760 f i aMaterial.obj
 0001:00009820       ??1BinClass@Data@@QAE@XZ   1000a820 f i aMaterial.obj
 0001:00009890       ?GetMax@BinClass@Data@@QBE?BHXZ 1000a890 f i aMaterial.obj
 0001:000098c0       ?GetData@BinClass@Data@@QAEPAEXZ 1000a8c0 f i aMaterial.obj
 0001:000098f0       ?GetData@BinClass@Data@@QAEPAEI@Z 1000a8f0 f i aMaterial.obj
 0001:00009990       ??0FileClass@File@@QAE@XZ  1000a990 f i aMaterial.obj
 0001:00009a40       ?_Lrotate@?$_Tree@V?$_Tmap_traits@HPAUTextureType@aMaterial@@U?$less@H@std@@V?$allocator@U?$pair@$$CBHPAUTextureType@aMaterial@@@std@@@4@$0A@@std@@@std@@IAEXPAU_Node@?$_Tree_nod@V?$_Tmap_traits@HPAUTextureType@aMaterial@@U?$less@H@std@@V?$allocator@U?$pair@$$CBHPAUTextureType@aMaterial@@@std@@@4@$0A@@std@@@2@@Z 1000aa40 f i aMaterial.obj
 0001:00009b70       ?_Root@?$_Tree@V?$_Tmap_traits@HPAUTextureType@aMaterial@@U?$less@H@std@@V?$allocator@U?$pair@$$CBHPAUTextureType@aMaterial@@@std@@@4@$0A@@std@@@std@@IBEAAPAU_Node@?$_Tree_nod@V?$_Tmap_traits@HPAUTextureType@aMaterial@@U?$less@H@std@@V?$allocator@U?$pair@$$CBHPAUTextureType@aMaterial@@@std@@@4@$0A@@std@@@2@XZ 1000ab70 f i aMaterial.obj
 0001:00009bc0       ?_Rrotate@?$_Tree@V?$_Tmap_traits@HPAUTextureType@aMaterial@@U?$less@H@std@@V?$allocator@U?$pair@$$CBHPAUTextureType@aMaterial@@@std@@@4@$0A@@std@@@std@@IAEXPAU_Node@?$_Tree_nod@V?$_Tmap_traits@HPAUTextureType@aMaterial@@U?$less@H@std@@V?$allocator@U?$pair@$$CBHPAUTextureType@aMaterial@@@std@@@4@$0A@@std@@@2@@Z 1000abc0 f i aMaterial.obj
 0001:00009cf0       ??1FileClass@File@@QAE@XZ  1000acf0 f i aMaterial.obj
 0001:00009da0       ?Open@FileClass@File@@QAEHPBDI@Z 1000ada0 f i aMaterial.obj
 0001:00009ef0       ??6StringClass@CRC@@QAEXPAD@Z 1000aef0 f i aMaterial.obj
 0001:00009f40       ?Close@FileClass@File@@QAEXXZ 1000af40 f i aMaterial.obj
 0001:00009fd0       ?_Buynode@?$_Tree@V?$_Tmap_traits@HPAUTextureType@aMaterial@@U?$less@H@std@@V?$allocator@U?$pair@$$CBHPAUTextureType@aMaterial@@@std@@@4@$0A@@std@@@std@@IAEPAU_Node@?$_Tree_nod@V?$_Tmap_traits@HPAUTextureType@aMaterial@@U?$less@H@std@@V?$allocator@U?$pair@$$CBHPAUTextureType@aMaterial@@@std@@@4@$0A@@std@@@2@PAU342@00ABU?$pair@$$CBHPAUTextureType@aMaterial@@@2@D@Z 1000afd0 f i aMaterial.obj
 0001:0000a0e0       ??2@YAPAXIPAX@Z            1000b0e0 f i aMaterial.obj
 0001:0000a110       ??3@YAXPAX0@Z              1000b110 f i aMaterial.obj
 0001:0000a140       ?_Color@?$_Tree@V?$_Tmap_traits@HPAUMaterialType@aMaterial@@U?$less@H@std@@V?$allocator@U?$pair@$$CBHPAUMaterialType@aMaterial@@@std@@@4@$0A@@std@@@std@@KGAADPAU_Node@?$_Tree_nod@V?$_Tmap_traits@HPAUMaterialType@aMaterial@@U?$less@H@std@@V?$allocator@U?$pair@$$CBHPAUMaterialType@aMaterial@@@std@@@4@$0A@@std@@@2@@Z 1000b140 f i aMaterial.obj
 0001:0000a170       ?max_size@?$_Tree@V?$_Tmap_traits@HPAUMaterialType@aMaterial@@U?$less@H@std@@V?$allocator@U?$pair@$$CBHPAUMaterialType@aMaterial@@@std@@@4@$0A@@std@@@std@@QBEIXZ 1000b170 f i aMaterial.obj
 0001:0000a1c0       ??5FileClass@File@@QAEXPAVBinClass@Data@@@Z 1000b1c0 f i aMaterial.obj
 0001:0000a210       ?ReadBinFile@FileClass@File@@QAEHPAVBinClass@Data@@@Z 1000b210 f i aMaterial.obj
 0001:0000a390       ?AddData@BinClass@Data@@QAEXPAEI@Z 1000b390 f i aMaterial.obj
 0001:0000a410       ?CheckFree@BinClass@Data@@QAEXI@Z 1000b410 f i aMaterial.obj
 0001:0000a4f0       ?BuildFormat@FileClass@File@@AAEXI@Z 1000b4f0 f i aMaterial.obj
 0001:0000a5b0       ?_Lrotate@?$_Tree@V?$_Tmap_traits@HPAUMaterialType@aMaterial@@U?$less@H@std@@V?$allocator@U?$pair@$$CBHPAUMaterialType@aMaterial@@@std@@@4@$0A@@std@@@std@@IAEXPAU_Node@?$_Tree_nod@V?$_Tmap_traits@HPAUMaterialType@aMaterial@@U?$less@H@std@@V?$allocator@U?$pair@$$CBHPAUMaterialType@aMaterial@@@std@@@4@$0A@@std@@@2@@Z 1000b5b0 f i aMaterial.obj
 0001:0000a6e0       ?_Root@?$_Tree@V?$_Tmap_traits@HPAUMaterialType@aMaterial@@U?$less@H@std@@V?$allocator@U?$pair@$$CBHPAUMaterialType@aMaterial@@@std@@@4@$0A@@std@@@std@@IBEAAPAU_Node@?$_Tree_nod@V?$_Tmap_traits@HPAUMaterialType@aMaterial@@U?$less@H@std@@V?$allocator@U?$pair@$$CBHPAUMaterialType@aMaterial@@@std@@@4@$0A@@std@@@2@XZ 1000b6e0 f i aMaterial.obj
 0001:0000a730       ?_Rrotate@?$_Tree@V?$_Tmap_traits@HPAUMaterialType@aMaterial@@U?$less@H@std@@V?$allocator@U?$pair@$$CBHPAUMaterialType@aMaterial@@@std@@@4@$0A@@std@@@std@@IAEXPAU_Node@?$_Tree_nod@V?$_Tmap_traits@HPAUMaterialType@aMaterial@@U?$less@H@std@@V?$allocator@U?$pair@$$CBHPAUMaterialType@aMaterial@@@std@@@4@$0A@@std@@@2@@Z 1000b730 f i aMaterial.obj
 0001:0000a860       ?_Buynode@?$_Tree@V?$_Tmap_traits@HPAUMaterialType@aMaterial@@U?$less@H@std@@V?$allocator@U?$pair@$$CBHPAUMaterialType@aMaterial@@@std@@@4@$0A@@std@@@std@@IAEPAU_Node@?$_Tree_nod@V?$_Tmap_traits@HPAUMaterialType@aMaterial@@U?$less@H@std@@V?$allocator@U?$pair@$$CBHPAUMaterialType@aMaterial@@@std@@@4@$0A@@std@@@2@PAU342@00ABU?$pair@$$CBHPAUMaterialType@aMaterial@@@2@D@Z 1000b860 f i aMaterial.obj
 0001:0000a970       ??0const_iterator@?$_Tree@V?$_Tmap_traits@HPAUMaterialType@aMaterial@@U?$less@H@std@@V?$allocator@U?$pair@$$CBHPAUMaterialType@aMaterial@@@std@@@4@$0A@@std@@@std@@QAE@XZ 1000b970 f i aMaterial.obj
 0001:0000a9b0       ??Fconst_iterator@?$_Tree@V?$_Tmap_traits@HPAUMaterialType@aMaterial@@U?$less@H@std@@V?$allocator@U?$pair@$$CBHPAUMaterialType@aMaterial@@@std@@@4@$0A@@std@@@std@@QAEAAV012@XZ 1000b9b0 f i aMaterial.obj
 0001:0000aa00       ?_Inc@const_iterator@?$_Tree@V?$_Tmap_traits@HPAUMaterialType@aMaterial@@U?$less@H@std@@V?$allocator@U?$pair@$$CBHPAUMaterialType@aMaterial@@@std@@@4@$0A@@std@@@std@@QAEXXZ 1000ba00 f i aMaterial.obj
 0001:0000aad0       ??0const_iterator@?$_Tree@V?$_Tmap_traits@HPAUTextureType@aMaterial@@U?$less@H@std@@V?$allocator@U?$pair@$$CBHPAUTextureType@aMaterial@@@std@@@4@$0A@@std@@@std@@QAE@XZ 1000bad0 f i aMaterial.obj
 0001:0000ab10       ??Fconst_iterator@?$_Tree@V?$_Tmap_traits@HPAUTextureType@aMaterial@@U?$less@H@std@@V?$allocator@U?$pair@$$CBHPAUTextureType@aMaterial@@@std@@@4@$0A@@std@@@std@@QAEAAV012@XZ 1000bb10 f i aMaterial.obj
 0001:0000ab60       ?_Inc@const_iterator@?$_Tree@V?$_Tmap_traits@HPAUTextureType@aMaterial@@U?$less@H@std@@V?$allocator@U?$pair@$$CBHPAUTextureType@aMaterial@@@std@@@4@$0A@@std@@@std@@QAEXXZ 1000bb60 f i aMaterial.obj
 0001:0000ac30       ??0const_iterator@?$vector@IV?$allocator@I@std@@@std@@QAE@PAI@Z 1000bc30 f i aMaterial.obj
 0001:0000ac70       ??Gconst_iterator@?$vector@IV?$allocator@I@std@@@std@@QBEHABV012@@Z 1000bc70 f i aMaterial.obj
 0001:0000acb0       ?Send@BaseClass@Comm@@QAEXPAVPackClass@Packet@@@Z 1000bcb0 f i aMaterial.obj
 0001:0000ad00       ??0?$pair@Viterator@?$_Tree@V?$_Tmap_traits@HPAUTextureType@aMaterial@@U?$less@H@std@@V?$allocator@U?$pair@$$CBHPAUTextureType@aMaterial@@@std@@@4@$0A@@std@@@std@@_N@std@@QAE@ABViterator@?$_Tree@V?$_Tmap_traits@HPAUTextureType@aMaterial@@U?$less@H@std@@V?$allocator@U?$pair@$$CBHPAUTextureType@aMaterial@@@std@@@4@$0A@@std@@@1@AB_N@Z 1000bd00 f i aMaterial.obj
 0001:0000ad50       ?SubmitFunction@BaseClass@Comm@@QAEXP6GXPAVPackClass@Packet@@@ZPBD@Z 1000bd50 f i aMaterial.obj
 0001:0000ae40       ??A?$map@IPAUFunction@@UFcmp@@V?$allocator@U?$pair@$$CBIPAUFunction@@@std@@@std@@@std@@QAEAAPAUFunction@@ABI@Z 1000be40 f i aMaterial.obj
 0001:0000af40       ?end@?$_Tree@V?$_Tmap_traits@IPAUFunction@@UFcmp@@V?$allocator@U?$pair@$$CBIPAUFunction@@@std@@@std@@$0A@@std@@@std@@QAE?AViterator@12@XZ 1000bf40 f i aMaterial.obj
 0001:0000af90       ??Diterator@?$_Tree@V?$_Tmap_traits@IPAUFunction@@UFcmp@@V?$allocator@U?$pair@$$CBIPAUFunction@@@std@@@std@@$0A@@std@@@std@@QBEAAU?$pair@$$CBIPAUFunction@@@2@XZ 1000bf90 f i aMaterial.obj
 0001:0000afd0       ?_Key@?$_Tree@V?$_Tmap_traits@IPAUFunction@@UFcmp@@V?$allocator@U?$pair@$$CBIPAUFunction@@@std@@@std@@$0A@@std@@@std@@KGABIPAU_Node@?$_Tree_nod@V?$_Tmap_traits@IPAUFunction@@UFcmp@@V?$allocator@U?$pair@$$CBIPAUFunction@@@std@@@std@@$0A@@std@@@2@@Z 1000bfd0 f i aMaterial.obj
 0001:0000b020       ?insert@?$_Tree@V?$_Tmap_traits@IPAUFunction@@UFcmp@@V?$allocator@U?$pair@$$CBIPAUFunction@@@std@@@std@@$0A@@std@@@std@@QAE?AViterator@12@V312@ABU?$pair@$$CBIPAUFunction@@@2@@Z 1000c020 f i aMaterial.obj
 0001:0000b620       ?size@?$_Tree@V?$_Tmap_traits@IPAUFunction@@UFcmp@@V?$allocator@U?$pair@$$CBIPAUFunction@@@std@@@std@@$0A@@std@@@std@@QBEIXZ 1000c620 f i aMaterial.obj
 0001:0000b650       ?lower_bound@?$_Tree@V?$_Tmap_traits@IPAUFunction@@UFcmp@@V?$allocator@U?$pair@$$CBIPAUFunction@@@std@@@std@@$0A@@std@@@std@@QAE?AViterator@12@ABI@Z 1000c650 f i aMaterial.obj
 0001:0000b6b0       ?_Rmost@?$_Tree@V?$_Tmap_traits@IPAUFunction@@UFcmp@@V?$allocator@U?$pair@$$CBIPAUFunction@@@std@@@std@@$0A@@std@@@std@@IAEAAPAU_Node@?$_Tree_nod@V?$_Tmap_traits@IPAUFunction@@UFcmp@@V?$allocator@U?$pair@$$CBIPAUFunction@@@std@@@std@@$0A@@std@@@2@XZ 1000c6b0 f i aMaterial.obj
 0001:0000b700       ??0iterator@?$_Tree@V?$_Tmap_traits@IPAUFunction@@UFcmp@@V?$allocator@U?$pair@$$CBIPAUFunction@@@std@@@std@@$0A@@std@@@std@@QAE@PAU_Node@?$_Tree_nod@V?$_Tmap_traits@IPAUFunction@@UFcmp@@V?$allocator@U?$pair@$$CBIPAUFunction@@@std@@@std@@$0A@@std@@@2@@Z 1000c700 f i aMaterial.obj
 0001:0000b750       ??Dconst_iterator@?$_Tree@V?$_Tmap_traits@IPAUFunction@@UFcmp@@V?$allocator@U?$pair@$$CBIPAUFunction@@@std@@@std@@$0A@@std@@@std@@QBEABU?$pair@$$CBIPAUFunction@@@2@XZ 1000c750 f i aMaterial.obj
 0001:0000b7a0       ??8const_iterator@?$_Tree@V?$_Tmap_traits@IPAUFunction@@UFcmp@@V?$allocator@U?$pair@$$CBIPAUFunction@@@std@@@std@@$0A@@std@@@std@@QBE_NABV012@@Z 1000c7a0 f i aMaterial.obj
 0001:0000b7e0       ?_Mynode@const_iterator@?$_Tree@V?$_Tmap_traits@IPAUFunction@@UFcmp@@V?$allocator@U?$pair@$$CBIPAUFunction@@@std@@@std@@$0A@@std@@@std@@QBEPAU_Node@?$_Tree_nod@V?$_Tmap_traits@IPAUFunction@@UFcmp@@V?$allocator@U?$pair@$$CBIPAUFunction@@@std@@@std@@$0A@@std@@@3@XZ 1000c7e0 f i aMaterial.obj
 0001:0000b810       ??0?$pair@$$CBIPAUFunction@@@std@@QAE@ABIABQAUFunction@@@Z 1000c810 f i aMaterial.obj
 0001:0000b860       ?_Isnil@?$_Tree@V?$_Tmap_traits@IPAUFunction@@UFcmp@@V?$allocator@U?$pair@$$CBIPAUFunction@@@std@@@std@@$0A@@std@@@std@@KGAADPAU_Node@?$_Tree_nod@V?$_Tmap_traits@IPAUFunction@@UFcmp@@V?$allocator@U?$pair@$$CBIPAUFunction@@@std@@@std@@$0A@@std@@@2@@Z 1000c860 f i aMaterial.obj
 0001:0000b890       ?_Right@?$_Tree@V?$_Tmap_traits@IPAUFunction@@UFcmp@@V?$allocator@U?$pair@$$CBIPAUFunction@@@std@@@std@@$0A@@std@@@std@@KGAAPAU_Node@?$_Tree_nod@V?$_Tmap_traits@IPAUFunction@@UFcmp@@V?$allocator@U?$pair@$$CBIPAUFunction@@@std@@@std@@$0A@@std@@@2@PAU342@@Z 1000c890 f i aMaterial.obj
 0001:0000b8c0       ?_Myval@?$_Tree@V?$_Tmap_traits@IPAUFunction@@UFcmp@@V?$allocator@U?$pair@$$CBIPAUFunction@@@std@@@std@@$0A@@std@@@std@@KGAAU?$pair@$$CBIPAUFunction@@@2@PAU_Node@?$_Tree_nod@V?$_Tmap_traits@IPAUFunction@@UFcmp@@V?$allocator@U?$pair@$$CBIPAUFunction@@@std@@@std@@$0A@@std@@@2@@Z 1000c8c0 f i aMaterial.obj
 0001:0000b8f0       ?begin@?$_Tree@V?$_Tmap_traits@IPAUFunction@@UFcmp@@V?$allocator@U?$pair@$$CBIPAUFunction@@@std@@@std@@$0A@@std@@@std@@QAE?AViterator@12@XZ 1000c8f0 f i aMaterial.obj
 0001:0000b940       ?_Lmost@?$_Tree@V?$_Tmap_traits@IPAUFunction@@UFcmp@@V?$allocator@U?$pair@$$CBIPAUFunction@@@std@@@std@@$0A@@std@@@std@@IAEAAPAU_Node@?$_Tree_nod@V?$_Tmap_traits@IPAUFunction@@UFcmp@@V?$allocator@U?$pair@$$CBIPAUFunction@@@std@@@std@@$0A@@std@@@2@XZ 1000c940 f i aMaterial.obj
 0001:0000b990       ?_Left@?$_Tree@V?$_Tmap_traits@IPAUFunction@@UFcmp@@V?$allocator@U?$pair@$$CBIPAUFunction@@@std@@@std@@$0A@@std@@@std@@KGAAPAU_Node@?$_Tree_nod@V?$_Tmap_traits@IPAUFunction@@UFcmp@@V?$allocator@U?$pair@$$CBIPAUFunction@@@std@@@std@@$0A@@std@@@2@PAU342@@Z 1000c990 f i aMaterial.obj
 0001:0000b9c0       ?insert@?$_Tree@V?$_Tmap_traits@IPAUFunction@@UFcmp@@V?$allocator@U?$pair@$$CBIPAUFunction@@@std@@@std@@$0A@@std@@@std@@QAE?AU?$pair@Viterator@?$_Tree@V?$_Tmap_traits@IPAUFunction@@UFcmp@@V?$allocator@U?$pair@$$CBIPAUFunction@@@std@@@std@@$0A@@std@@@std@@_N@2@ABU?$pair@$$CBIPAUFunction@@@2@@Z 1000c9c0 f i aMaterial.obj
 0001:0000bbf0       ?_Root@?$_Tree@V?$_Tmap_traits@IPAUFunction@@UFcmp@@V?$allocator@U?$pair@$$CBIPAUFunction@@@std@@@std@@$0A@@std@@@std@@IAEAAPAU_Node@?$_Tree_nod@V?$_Tmap_traits@IPAUFunction@@UFcmp@@V?$allocator@U?$pair@$$CBIPAUFunction@@@std@@@std@@$0A@@std@@@2@XZ 1000cbf0 f i aMaterial.obj
 0001:0000bc40       ?_Parent@?$_Tree@V?$_Tmap_traits@IPAUFunction@@UFcmp@@V?$allocator@U?$pair@$$CBIPAUFunction@@@std@@@std@@$0A@@std@@@std@@KGAAPAU_Node@?$_Tree_nod@V?$_Tmap_traits@IPAUFunction@@UFcmp@@V?$allocator@U?$pair@$$CBIPAUFunction@@@std@@@std@@$0A@@std@@@2@PAU342@@Z 1000cc40 f i aMaterial.obj
 0001:0000bc70       ?_Insert@?$_Tree@V?$_Tmap_traits@IPAUFunction@@UFcmp@@V?$allocator@U?$pair@$$CBIPAUFunction@@@std@@@std@@$0A@@std@@@std@@IAE?AViterator@12@_NPAU_Node@?$_Tree_nod@V?$_Tmap_traits@IPAUFunction@@UFcmp@@V?$allocator@U?$pair@$$CBIPAUFunction@@@std@@@std@@$0A@@std@@@2@ABU?$pair@$$CBIPAUFunction@@@2@@Z 1000cc70 f i aMaterial.obj
 0001:0000c060       ?_Lbound@?$_Tree@V?$_Tmap_traits@IPAUFunction@@UFcmp@@V?$allocator@U?$pair@$$CBIPAUFunction@@@std@@@std@@$0A@@std@@@std@@IBEPAU_Node@?$_Tree_nod@V?$_Tmap_traits@IPAUFunction@@UFcmp@@V?$allocator@U?$pair@$$CBIPAUFunction@@@std@@@std@@$0A@@std@@@2@ABI@Z 1000d060 f i aMaterial.obj
 0001:0000c110       ?_Kfn@?$_Tmap_traits@IPAUFunction@@UFcmp@@V?$allocator@U?$pair@$$CBIPAUFunction@@@std@@@std@@$0A@@std@@SGABIABU?$pair@$$CBIPAUFunction@@@2@@Z 1000d110 f i aMaterial.obj
 0001:0000c140       ??0iterator@?$_Tree@V?$_Tmap_traits@IPAUFunction@@UFcmp@@V?$allocator@U?$pair@$$CBIPAUFunction@@@std@@@std@@$0A@@std@@@std@@QAE@XZ 1000d140 f i aMaterial.obj
 0001:0000c190       ??Eiterator@?$_Tree@V?$_Tmap_traits@IPAUFunction@@UFcmp@@V?$allocator@U?$pair@$$CBIPAUFunction@@@std@@@std@@$0A@@std@@@std@@QAEAAV012@XZ 1000d190 f i aMaterial.obj
 0001:0000c1e0       ??Fiterator@?$_Tree@V?$_Tmap_traits@IPAUFunction@@UFcmp@@V?$allocator@U?$pair@$$CBIPAUFunction@@@std@@@std@@$0A@@std@@@std@@QAEAAV012@XZ 1000d1e0 f i aMaterial.obj
 0001:0000c230       ??0const_iterator@?$_Tree@V?$_Tmap_traits@IPAUFunction@@UFcmp@@V?$allocator@U?$pair@$$CBIPAUFunction@@@std@@@std@@$0A@@std@@@std@@QAE@PAU_Node@?$_Tree_nod@V?$_Tmap_traits@IPAUFunction@@UFcmp@@V?$allocator@U?$pair@$$CBIPAUFunction@@@std@@@std@@$0A@@std@@@2@@Z 1000d230 f i aMaterial.obj
 0001:0000c270       ?_Color@?$_Tree@V?$_Tmap_traits@IPAUFunction@@UFcmp@@V?$allocator@U?$pair@$$CBIPAUFunction@@@std@@@std@@$0A@@std@@@std@@KGAADPAU_Node@?$_Tree_nod@V?$_Tmap_traits@IPAUFunction@@UFcmp@@V?$allocator@U?$pair@$$CBIPAUFunction@@@std@@@std@@$0A@@std@@@2@@Z 1000d270 f i aMaterial.obj
 0001:0000c2a0       ?max_size@?$_Tree@V?$_Tmap_traits@IPAUFunction@@UFcmp@@V?$allocator@U?$pair@$$CBIPAUFunction@@@std@@@std@@$0A@@std@@@std@@QBEIXZ 1000d2a0 f i aMaterial.obj
 0001:0000c2f0       ?_Lrotate@?$_Tree@V?$_Tmap_traits@IPAUFunction@@UFcmp@@V?$allocator@U?$pair@$$CBIPAUFunction@@@std@@@std@@$0A@@std@@@std@@IAEXPAU_Node@?$_Tree_nod@V?$_Tmap_traits@IPAUFunction@@UFcmp@@V?$allocator@U?$pair@$$CBIPAUFunction@@@std@@@std@@$0A@@std@@@2@@Z 1000d2f0 f i aMaterial.obj
 0001:0000c420       ?_Root@?$_Tree@V?$_Tmap_traits@IPAUFunction@@UFcmp@@V?$allocator@U?$pair@$$CBIPAUFunction@@@std@@@std@@$0A@@std@@@std@@IBEAAPAU_Node@?$_Tree_nod@V?$_Tmap_traits@IPAUFunction@@UFcmp@@V?$allocator@U?$pair@$$CBIPAUFunction@@@std@@@std@@$0A@@std@@@2@XZ 1000d420 f i aMaterial.obj
 0001:0000c470       ?_Rrotate@?$_Tree@V?$_Tmap_traits@IPAUFunction@@UFcmp@@V?$allocator@U?$pair@$$CBIPAUFunction@@@std@@@std@@$0A@@std@@@std@@IAEXPAU_Node@?$_Tree_nod@V?$_Tmap_traits@IPAUFunction@@UFcmp@@V?$allocator@U?$pair@$$CBIPAUFunction@@@std@@@std@@$0A@@std@@@2@@Z 1000d470 f i aMaterial.obj
 0001:0000c5a0       ?_Buynode@?$_Tree@V?$_Tmap_traits@IPAUFunction@@UFcmp@@V?$allocator@U?$pair@$$CBIPAUFunction@@@std@@@std@@$0A@@std@@@std@@IAEPAU_Node@?$_Tree_nod@V?$_Tmap_traits@IPAUFunction@@UFcmp@@V?$allocator@U?$pair@$$CBIPAUFunction@@@std@@@std@@$0A@@std@@@2@PAU342@00ABU?$pair@$$CBIPAUFunction@@@2@D@Z 1000d5a0 f i aMaterial.obj
 0001:0000c6b0       ?deallocate@?$allocator@U_Node@?$_Tree_nod@V?$_Tmap_traits@IPAUFunction@@UFcmp@@V?$allocator@U?$pair@$$CBIPAUFunction@@@std@@@std@@$0A@@std@@@std@@@std@@QAEXPAU_Node@?$_Tree_nod@V?$_Tmap_traits@IPAUFunction@@UFcmp@@V?$allocator@U?$pair@$$CBIPAUFunction@@@std@@@std@@$0A@@std@@@2@I@Z 1000d6b0 f i aMaterial.obj
 0001:0000c700       ??0const_iterator@?$_Tree@V?$_Tmap_traits@IPAUFunction@@UFcmp@@V?$allocator@U?$pair@$$CBIPAUFunction@@@std@@@std@@$0A@@std@@@std@@QAE@XZ 1000d700 f i aMaterial.obj
 0001:0000c740       ??Econst_iterator@?$_Tree@V?$_Tmap_traits@IPAUFunction@@UFcmp@@V?$allocator@U?$pair@$$CBIPAUFunction@@@std@@@std@@$0A@@std@@@std@@QAEAAV012@XZ 1000d740 f i aMaterial.obj
 0001:0000c790       ??Fconst_iterator@?$_Tree@V?$_Tmap_traits@IPAUFunction@@UFcmp@@V?$allocator@U?$pair@$$CBIPAUFunction@@@std@@@std@@$0A@@std@@@std@@QAEAAV012@XZ 1000d790 f i aMaterial.obj
 0001:0000c7e0       ??RFcmp@@QBE_NII@Z         1000d7e0 f i aMaterial.obj
 0001:0000c820       ??0?$pair@Viterator@?$_Tree@V?$_Tmap_traits@IPAUFunction@@UFcmp@@V?$allocator@U?$pair@$$CBIPAUFunction@@@std@@@std@@$0A@@std@@@std@@_N@std@@QAE@ABViterator@?$_Tree@V?$_Tmap_traits@IPAUFunction@@UFcmp@@V?$allocator@U?$pair@$$CBIPAUFunction@@@std@@@std@@$0A@@std@@@1@AB_N@Z 1000d820 f i aMaterial.obj
 0001:0000c870       ??0?$pair@Viterator@?$_Tree@V?$_Tmap_traits@HPAUMaterialType@aMaterial@@U?$less@H@std@@V?$allocator@U?$pair@$$CBHPAUMaterialType@aMaterial@@@std@@@4@$0A@@std@@@std@@_N@std@@QAE@ABViterator@?$_Tree@V?$_Tmap_traits@HPAUMaterialType@aMaterial@@U?$less@H@std@@V?$allocator@U?$pair@$$CBHPAUMaterialType@aMaterial@@@std@@@4@$0A@@std@@@1@AB_N@Z 1000d870 f i aMaterial.obj
 0001:0000c8c0       ?allocate@?$allocator@D@std@@QAEPADI@Z 1000d8c0 f i aMaterial.obj
 0001:0000c910       ?max_size@?$allocator@D@std@@QBEIXZ 1000d910 f i aMaterial.obj
 0001:0000c970       ??0Function@@QAE@XZ        1000d970 f i aMaterial.obj
 0001:0000c9c0       ?max_size@?$allocator@U?$pair@$$CBIPAUFunction@@@std@@@std@@QBEIXZ 1000d9c0 f i aMaterial.obj
 0001:0000ca20       ?allocate@?$allocator@U_Node@?$_Tree_nod@V?$_Tmap_traits@IPAUFunction@@UFcmp@@V?$allocator@U?$pair@$$CBIPAUFunction@@@std@@@std@@$0A@@std@@@std@@@std@@QAEPAU_Node@?$_Tree_nod@V?$_Tmap_traits@IPAUFunction@@UFcmp@@V?$allocator@U?$pair@$$CBIPAUFunction@@@std@@@std@@$0A@@std@@@2@I@Z 1000da20 f i aMaterial.obj
 0001:0000ca70       ??1Vector4@@QAE@XZ         1000da70 f i aMaterial.obj
 0001:0000caa0       ?_Dec@const_iterator@?$_Tree@V?$_Tmap_traits@IPAUFunction@@UFcmp@@V?$allocator@U?$pair@$$CBIPAUFunction@@@std@@@std@@$0A@@std@@@std@@QAEXXZ 1000daa0 f i aMaterial.obj
 0001:0000cb90       ?_Max@?$_Tree@V?$_Tmap_traits@IPAUFunction@@UFcmp@@V?$allocator@U?$pair@$$CBIPAUFunction@@@std@@@std@@$0A@@std@@@std@@KGPAU_Node@?$_Tree_nod@V?$_Tmap_traits@IPAUFunction@@UFcmp@@V?$allocator@U?$pair@$$CBIPAUFunction@@@std@@@std@@$0A@@std@@@2@PAU342@@Z 1000db90 f i aMaterial.obj
 0001:0000cbf0       ?_Inc@const_iterator@?$_Tree@V?$_Tmap_traits@IPAUFunction@@UFcmp@@V?$allocator@U?$pair@$$CBIPAUFunction@@@std@@@std@@$0A@@std@@@std@@QAEXXZ 1000dbf0 f i aMaterial.obj
 0001:0000ccc0       ?_Min@?$_Tree@V?$_Tmap_traits@IPAUFunction@@UFcmp@@V?$allocator@U?$pair@$$CBIPAUFunction@@@std@@@std@@$0A@@std@@@std@@KGPAU_Node@?$_Tree_nod@V?$_Tmap_traits@IPAUFunction@@UFcmp@@V?$allocator@U?$pair@$$CBIPAUFunction@@@std@@@std@@$0A@@std@@@2@PAU342@@Z 1000dcc0 f i aMaterial.obj
 0001:0000cd20       ?_Min@?$_Tree@V?$_Tmap_traits@HPAUTextureType@aMaterial@@U?$less@H@std@@V?$allocator@U?$pair@$$CBHPAUTextureType@aMaterial@@@std@@@4@$0A@@std@@@std@@KGPAU_Node@?$_Tree_nod@V?$_Tmap_traits@HPAUTextureType@aMaterial@@U?$less@H@std@@V?$allocator@U?$pair@$$CBHPAUTextureType@aMaterial@@@std@@@4@$0A@@std@@@2@PAU342@@Z 1000dd20 f i aMaterial.obj
 0001:0000cd80       ?max_size@?$allocator@U?$pair@$$CBHPAUTextureType@aMaterial@@@std@@@std@@QBEIXZ 1000dd80 f i aMaterial.obj
 0001:0000cde0       ?allocate@?$allocator@U_Node@?$_Tree_nod@V?$_Tmap_traits@HPAUTextureType@aMaterial@@U?$less@H@std@@V?$allocator@U?$pair@$$CBHPAUTextureType@aMaterial@@@std@@@4@$0A@@std@@@std@@@std@@QAEPAU_Node@?$_Tree_nod@V?$_Tmap_traits@HPAUTextureType@aMaterial@@U?$less@H@std@@V?$allocator@U?$pair@$$CBHPAUTextureType@aMaterial@@@std@@@4@$0A@@std@@@2@I@Z 1000dde0 f i aMaterial.obj
 0001:0000ce30       ?_Min@?$_Tree@V?$_Tmap_traits@HPAUMaterialType@aMaterial@@U?$less@H@std@@V?$allocator@U?$pair@$$CBHPAUMaterialType@aMaterial@@@std@@@4@$0A@@std@@@std@@KGPAU_Node@?$_Tree_nod@V?$_Tmap_traits@HPAUMaterialType@aMaterial@@U?$less@H@std@@V?$allocator@U?$pair@$$CBHPAUMaterialType@aMaterial@@@std@@@4@$0A@@std@@@2@PAU342@@Z 1000de30 f i aMaterial.obj
 0001:0000ce90       ?max_size@?$allocator@U?$pair@$$CBHPAUMaterialType@aMaterial@@@std@@@std@@QBEIXZ 1000de90 f i aMaterial.obj
 0001:0000cef0       ?allocate@?$allocator@U_Node@?$_Tree_nod@V?$_Tmap_traits@HPAUMaterialType@aMaterial@@U?$less@H@std@@V?$allocator@U?$pair@$$CBHPAUMaterialType@aMaterial@@@std@@@4@$0A@@std@@@std@@@std@@QAEPAU_Node@?$_Tree_nod@V?$_Tmap_traits@HPAUMaterialType@aMaterial@@U?$less@H@std@@V?$allocator@U?$pair@$$CBHPAUMaterialType@aMaterial@@@std@@@4@$0A@@std@@@2@I@Z 1000def0 f i aMaterial.obj
 0001:0000cf40       ?_Dec@const_iterator@?$_Tree@V?$_Tmap_traits@HPAUMaterialType@aMaterial@@U?$less@H@std@@V?$allocator@U?$pair@$$CBHPAUMaterialType@aMaterial@@@std@@@4@$0A@@std@@@std@@QAEXXZ 1000df40 f i aMaterial.obj
 0001:0000d030       ?_Max@?$_Tree@V?$_Tmap_traits@HPAUMaterialType@aMaterial@@U?$less@H@std@@V?$allocator@U?$pair@$$CBHPAUMaterialType@aMaterial@@@std@@@4@$0A@@std@@@std@@KGPAU_Node@?$_Tree_nod@V?$_Tmap_traits@HPAUMaterialType@aMaterial@@U?$less@H@std@@V?$allocator@U?$pair@$$CBHPAUMaterialType@aMaterial@@@std@@@4@$0A@@std@@@2@PAU342@@Z 1000e030 f i aMaterial.obj
 0001:0000d090       ?_Dec@const_iterator@?$_Tree@V?$_Tmap_traits@HPAUTextureType@aMaterial@@U?$less@H@std@@V?$allocator@U?$pair@$$CBHPAUTextureType@aMaterial@@@std@@@4@$0A@@std@@@std@@QAEXXZ 1000e090 f i aMaterial.obj
 0001:0000d180       ?_Max@?$_Tree@V?$_Tmap_traits@HPAUTextureType@aMaterial@@U?$less@H@std@@V?$allocator@U?$pair@$$CBHPAUTextureType@aMaterial@@@std@@@4@$0A@@std@@@std@@KGPAU_Node@?$_Tree_nod@V?$_Tmap_traits@HPAUTextureType@aMaterial@@U?$less@H@std@@V?$allocator@U?$pair@$$CBHPAUTextureType@aMaterial@@@std@@@4@$0A@@std@@@2@PAU342@@Z 1000e180 f i aMaterial.obj
 0001:0000d1e0       ??0_Node@?$_Tree_nod@V?$_Tmap_traits@IPAUFunction@@UFcmp@@V?$allocator@U?$pair@$$CBIPAUFunction@@@std@@@std@@$0A@@std@@@std@@QAE@PAU012@00ABU?$pair@$$CBIPAUFunction@@@2@D@Z 1000e1e0 f i aMaterial.obj
 0001:0000d250       ??0_Node@?$_Tree_nod@V?$_Tmap_traits@HPAUTextureType@aMaterial@@U?$less@H@std@@V?$allocator@U?$pair@$$CBHPAUTextureType@aMaterial@@@std@@@4@$0A@@std@@@std@@QAE@PAU012@00ABU?$pair@$$CBHPAUTextureType@aMaterial@@@2@D@Z 1000e250 f i aMaterial.obj
 0001:0000d2c0       ??0_Node@?$_Tree_nod@V?$_Tmap_traits@HPAUMaterialType@aMaterial@@U?$less@H@std@@V?$allocator@U?$pair@$$CBHPAUMaterialType@aMaterial@@@std@@@4@$0A@@std@@@std@@QAE@PAU012@00ABU?$pair@$$CBHPAUMaterialType@aMaterial@@@2@D@Z 1000e2c0 f i aMaterial.obj
 0001:0000d330       ??$CRCMaker@PBD@CRC@@YGIPBD@Z 1000e330 f i aMaterial.obj
 0001:0000d880       ??$CRCMaker@PAI@CRC@@YGIPAI@Z 1000e880 f i aMaterial.obj
 0001:0000ddd0       ??$GetData@H@PackClass@Packet@@QAEHH@Z 1000edd0 f i aMaterial.obj
 0001:0000de70       ??$?YPBD@PackClass@Packet@@QAEIPBD@Z 1000ee70 f i aMaterial.obj
 0001:0000dec0       ?AddParam@PackClass@Packet@@QAEIPBD@Z 1000eec0 f i aMaterial.obj
 0001:0000df30       ?AddTypeToField@PackClass@Packet@@QAEXI@Z 1000ef30 f i aMaterial.obj
 0001:0000dfc0       ?AddData@PackClass@Packet@@QAEIPAXI@Z 1000efc0 f i aMaterial.obj
 0001:0000e130       ??$GetData@J@PackClass@Packet@@QAEJJ@Z 1000f130 f i aMaterial.obj
 0001:0000e1d0       ??$?YH@PackClass@Packet@@QAEIH@Z 1000f1d0 f i aMaterial.obj
 0001:0000e220       ?AddParam@PackClass@Packet@@QAEIH@Z 1000f220 f i aMaterial.obj
 0001:0000e280       ??$?YM@PackClass@Packet@@QAEIM@Z 1000f280 f i aMaterial.obj
 0001:0000e2d0       ?AddParam@PackClass@Packet@@QAEIM@Z 1000f2d0 f i aMaterial.obj
 0001:0000e330       ??$GetData@M@PackClass@Packet@@QAEMM@Z 1000f330 f i aMaterial.obj
 0001:0000e3d0       ??$GetData@K@PackClass@Packet@@QAEKK@Z 1000f3d0 f i aMaterial.obj
 0001:0000e470       ??$?YPAD@PackClass@Packet@@QAEIPAD@Z 1000f470 f i aMaterial.obj
 0001:0000e4c0       ?AddParam@PackClass@Packet@@QAEIPAD@Z 1000f4c0 f i aMaterial.obj
 0001:0000e530       ??$_Uninitialized_fill_n@PAIIIV?$allocator@I@std@@@std@@YGXPAIIABIAAV?$allocator@I@0@@Z 1000f530 f i aMaterial.obj
 0001:0000e5a0       ?_Ptr_cat@std@@YG?AU_Scalar_ptr_iterator_tag@1@PAI0@Z 1000f5a0 f i aMaterial.obj
 0001:0000e600       ??$_Allocate@I@std@@YGPAIIPAI@Z 1000f600 f i aMaterial.obj
 0001:0000e650       ??$_Destroy_range@IV?$allocator@I@std@@@std@@YGXPAI0AAV?$allocator@I@0@@Z 1000f650 f i aMaterial.obj
 0001:0000e6b0       ??$_Ucopy@PAI@?$vector@IV?$allocator@I@std@@@std@@IAEPAIPAI00@Z 1000f6b0 f i aMaterial.obj
 0001:0000e700       ??$fill@PAII@std@@YGXPAI0ABI@Z 1000f700 f i aMaterial.obj
 0001:0000e750       ??$copy_backward@PAIPAI@std@@YGPAIPAI00@Z 1000f750 f i aMaterial.obj
 0001:0000e7b0       ??$_Destroy@U_Node@?$_Tree_nod@V?$_Tmap_traits@HPAUTextureType@aMaterial@@U?$less@H@std@@V?$allocator@U?$pair@$$CBHPAUTextureType@aMaterial@@@std@@@4@$0A@@std@@@std@@@std@@YGXPAU_Node@?$_Tree_nod@V?$_Tmap_traits@HPAUTextureType@aMaterial@@U?$less@H@std@@V?$allocator@U?$pair@$$CBHPAUTextureType@aMaterial@@@std@@@4@$0A@@std@@@0@@Z 1000f7b0 f i aMaterial.obj
 0001:0000e7e0       ??$_Destroy@U_Node@?$_Tree_nod@V?$_Tmap_traits@HPAUMaterialType@aMaterial@@U?$less@H@std@@V?$allocator@U?$pair@$$CBHPAUMaterialType@aMaterial@@@std@@@4@$0A@@std@@@std@@@std@@YGXPAU_Node@?$_Tree_nod@V?$_Tmap_traits@HPAUMaterialType@aMaterial@@U?$less@H@std@@V?$allocator@U?$pair@$$CBHPAUMaterialType@aMaterial@@@std@@@4@$0A@@std@@@0@@Z 1000f7e0 f i aMaterial.obj
 0001:0000e810       ??$_Allocate@D@std@@YGPADIPAD@Z 1000f810 f i aMaterial.obj
 0001:0000e850       ??$_Allocate@U_Node@?$_Tree_nod@V?$_Tmap_traits@IPAUFunction@@UFcmp@@V?$allocator@U?$pair@$$CBIPAUFunction@@@std@@@std@@$0A@@std@@@std@@@std@@YGPAU_Node@?$_Tree_nod@V?$_Tmap_traits@IPAUFunction@@UFcmp@@V?$allocator@U?$pair@$$CBIPAUFunction@@@std@@@std@@$0A@@std@@@0@IPAU120@@Z 1000f850 f i aMaterial.obj
 0001:0000e8a0       ??$_Allocate@U_Node@?$_Tree_nod@V?$_Tmap_traits@HPAUTextureType@aMaterial@@U?$less@H@std@@V?$allocator@U?$pair@$$CBHPAUTextureType@aMaterial@@@std@@@4@$0A@@std@@@std@@@std@@YGPAU_Node@?$_Tree_nod@V?$_Tmap_traits@HPAUTextureType@aMaterial@@U?$less@H@std@@V?$allocator@U?$pair@$$CBHPAUTextureType@aMaterial@@@std@@@4@$0A@@std@@@0@IPAU120@@Z 1000f8a0 f i aMaterial.obj
 0001:0000e8f0       ??$_Allocate@U_Node@?$_Tree_nod@V?$_Tmap_traits@HPAUMaterialType@aMaterial@@U?$less@H@std@@V?$allocator@U?$pair@$$CBHPAUMaterialType@aMaterial@@@std@@@4@$0A@@std@@@std@@@std@@YGPAU_Node@?$_Tree_nod@V?$_Tmap_traits@HPAUMaterialType@aMaterial@@U?$less@H@std@@V?$allocator@U?$pair@$$CBHPAUMaterialType@aMaterial@@@std@@@4@$0A@@std@@@0@IPAU120@@Z 1000f8f0 f i aMaterial.obj
 0001:0000e940       ??$GetDataIndex@H@PackClass@Packet@@QAEHIH@Z 1000f940 f i aMaterial.obj
 0001:0000e980       ??$GetDataIndex@J@PackClass@Packet@@QAEJIJ@Z 1000f980 f i aMaterial.obj
 0001:0000e9c0       ??$GetDataIndex@M@PackClass@Packet@@QAEMIM@Z 1000f9c0 f i aMaterial.obj
 0001:0000ea00       ??$GetDataIndex@K@PackClass@Packet@@QAEKIK@Z 1000fa00 f i aMaterial.obj
 0001:0000ea40       ??$_Uninit_fill_n@III@std@@YGXPAIIABIAAV?$allocator@I@0@U_Scalar_ptr_iterator_tag@0@@Z 1000fa40 f i aMaterial.obj
 0001:0000ea90       ??$_Destroy_range@IV?$allocator@I@std@@@std@@YGXPAI0AAV?$allocator@I@0@U_Scalar_ptr_iterator_tag@0@@Z 1000fa90 f i aMaterial.obj
 0001:0000eac0       ??$_Uninitialized_copy@PAIPAIV?$allocator@I@std@@@std@@YGPAIPAI00AAV?$allocator@I@0@@Z 1000fac0 f i aMaterial.obj
 0001:0000eb30       ??$_Copy_backward_opt@PAIPAI@std@@YGPAIPAI00U_Scalar_ptr_iterator_tag@0@@Z 1000fb30 f i aMaterial.obj
 0001:0000eb90       ??$fill_n@PAIII@std@@YGXPAIIABI@Z 1000fb90 f i aMaterial.obj
 0001:0000ebe0       ??$_Uninit_copy@II@std@@YGPAIPAI00AAV?$allocator@I@0@U_Scalar_ptr_iterator_tag@0@@Z 1000fbe0 f i aMaterial.obj
 0001:0000ec40       ??0ApolloClass@@QAE@XZ     1000fc40 f i aMaterial.obj
 0001:0000ecf0       ??0BaseClass@Comm@@QAE@XZ  1000fcf0 f i aMaterial.obj
 0001:0000ed90       ??0?$map@IPAUFunction@@UFcmp@@V?$allocator@U?$pair@$$CBIPAUFunction@@@std@@@std@@@std@@QAE@XZ 1000fd90 f i aMaterial.obj
 0001:0000edf0       ??0?$map@IPAXUVcmp@@V?$allocator@U?$pair@$$CBIPAX@std@@@std@@@std@@QAE@XZ 1000fdf0 f i aMaterial.obj
 0001:0000ee50       ??0?$_Tree@V?$_Tmap_traits@IPAUFunction@@UFcmp@@V?$allocator@U?$pair@$$CBIPAUFunction@@@std@@@std@@$0A@@std@@@std@@QAE@ABUFcmp@@ABV?$allocator@U?$pair@$$CBIPAUFunction@@@std@@@1@@Z 1000fe50 f i aMaterial.obj
 0001:0000eeb0       ??0?$allocator@U?$pair@$$CBIPAUFunction@@@std@@@std@@QAE@XZ 1000feb0 f i aMaterial.obj
 0001:0000eee0       ??0?$_Tree@V?$_Tmap_traits@IPAXUVcmp@@V?$allocator@U?$pair@$$CBIPAX@std@@@std@@$0A@@std@@@std@@QAE@ABUVcmp@@ABV?$allocator@U?$pair@$$CBIPAX@std@@@1@@Z 1000fee0 f i aMaterial.obj
 0001:0000ef40       ??0?$allocator@U?$pair@$$CBIPAX@std@@@std@@QAE@XZ 1000ff40 f i aMaterial.obj
 0001:0000ef70       ?_Init@?$_Tree@V?$_Tmap_traits@IPAUFunction@@UFcmp@@V?$allocator@U?$pair@$$CBIPAUFunction@@@std@@@std@@$0A@@std@@@std@@IAEXXZ 1000ff70 f i aMaterial.obj
 0001:0000f000       ??0?$_Tree_val@V?$_Tmap_traits@IPAUFunction@@UFcmp@@V?$allocator@U?$pair@$$CBIPAUFunction@@@std@@@std@@$0A@@std@@@std@@IAE@ABUFcmp@@V?$allocator@U?$pair@$$CBIPAUFunction@@@std@@@1@@Z 10010000 f i aMaterial.obj
 0001:0000f070       ??0?$allocator@U?$pair@$$CBIPAUFunction@@@std@@@std@@QAE@ABV01@@Z 10010070 f i aMaterial.obj
 0001:0000f0a0       ?_Init@?$_Tree@V?$_Tmap_traits@IPAXUVcmp@@V?$allocator@U?$pair@$$CBIPAX@std@@@std@@$0A@@std@@@std@@IAEXXZ 100100a0 f i aMaterial.obj
 0001:0000f130       ?_Lmost@?$_Tree@V?$_Tmap_traits@IPAXUVcmp@@V?$allocator@U?$pair@$$CBIPAX@std@@@std@@$0A@@std@@@std@@IAEAAPAU_Node@?$_Tree_nod@V?$_Tmap_traits@IPAXUVcmp@@V?$allocator@U?$pair@$$CBIPAX@std@@@std@@$0A@@std@@@2@XZ 10010130 f i aMaterial.obj
 0001:0000f180       ?_Rmost@?$_Tree@V?$_Tmap_traits@IPAXUVcmp@@V?$allocator@U?$pair@$$CBIPAX@std@@@std@@$0A@@std@@@std@@IAEAAPAU_Node@?$_Tree_nod@V?$_Tmap_traits@IPAXUVcmp@@V?$allocator@U?$pair@$$CBIPAX@std@@@std@@$0A@@std@@@2@XZ 10010180 f i aMaterial.obj
 0001:0000f1d0       ?_Root@?$_Tree@V?$_Tmap_traits@IPAXUVcmp@@V?$allocator@U?$pair@$$CBIPAX@std@@@std@@$0A@@std@@@std@@IAEAAPAU_Node@?$_Tree_nod@V?$_Tmap_traits@IPAXUVcmp@@V?$allocator@U?$pair@$$CBIPAX@std@@@std@@$0A@@std@@@2@XZ 100101d0 f i aMaterial.obj
 0001:0000f220       ?_Isnil@?$_Tree@V?$_Tmap_traits@IPAXUVcmp@@V?$allocator@U?$pair@$$CBIPAX@std@@@std@@$0A@@std@@@std@@KGAADPAU_Node@?$_Tree_nod@V?$_Tmap_traits@IPAXUVcmp@@V?$allocator@U?$pair@$$CBIPAX@std@@@std@@$0A@@std@@@2@@Z 10010220 f i aMaterial.obj
 0001:0000f250       ?_Left@?$_Tree@V?$_Tmap_traits@IPAXUVcmp@@V?$allocator@U?$pair@$$CBIPAX@std@@@std@@$0A@@std@@@std@@KGAAPAU_Node@?$_Tree_nod@V?$_Tmap_traits@IPAXUVcmp@@V?$allocator@U?$pair@$$CBIPAX@std@@@std@@$0A@@std@@@2@PAU342@@Z 10010250 f i aMaterial.obj
 0001:0000f280       ?_Parent@?$_Tree@V?$_Tmap_traits@IPAXUVcmp@@V?$allocator@U?$pair@$$CBIPAX@std@@@std@@$0A@@std@@@std@@KGAAPAU_Node@?$_Tree_nod@V?$_Tmap_traits@IPAXUVcmp@@V?$allocator@U?$pair@$$CBIPAX@std@@@std@@$0A@@std@@@2@PAU342@@Z 10010280 f i aMaterial.obj
 0001:0000f2b0       ?_Right@?$_Tree@V?$_Tmap_traits@IPAXUVcmp@@V?$allocator@U?$pair@$$CBIPAX@std@@@std@@$0A@@std@@@std@@KGAAPAU_Node@?$_Tree_nod@V?$_Tmap_traits@IPAXUVcmp@@V?$allocator@U?$pair@$$CBIPAX@std@@@std@@$0A@@std@@@2@PAU342@@Z 100102b0 f i aMaterial.obj
 0001:0000f2e0       ??0?$_Tree_val@V?$_Tmap_traits@IPAXUVcmp@@V?$allocator@U?$pair@$$CBIPAX@std@@@std@@$0A@@std@@@std@@IAE@ABUVcmp@@V?$allocator@U?$pair@$$CBIPAX@std@@@1@@Z 100102e0 f i aMaterial.obj
 0001:0000f350       ??0?$allocator@U?$pair@$$CBIPAX@std@@@std@@QAE@ABV01@@Z 10010350 f i aMaterial.obj
 0001:0000f380       ?_Buynode@?$_Tree@V?$_Tmap_traits@IPAUFunction@@UFcmp@@V?$allocator@U?$pair@$$CBIPAUFunction@@@std@@@std@@$0A@@std@@@std@@IAEPAU_Node@?$_Tree_nod@V?$_Tmap_traits@IPAUFunction@@UFcmp@@V?$allocator@U?$pair@$$CBIPAUFunction@@@std@@@std@@$0A@@std@@@2@XZ 10010380 f i aMaterial.obj
 0001:0000f520       ?destroy@?$allocator@PAU_Node@?$_Tree_nod@V?$_Tmap_traits@IPAUFunction@@UFcmp@@V?$allocator@U?$pair@$$CBIPAUFunction@@@std@@@std@@$0A@@std@@@std@@@std@@QAEXPAPAU_Node@?$_Tree_nod@V?$_Tmap_traits@IPAUFunction@@UFcmp@@V?$allocator@U?$pair@$$CBIPAUFunction@@@std@@@std@@$0A@@std@@@2@@Z 10010520 f i aMaterial.obj
 0001:0000f570       ??0?$_Tree_ptr@V?$_Tmap_traits@IPAUFunction@@UFcmp@@V?$allocator@U?$pair@$$CBIPAUFunction@@@std@@@std@@$0A@@std@@@std@@IAE@ABUFcmp@@V?$allocator@U?$pair@$$CBIPAUFunction@@@std@@@1@@Z 10010570 f i aMaterial.obj
 0001:0000f5e0       ?_Buynode@?$_Tree@V?$_Tmap_traits@IPAXUVcmp@@V?$allocator@U?$pair@$$CBIPAX@std@@@std@@$0A@@std@@@std@@IAEPAU_Node@?$_Tree_nod@V?$_Tmap_traits@IPAXUVcmp@@V?$allocator@U?$pair@$$CBIPAX@std@@@std@@$0A@@std@@@2@XZ 100105e0 f i aMaterial.obj
 0001:0000f780       ?deallocate@?$allocator@U_Node@?$_Tree_nod@V?$_Tmap_traits@IPAXUVcmp@@V?$allocator@U?$pair@$$CBIPAX@std@@@std@@$0A@@std@@@std@@@std@@QAEXPAU_Node@?$_Tree_nod@V?$_Tmap_traits@IPAXUVcmp@@V?$allocator@U?$pair@$$CBIPAX@std@@@std@@$0A@@std@@@2@I@Z 10010780 f i aMaterial.obj
 0001:0000f7d0       ?destroy@?$allocator@PAU_Node@?$_Tree_nod@V?$_Tmap_traits@IPAXUVcmp@@V?$allocator@U?$pair@$$CBIPAX@std@@@std@@$0A@@std@@@std@@@std@@QAEXPAPAU_Node@?$_Tree_nod@V?$_Tmap_traits@IPAXUVcmp@@V?$allocator@U?$pair@$$CBIPAX@std@@@std@@$0A@@std@@@2@@Z 100107d0 f i aMaterial.obj
 0001:0000f820       ??0?$_Tree_ptr@V?$_Tmap_traits@IPAXUVcmp@@V?$allocator@U?$pair@$$CBIPAX@std@@@std@@$0A@@std@@@std@@IAE@ABUVcmp@@V?$allocator@U?$pair@$$CBIPAX@std@@@1@@Z 10010820 f i aMaterial.obj
 0001:0000f890       ??1BaseClass@Comm@@QAE@XZ  10010890 f i aMaterial.obj
 0001:0000f930       ?clear@?$_Tree@V?$_Tmap_traits@IPAUFunction@@UFcmp@@V?$allocator@U?$pair@$$CBIPAUFunction@@@std@@@std@@$0A@@std@@@std@@QAEXXZ 10010930 f i aMaterial.obj
 0001:0000f9c0       ?clear@?$_Tree@V?$_Tmap_traits@IPAXUVcmp@@V?$allocator@U?$pair@$$CBIPAX@std@@@std@@$0A@@std@@@std@@QAEXXZ 100109c0 f i aMaterial.obj
 0001:0000fa50       ?_Erase@?$_Tree@V?$_Tmap_traits@IPAUFunction@@UFcmp@@V?$allocator@U?$pair@$$CBIPAUFunction@@@std@@@std@@$0A@@std@@@std@@IAEXPAU_Node@?$_Tree_nod@V?$_Tmap_traits@IPAUFunction@@UFcmp@@V?$allocator@U?$pair@$$CBIPAUFunction@@@std@@@std@@$0A@@std@@@2@@Z 10010a50 f i aMaterial.obj
 0001:0000faf0       ?_Erase@?$_Tree@V?$_Tmap_traits@IPAXUVcmp@@V?$allocator@U?$pair@$$CBIPAX@std@@@std@@$0A@@std@@@std@@IAEXPAU_Node@?$_Tree_nod@V?$_Tmap_traits@IPAXUVcmp@@V?$allocator@U?$pair@$$CBIPAX@std@@@std@@$0A@@std@@@2@@Z 10010af0 f i aMaterial.obj
 0001:0000fb90       ?destroy@?$allocator@U_Node@?$_Tree_nod@V?$_Tmap_traits@IPAUFunction@@UFcmp@@V?$allocator@U?$pair@$$CBIPAUFunction@@@std@@@std@@$0A@@std@@@std@@@std@@QAEXPAU_Node@?$_Tree_nod@V?$_Tmap_traits@IPAUFunction@@UFcmp@@V?$allocator@U?$pair@$$CBIPAUFunction@@@std@@@std@@$0A@@std@@@2@@Z 10010b90 f i aMaterial.obj
 0001:0000fbe0       ?destroy@?$allocator@U_Node@?$_Tree_nod@V?$_Tmap_traits@IPAXUVcmp@@V?$allocator@U?$pair@$$CBIPAX@std@@@std@@$0A@@std@@@std@@@std@@QAEXPAU_Node@?$_Tree_nod@V?$_Tmap_traits@IPAXUVcmp@@V?$allocator@U?$pair@$$CBIPAX@std@@@std@@$0A@@std@@@2@@Z 10010be0 f i aMaterial.obj
 0001:0000fc30       ??1?$map@IPAUFunction@@UFcmp@@V?$allocator@U?$pair@$$CBIPAUFunction@@@std@@@std@@@std@@QAE@XZ 10010c30 f i aMaterial.obj
 0001:0000fc70       ??1?$_Tree@V?$_Tmap_traits@IPAUFunction@@UFcmp@@V?$allocator@U?$pair@$$CBIPAUFunction@@@std@@@std@@$0A@@std@@@std@@QAE@XZ 10010c70 f i aMaterial.obj
 0001:0000fcb0       ?_Tidy@?$_Tree@V?$_Tmap_traits@IPAUFunction@@UFcmp@@V?$allocator@U?$pair@$$CBIPAUFunction@@@std@@@std@@$0A@@std@@@std@@IAEXXZ 10010cb0 f i aMaterial.obj
 0001:0000fd90       ?erase@?$_Tree@V?$_Tmap_traits@IPAUFunction@@UFcmp@@V?$allocator@U?$pair@$$CBIPAUFunction@@@std@@@std@@$0A@@std@@@std@@QAE?AViterator@12@V312@0@Z 10010d90 f i aMaterial.obj
 0001:0000fe70       ??9const_iterator@?$_Tree@V?$_Tmap_traits@IPAUFunction@@UFcmp@@V?$allocator@U?$pair@$$CBIPAUFunction@@@std@@@std@@$0A@@std@@@std@@QBE_NABV012@@Z 10010e70 f i aMaterial.obj
 0001:0000fec0       ?erase@?$_Tree@V?$_Tmap_traits@IPAUFunction@@UFcmp@@V?$allocator@U?$pair@$$CBIPAUFunction@@@std@@@std@@$0A@@std@@@std@@QAE?AViterator@12@V312@@Z 10010ec0 f i aMaterial.obj
 0001:000105a0       ??0out_of_range@std@@QAE@ABV?$basic_string@DU?$char_traits@D@std@@V?$allocator@D@2@@1@@Z 100115a0 f i aMaterial.obj
 0001:00010600       ??1out_of_range@std@@UAE@XZ 10011600 f i aMaterial.obj
 0001:00010650       ??_Eout_of_range@std@@UAEPAXI@Z 10011650 f i aMaterial.obj
 0001:00010650       ??_Gout_of_range@std@@UAEPAXI@Z 10011650 f i aMaterial.obj
 0001:000106b0       ??Eiterator@?$_Tree@V?$_Tmap_traits@IPAUFunction@@UFcmp@@V?$allocator@U?$pair@$$CBIPAUFunction@@@std@@@std@@$0A@@std@@@std@@QAE?AV012@H@Z 100116b0 f i aMaterial.obj
 0001:00010730       ??0out_of_range@std@@QAE@ABV01@@Z 10011730 f i aMaterial.obj
 0001:00010790       ??1?$map@IPAXUVcmp@@V?$allocator@U?$pair@$$CBIPAX@std@@@std@@@std@@QAE@XZ 10011790 f i aMaterial.obj
 0001:000107d0       ??1?$_Tree@V?$_Tmap_traits@IPAXUVcmp@@V?$allocator@U?$pair@$$CBIPAX@std@@@std@@$0A@@std@@@std@@QAE@XZ 100117d0 f i aMaterial.obj
 0001:00010810       ?_Tidy@?$_Tree@V?$_Tmap_traits@IPAXUVcmp@@V?$allocator@U?$pair@$$CBIPAX@std@@@std@@$0A@@std@@@std@@IAEXXZ 10011810 f i aMaterial.obj
 0001:000108f0       ?begin@?$_Tree@V?$_Tmap_traits@IPAXUVcmp@@V?$allocator@U?$pair@$$CBIPAX@std@@@std@@$0A@@std@@@std@@QAE?AViterator@12@XZ 100118f0 f i aMaterial.obj
 0001:00010940       ?end@?$_Tree@V?$_Tmap_traits@IPAXUVcmp@@V?$allocator@U?$pair@$$CBIPAX@std@@@std@@$0A@@std@@@std@@QAE?AViterator@12@XZ 10011940 f i aMaterial.obj
 0001:00010990       ?erase@?$_Tree@V?$_Tmap_traits@IPAXUVcmp@@V?$allocator@U?$pair@$$CBIPAX@std@@@std@@$0A@@std@@@std@@QAE?AViterator@12@V312@0@Z 10011990 f i aMaterial.obj
 0001:00010a70       ?erase@?$_Tree@V?$_Tmap_traits@IPAXUVcmp@@V?$allocator@U?$pair@$$CBIPAX@std@@@std@@$0A@@std@@@std@@QAE?AViterator@12@V312@@Z 10011a70 f i aMaterial.obj
 0001:00011150       ??0iterator@?$_Tree@V?$_Tmap_traits@IPAXUVcmp@@V?$allocator@U?$pair@$$CBIPAX@std@@@std@@$0A@@std@@@std@@QAE@PAU_Node@?$_Tree_nod@V?$_Tmap_traits@IPAXUVcmp@@V?$allocator@U?$pair@$$CBIPAX@std@@@std@@$0A@@std@@@2@@Z 10012150 f i aMaterial.obj
 0001:000111a0       ??Eiterator@?$_Tree@V?$_Tmap_traits@IPAXUVcmp@@V?$allocator@U?$pair@$$CBIPAX@std@@@std@@$0A@@std@@@std@@QAE?AV012@H@Z 100121a0 f i aMaterial.obj
 0001:00011220       ??8const_iterator@?$_Tree@V?$_Tmap_traits@IPAXUVcmp@@V?$allocator@U?$pair@$$CBIPAX@std@@@std@@$0A@@std@@@std@@QBE_NABV012@@Z 10012220 f i aMaterial.obj
 0001:00011260       ??9const_iterator@?$_Tree@V?$_Tmap_traits@IPAXUVcmp@@V?$allocator@U?$pair@$$CBIPAX@std@@@std@@$0A@@std@@@std@@QBE_NABV012@@Z 10012260 f i aMaterial.obj
 0001:000112b0       ??1Function@@QAE@XZ        100122b0 f i aMaterial.obj
 0001:000112f0       ??0?$_Tree_nod@V?$_Tmap_traits@IPAUFunction@@UFcmp@@V?$allocator@U?$pair@$$CBIPAUFunction@@@std@@@std@@$0A@@std@@@std@@IAE@ABUFcmp@@V?$allocator@U?$pair@$$CBIPAUFunction@@@std@@@1@@Z 100122f0 f i aMaterial.obj
 0001:00011350       ?construct@?$allocator@PAU_Node@?$_Tree_nod@V?$_Tmap_traits@IPAUFunction@@UFcmp@@V?$allocator@U?$pair@$$CBIPAUFunction@@@std@@@std@@$0A@@std@@@std@@@std@@QAEXPAPAU_Node@?$_Tree_nod@V?$_Tmap_traits@IPAUFunction@@UFcmp@@V?$allocator@U?$pair@$$CBIPAUFunction@@@std@@@std@@$0A@@std@@@2@ABQAU342@@Z 10012350 f i aMaterial.obj
 0001:000113a0       ?_Color@?$_Tree@V?$_Tmap_traits@IPAXUVcmp@@V?$allocator@U?$pair@$$CBIPAX@std@@@std@@$0A@@std@@@std@@KGAADPAU_Node@?$_Tree_nod@V?$_Tmap_traits@IPAXUVcmp@@V?$allocator@U?$pair@$$CBIPAX@std@@@std@@$0A@@std@@@2@@Z 100123a0 f i aMaterial.obj
 0001:000113d0       ?_Lrotate@?$_Tree@V?$_Tmap_traits@IPAXUVcmp@@V?$allocator@U?$pair@$$CBIPAX@std@@@std@@$0A@@std@@@std@@IAEXPAU_Node@?$_Tree_nod@V?$_Tmap_traits@IPAXUVcmp@@V?$allocator@U?$pair@$$CBIPAX@std@@@std@@$0A@@std@@@2@@Z 100123d0 f i aMaterial.obj
 0001:00011500       ?_Max@?$_Tree@V?$_Tmap_traits@IPAXUVcmp@@V?$allocator@U?$pair@$$CBIPAX@std@@@std@@$0A@@std@@@std@@KGPAU_Node@?$_Tree_nod@V?$_Tmap_traits@IPAXUVcmp@@V?$allocator@U?$pair@$$CBIPAX@std@@@std@@$0A@@std@@@2@PAU342@@Z 10012500 f i aMaterial.obj
 0001:00011560       ?_Min@?$_Tree@V?$_Tmap_traits@IPAXUVcmp@@V?$allocator@U?$pair@$$CBIPAX@std@@@std@@$0A@@std@@@std@@KGPAU_Node@?$_Tree_nod@V?$_Tmap_traits@IPAXUVcmp@@V?$allocator@U?$pair@$$CBIPAX@std@@@std@@$0A@@std@@@2@PAU342@@Z 10012560 f i aMaterial.obj
 0001:000115c0       ?_Rrotate@?$_Tree@V?$_Tmap_traits@IPAXUVcmp@@V?$allocator@U?$pair@$$CBIPAX@std@@@std@@$0A@@std@@@std@@IAEXPAU_Node@?$_Tree_nod@V?$_Tmap_traits@IPAXUVcmp@@V?$allocator@U?$pair@$$CBIPAX@std@@@std@@$0A@@std@@@2@@Z 100125c0 f i aMaterial.obj
 0001:000116f0       ??0?$_Tree_nod@V?$_Tmap_traits@IPAXUVcmp@@V?$allocator@U?$pair@$$CBIPAX@std@@@std@@$0A@@std@@@std@@IAE@ABUVcmp@@V?$allocator@U?$pair@$$CBIPAX@std@@@1@@Z 100126f0 f i aMaterial.obj
 0001:00011750       ?allocate@?$allocator@U_Node@?$_Tree_nod@V?$_Tmap_traits@IPAXUVcmp@@V?$allocator@U?$pair@$$CBIPAX@std@@@std@@$0A@@std@@@std@@@std@@QAEPAU_Node@?$_Tree_nod@V?$_Tmap_traits@IPAXUVcmp@@V?$allocator@U?$pair@$$CBIPAX@std@@@std@@$0A@@std@@@2@I@Z 10012750 f i aMaterial.obj
 0001:000117a0       ?construct@?$allocator@PAU_Node@?$_Tree_nod@V?$_Tmap_traits@IPAXUVcmp@@V?$allocator@U?$pair@$$CBIPAX@std@@@std@@$0A@@std@@@std@@@std@@QAEXPAPAU_Node@?$_Tree_nod@V?$_Tmap_traits@IPAXUVcmp@@V?$allocator@U?$pair@$$CBIPAX@std@@@std@@$0A@@std@@@2@ABQAU342@@Z 100127a0 f i aMaterial.obj
 0001:000117f0       ??Eiterator@?$_Tree@V?$_Tmap_traits@IPAXUVcmp@@V?$allocator@U?$pair@$$CBIPAX@std@@@std@@$0A@@std@@@std@@QAEAAV012@XZ 100127f0 f i aMaterial.obj
 0001:00011840       ??0const_iterator@?$_Tree@V?$_Tmap_traits@IPAXUVcmp@@V?$allocator@U?$pair@$$CBIPAX@std@@@std@@$0A@@std@@@std@@QAE@PAU_Node@?$_Tree_nod@V?$_Tmap_traits@IPAXUVcmp@@V?$allocator@U?$pair@$$CBIPAX@std@@@std@@$0A@@std@@@2@@Z 10012840 f i aMaterial.obj
 0001:00011880       ?_Mynode@const_iterator@?$_Tree@V?$_Tmap_traits@IPAXUVcmp@@V?$allocator@U?$pair@$$CBIPAX@std@@@std@@$0A@@std@@@std@@QBEPAU_Node@?$_Tree_nod@V?$_Tmap_traits@IPAXUVcmp@@V?$allocator@U?$pair@$$CBIPAX@std@@@std@@$0A@@std@@@3@XZ 10012880 f i aMaterial.obj
 0001:000118b0       ??0?$_Tmap_traits@IPAUFunction@@UFcmp@@V?$allocator@U?$pair@$$CBIPAUFunction@@@std@@@std@@$0A@@std@@QAE@UFcmp@@@Z 100128b0 f i aMaterial.obj
 0001:000118e0       ??0?$_Tmap_traits@IPAXUVcmp@@V?$allocator@U?$pair@$$CBIPAX@std@@@std@@$0A@@std@@QAE@UVcmp@@@Z 100128e0 f i aMaterial.obj
 0001:00011910       ??Econst_iterator@?$_Tree@V?$_Tmap_traits@IPAXUVcmp@@V?$allocator@U?$pair@$$CBIPAX@std@@@std@@$0A@@std@@@std@@QAEAAV012@XZ 10012910 f i aMaterial.obj
 0001:00011960       ?_Inc@const_iterator@?$_Tree@V?$_Tmap_traits@IPAXUVcmp@@V?$allocator@U?$pair@$$CBIPAX@std@@@std@@$0A@@std@@@std@@QAEXXZ 10012960 f i aMaterial.obj
 0001:00011a30       ??$_Destroy@U_Node@?$_Tree_nod@V?$_Tmap_traits@IPAUFunction@@UFcmp@@V?$allocator@U?$pair@$$CBIPAUFunction@@@std@@@std@@$0A@@std@@@std@@@std@@YGXPAU_Node@?$_Tree_nod@V?$_Tmap_traits@IPAUFunction@@UFcmp@@V?$allocator@U?$pair@$$CBIPAUFunction@@@std@@@std@@$0A@@std@@@0@@Z 10012a30 f i aMaterial.obj
 0001:00011a60       ??$_Destroy@PAU_Node@?$_Tree_nod@V?$_Tmap_traits@IPAUFunction@@UFcmp@@V?$allocator@U?$pair@$$CBIPAUFunction@@@std@@@std@@$0A@@std@@@std@@@std@@YGXPAPAU_Node@?$_Tree_nod@V?$_Tmap_traits@IPAUFunction@@UFcmp@@V?$allocator@U?$pair@$$CBIPAUFunction@@@std@@@std@@$0A@@std@@@0@@Z 10012a60 f i aMaterial.obj
 0001:00011a90       ??$_Destroy@U_Node@?$_Tree_nod@V?$_Tmap_traits@IPAXUVcmp@@V?$allocator@U?$pair@$$CBIPAX@std@@@std@@$0A@@std@@@std@@@std@@YGXPAU_Node@?$_Tree_nod@V?$_Tmap_traits@IPAXUVcmp@@V?$allocator@U?$pair@$$CBIPAX@std@@@std@@$0A@@std@@@0@@Z 10012a90 f i aMaterial.obj
 0001:00011ac0       ??$_Destroy@PAU_Node@?$_Tree_nod@V?$_Tmap_traits@IPAXUVcmp@@V?$allocator@U?$pair@$$CBIPAX@std@@@std@@$0A@@std@@@std@@@std@@YGXPAPAU_Node@?$_Tree_nod@V?$_Tmap_traits@IPAXUVcmp@@V?$allocator@U?$pair@$$CBIPAX@std@@@std@@$0A@@std@@@0@@Z 10012ac0 f i aMaterial.obj
 0001:00011af0       ??$swap@D@std@@YGXAAD0@Z   10012af0 f i aMaterial.obj
 0001:00011b40       ??$?0U?$pair@$$CBIPAUFunction@@@std@@@?$allocator@PAU_Node@?$_Tree_nod@V?$_Tmap_traits@IPAUFunction@@UFcmp@@V?$allocator@U?$pair@$$CBIPAUFunction@@@std@@@std@@$0A@@std@@@std@@@std@@QAE@ABV?$allocator@U?$pair@$$CBIPAUFunction@@@std@@@1@@Z 10012b40 f i aMaterial.obj
 0001:00011b70       ??$?0U?$pair@$$CBIPAX@std@@@?$allocator@PAU_Node@?$_Tree_nod@V?$_Tmap_traits@IPAXUVcmp@@V?$allocator@U?$pair@$$CBIPAX@std@@@std@@$0A@@std@@@std@@@std@@QAE@ABV?$allocator@U?$pair@$$CBIPAX@std@@@1@@Z 10012b70 f i aMaterial.obj
 0001:00011ba0       ??$?0U?$pair@$$CBIPAUFunction@@@std@@@?$allocator@U_Node@?$_Tree_nod@V?$_Tmap_traits@IPAUFunction@@UFcmp@@V?$allocator@U?$pair@$$CBIPAUFunction@@@std@@@std@@$0A@@std@@@std@@@std@@QAE@ABV?$allocator@U?$pair@$$CBIPAUFunction@@@std@@@1@@Z 10012ba0 f i aMaterial.obj
 0001:00011bd0       ??$_Construct@PAU_Node@?$_Tree_nod@V?$_Tmap_traits@IPAUFunction@@UFcmp@@V?$allocator@U?$pair@$$CBIPAUFunction@@@std@@@std@@$0A@@std@@@std@@PAU123@@std@@YGXPAPAU_Node@?$_Tree_nod@V?$_Tmap_traits@IPAUFunction@@UFcmp@@V?$allocator@U?$pair@$$CBIPAUFunction@@@std@@@std@@$0A@@std@@@0@ABQAU120@@Z 10012bd0 f i aMaterial.obj
 0001:00011c50       ??$?0U?$pair@$$CBIPAX@std@@@?$allocator@U_Node@?$_Tree_nod@V?$_Tmap_traits@IPAXUVcmp@@V?$allocator@U?$pair@$$CBIPAX@std@@@std@@$0A@@std@@@std@@@std@@QAE@ABV?$allocator@U?$pair@$$CBIPAX@std@@@1@@Z 10012c50 f i aMaterial.obj
 0001:00011c80       ??$_Allocate@U_Node@?$_Tree_nod@V?$_Tmap_traits@IPAXUVcmp@@V?$allocator@U?$pair@$$CBIPAX@std@@@std@@$0A@@std@@@std@@@std@@YGPAU_Node@?$_Tree_nod@V?$_Tmap_traits@IPAXUVcmp@@V?$allocator@U?$pair@$$CBIPAX@std@@@std@@$0A@@std@@@0@IPAU120@@Z 10012c80 f i aMaterial.obj
 0001:00011cd0       ??$_Construct@PAU_Node@?$_Tree_nod@V?$_Tmap_traits@IPAXUVcmp@@V?$allocator@U?$pair@$$CBIPAX@std@@@std@@$0A@@std@@@std@@PAU123@@std@@YGXPAPAU_Node@?$_Tree_nod@V?$_Tmap_traits@IPAXUVcmp@@V?$allocator@U?$pair@$$CBIPAX@std@@@std@@$0A@@std@@@0@ABQAU120@@Z 10012cd0 f i aMaterial.obj
 0001:00011d50       ??0?$map@HPAUTextureType@aMaterial@@U?$less@H@std@@V?$allocator@U?$pair@$$CBHPAUTextureType@aMaterial@@@std@@@4@@std@@QAE@XZ 10012d50 f i aMaterial.obj
 0001:00011db0       ??0?$_Tree@V?$_Tmap_traits@HPAUTextureType@aMaterial@@U?$less@H@std@@V?$allocator@U?$pair@$$CBHPAUTextureType@aMaterial@@@std@@@4@$0A@@std@@@std@@QAE@ABU?$less@H@1@ABV?$allocator@U?$pair@$$CBHPAUTextureType@aMaterial@@@std@@@1@@Z 10012db0 f i aMaterial.obj
 0001:00011e10       ??0?$allocator@U?$pair@$$CBHPAUTextureType@aMaterial@@@std@@@std@@QAE@XZ 10012e10 f i aMaterial.obj
 0001:00011e40       ?_Init@?$_Tree@V?$_Tmap_traits@HPAUTextureType@aMaterial@@U?$less@H@std@@V?$allocator@U?$pair@$$CBHPAUTextureType@aMaterial@@@std@@@4@$0A@@std@@@std@@IAEXXZ 10012e40 f i aMaterial.obj
 0001:00011ed0       ??0?$_Tree_val@V?$_Tmap_traits@HPAUTextureType@aMaterial@@U?$less@H@std@@V?$allocator@U?$pair@$$CBHPAUTextureType@aMaterial@@@std@@@4@$0A@@std@@@std@@IAE@ABU?$less@H@1@V?$allocator@U?$pair@$$CBHPAUTextureType@aMaterial@@@std@@@1@@Z 10012ed0 f i aMaterial.obj
 0001:00011f40       ??0?$allocator@U?$pair@$$CBHPAUTextureType@aMaterial@@@std@@@std@@QAE@ABV01@@Z 10012f40 f i aMaterial.obj
 0001:00011f70       ?_Buynode@?$_Tree@V?$_Tmap_traits@HPAUTextureType@aMaterial@@U?$less@H@std@@V?$allocator@U?$pair@$$CBHPAUTextureType@aMaterial@@@std@@@4@$0A@@std@@@std@@IAEPAU_Node@?$_Tree_nod@V?$_Tmap_traits@HPAUTextureType@aMaterial@@U?$less@H@std@@V?$allocator@U?$pair@$$CBHPAUTextureType@aMaterial@@@std@@@4@$0A@@std@@@2@XZ 10012f70 f i aMaterial.obj
 0001:00012110       ?destroy@?$allocator@PAU_Node@?$_Tree_nod@V?$_Tmap_traits@HPAUTextureType@aMaterial@@U?$less@H@std@@V?$allocator@U?$pair@$$CBHPAUTextureType@aMaterial@@@std@@@4@$0A@@std@@@std@@@std@@QAEXPAPAU_Node@?$_Tree_nod@V?$_Tmap_traits@HPAUTextureType@aMaterial@@U?$less@H@std@@V?$allocator@U?$pair@$$CBHPAUTextureType@aMaterial@@@std@@@4@$0A@@std@@@2@@Z 10013110 f i aMaterial.obj
 0001:00012160       ??0?$_Tree_ptr@V?$_Tmap_traits@HPAUTextureType@aMaterial@@U?$less@H@std@@V?$allocator@U?$pair@$$CBHPAUTextureType@aMaterial@@@std@@@4@$0A@@std@@@std@@IAE@ABU?$less@H@1@V?$allocator@U?$pair@$$CBHPAUTextureType@aMaterial@@@std@@@1@@Z 10013160 f i aMaterial.obj
 0001:000121d0       ??0?$_Tree_nod@V?$_Tmap_traits@HPAUTextureType@aMaterial@@U?$less@H@std@@V?$allocator@U?$pair@$$CBHPAUTextureType@aMaterial@@@std@@@4@$0A@@std@@@std@@IAE@ABU?$less@H@1@V?$allocator@U?$pair@$$CBHPAUTextureType@aMaterial@@@std@@@1@@Z 100131d0 f i aMaterial.obj
 0001:00012230       ?construct@?$allocator@PAU_Node@?$_Tree_nod@V?$_Tmap_traits@HPAUTextureType@aMaterial@@U?$less@H@std@@V?$allocator@U?$pair@$$CBHPAUTextureType@aMaterial@@@std@@@4@$0A@@std@@@std@@@std@@QAEXPAPAU_Node@?$_Tree_nod@V?$_Tmap_traits@HPAUTextureType@aMaterial@@U?$less@H@std@@V?$allocator@U?$pair@$$CBHPAUTextureType@aMaterial@@@std@@@4@$0A@@std@@@2@ABQAU342@@Z 10013230 f i aMaterial.obj
 0001:00012280       ??0?$_Tmap_traits@HPAUTextureType@aMaterial@@U?$less@H@std@@V?$allocator@U?$pair@$$CBHPAUTextureType@aMaterial@@@std@@@4@$0A@@std@@QAE@U?$less@H@1@@Z 10013280 f i aMaterial.obj
 0001:000122b0       ??$_Destroy@PAU_Node@?$_Tree_nod@V?$_Tmap_traits@HPAUTextureType@aMaterial@@U?$less@H@std@@V?$allocator@U?$pair@$$CBHPAUTextureType@aMaterial@@@std@@@4@$0A@@std@@@std@@@std@@YGXPAPAU_Node@?$_Tree_nod@V?$_Tmap_traits@HPAUTextureType@aMaterial@@U?$less@H@std@@V?$allocator@U?$pair@$$CBHPAUTextureType@aMaterial@@@std@@@4@$0A@@std@@@0@@Z 100132b0 f i aMaterial.obj
 0001:000122e0       ??$?0U?$pair@$$CBHPAUTextureType@aMaterial@@@std@@@?$allocator@PAU_Node@?$_Tree_nod@V?$_Tmap_traits@HPAUTextureType@aMaterial@@U?$less@H@std@@V?$allocator@U?$pair@$$CBHPAUTextureType@aMaterial@@@std@@@4@$0A@@std@@@std@@@std@@QAE@ABV?$allocator@U?$pair@$$CBHPAUTextureType@aMaterial@@@std@@@1@@Z 100132e0 f i aMaterial.obj
 0001:00012310       ??$?0U?$pair@$$CBHPAUTextureType@aMaterial@@@std@@@?$allocator@U_Node@?$_Tree_nod@V?$_Tmap_traits@HPAUTextureType@aMaterial@@U?$less@H@std@@V?$allocator@U?$pair@$$CBHPAUTextureType@aMaterial@@@std@@@4@$0A@@std@@@std@@@std@@QAE@ABV?$allocator@U?$pair@$$CBHPAUTextureType@aMaterial@@@std@@@1@@Z 10013310 f i aMaterial.obj
 0001:00012340       ??$_Construct@PAU_Node@?$_Tree_nod@V?$_Tmap_traits@HPAUTextureType@aMaterial@@U?$less@H@std@@V?$allocator@U?$pair@$$CBHPAUTextureType@aMaterial@@@std@@@4@$0A@@std@@@std@@PAU123@@std@@YGXPAPAU_Node@?$_Tree_nod@V?$_Tmap_traits@HPAUTextureType@aMaterial@@U?$less@H@std@@V?$allocator@U?$pair@$$CBHPAUTextureType@aMaterial@@@std@@@4@$0A@@std@@@0@ABQAU120@@Z 10013340 f i aMaterial.obj
 0001:000123c0       ??0?$map@HPAUMaterialType@aMaterial@@U?$less@H@std@@V?$allocator@U?$pair@$$CBHPAUMaterialType@aMaterial@@@std@@@4@@std@@QAE@XZ 100133c0 f i aMaterial.obj
 0001:00012420       ??0?$_Tree@V?$_Tmap_traits@HPAUMaterialType@aMaterial@@U?$less@H@std@@V?$allocator@U?$pair@$$CBHPAUMaterialType@aMaterial@@@std@@@4@$0A@@std@@@std@@QAE@ABU?$less@H@1@ABV?$allocator@U?$pair@$$CBHPAUMaterialType@aMaterial@@@std@@@1@@Z 10013420 f i aMaterial.obj
 0001:00012480       ??0?$allocator@U?$pair@$$CBHPAUMaterialType@aMaterial@@@std@@@std@@QAE@XZ 10013480 f i aMaterial.obj
 0001:000124b0       ?_Init@?$_Tree@V?$_Tmap_traits@HPAUMaterialType@aMaterial@@U?$less@H@std@@V?$allocator@U?$pair@$$CBHPAUMaterialType@aMaterial@@@std@@@4@$0A@@std@@@std@@IAEXXZ 100134b0 f i aMaterial.obj
 0001:00012540       ??0?$_Tree_val@V?$_Tmap_traits@HPAUMaterialType@aMaterial@@U?$less@H@std@@V?$allocator@U?$pair@$$CBHPAUMaterialType@aMaterial@@@std@@@4@$0A@@std@@@std@@IAE@ABU?$less@H@1@V?$allocator@U?$pair@$$CBHPAUMaterialType@aMaterial@@@std@@@1@@Z 10013540 f i aMaterial.obj
 0001:000125b0       ??0?$allocator@U?$pair@$$CBHPAUMaterialType@aMaterial@@@std@@@std@@QAE@ABV01@@Z 100135b0 f i aMaterial.obj
 0001:000125e0       ?_Buynode@?$_Tree@V?$_Tmap_traits@HPAUMaterialType@aMaterial@@U?$less@H@std@@V?$allocator@U?$pair@$$CBHPAUMaterialType@aMaterial@@@std@@@4@$0A@@std@@@std@@IAEPAU_Node@?$_Tree_nod@V?$_Tmap_traits@HPAUMaterialType@aMaterial@@U?$less@H@std@@V?$allocator@U?$pair@$$CBHPAUMaterialType@aMaterial@@@std@@@4@$0A@@std@@@2@XZ 100135e0 f i aMaterial.obj
 0001:00012780       ?destroy@?$allocator@PAU_Node@?$_Tree_nod@V?$_Tmap_traits@HPAUMaterialType@aMaterial@@U?$less@H@std@@V?$allocator@U?$pair@$$CBHPAUMaterialType@aMaterial@@@std@@@4@$0A@@std@@@std@@@std@@QAEXPAPAU_Node@?$_Tree_nod@V?$_Tmap_traits@HPAUMaterialType@aMaterial@@U?$less@H@std@@V?$allocator@U?$pair@$$CBHPAUMaterialType@aMaterial@@@std@@@4@$0A@@std@@@2@@Z 10013780 f i aMaterial.obj
 0001:000127d0       ??0?$_Tree_ptr@V?$_Tmap_traits@HPAUMaterialType@aMaterial@@U?$less@H@std@@V?$allocator@U?$pair@$$CBHPAUMaterialType@aMaterial@@@std@@@4@$0A@@std@@@std@@IAE@ABU?$less@H@1@V?$allocator@U?$pair@$$CBHPAUMaterialType@aMaterial@@@std@@@1@@Z 100137d0 f i aMaterial.obj
 0001:00012840       ??0?$_Tree_nod@V?$_Tmap_traits@HPAUMaterialType@aMaterial@@U?$less@H@std@@V?$allocator@U?$pair@$$CBHPAUMaterialType@aMaterial@@@std@@@4@$0A@@std@@@std@@IAE@ABU?$less@H@1@V?$allocator@U?$pair@$$CBHPAUMaterialType@aMaterial@@@std@@@1@@Z 10013840 f i aMaterial.obj
 0001:000128a0       ?construct@?$allocator@PAU_Node@?$_Tree_nod@V?$_Tmap_traits@HPAUMaterialType@aMaterial@@U?$less@H@std@@V?$allocator@U?$pair@$$CBHPAUMaterialType@aMaterial@@@std@@@4@$0A@@std@@@std@@@std@@QAEXPAPAU_Node@?$_Tree_nod@V?$_Tmap_traits@HPAUMaterialType@aMaterial@@U?$less@H@std@@V?$allocator@U?$pair@$$CBHPAUMaterialType@aMaterial@@@std@@@4@$0A@@std@@@2@ABQAU342@@Z 100138a0 f i aMaterial.obj
 0001:000128f0       ??0?$_Tmap_traits@HPAUMaterialType@aMaterial@@U?$less@H@std@@V?$allocator@U?$pair@$$CBHPAUMaterialType@aMaterial@@@std@@@4@$0A@@std@@QAE@U?$less@H@1@@Z 100138f0 f i aMaterial.obj
 0001:00012920       ??$_Destroy@PAU_Node@?$_Tree_nod@V?$_Tmap_traits@HPAUMaterialType@aMaterial@@U?$less@H@std@@V?$allocator@U?$pair@$$CBHPAUMaterialType@aMaterial@@@std@@@4@$0A@@std@@@std@@@std@@YGXPAPAU_Node@?$_Tree_nod@V?$_Tmap_traits@HPAUMaterialType@aMaterial@@U?$less@H@std@@V?$allocator@U?$pair@$$CBHPAUMaterialType@aMaterial@@@std@@@4@$0A@@std@@@0@@Z 10013920 f i aMaterial.obj
 0001:00012950       ??$?0U?$pair@$$CBHPAUMaterialType@aMaterial@@@std@@@?$allocator@PAU_Node@?$_Tree_nod@V?$_Tmap_traits@HPAUMaterialType@aMaterial@@U?$less@H@std@@V?$allocator@U?$pair@$$CBHPAUMaterialType@aMaterial@@@std@@@4@$0A@@std@@@std@@@std@@QAE@ABV?$allocator@U?$pair@$$CBHPAUMaterialType@aMaterial@@@std@@@1@@Z 10013950 f i aMaterial.obj
 0001:00012980       ??$?0U?$pair@$$CBHPAUMaterialType@aMaterial@@@std@@@?$allocator@U_Node@?$_Tree_nod@V?$_Tmap_traits@HPAUMaterialType@aMaterial@@U?$less@H@std@@V?$allocator@U?$pair@$$CBHPAUMaterialType@aMaterial@@@std@@@4@$0A@@std@@@std@@@std@@QAE@ABV?$allocator@U?$pair@$$CBHPAUMaterialType@aMaterial@@@std@@@1@@Z 10013980 f i aMaterial.obj
 0001:000129b0       ??$_Construct@PAU_Node@?$_Tree_nod@V?$_Tmap_traits@HPAUMaterialType@aMaterial@@U?$less@H@std@@V?$allocator@U?$pair@$$CBHPAUMaterialType@aMaterial@@@std@@@4@$0A@@std@@@std@@PAU123@@std@@YGXPAPAU_Node@?$_Tree_nod@V?$_Tmap_traits@HPAUMaterialType@aMaterial@@U?$less@H@std@@V?$allocator@U?$pair@$$CBHPAUMaterialType@aMaterial@@@std@@@4@$0A@@std@@@0@ABQAU120@@Z 100139b0 f i aMaterial.obj
 0001:00012a30       ??1ApolloClass@@QAE@XZ     10013a30 f i aMaterial.obj
 0001:00012ad0       ??1?$map@HPAUTextureType@aMaterial@@U?$less@H@std@@V?$allocator@U?$pair@$$CBHPAUTextureType@aMaterial@@@std@@@4@@std@@QAE@XZ 10013ad0 f i aMaterial.obj
 0001:00012b10       ??1?$_Tree@V?$_Tmap_traits@HPAUTextureType@aMaterial@@U?$less@H@std@@V?$allocator@U?$pair@$$CBHPAUTextureType@aMaterial@@@std@@@4@$0A@@std@@@std@@QAE@XZ 10013b10 f i aMaterial.obj
 0001:00012b50       ?_Tidy@?$_Tree@V?$_Tmap_traits@HPAUTextureType@aMaterial@@U?$less@H@std@@V?$allocator@U?$pair@$$CBHPAUTextureType@aMaterial@@@std@@@4@$0A@@std@@@std@@IAEXXZ 10013b50 f i aMaterial.obj
 0001:00012c30       ?erase@?$_Tree@V?$_Tmap_traits@HPAUTextureType@aMaterial@@U?$less@H@std@@V?$allocator@U?$pair@$$CBHPAUTextureType@aMaterial@@@std@@@4@$0A@@std@@@std@@QAE?AViterator@12@V312@0@Z 10013c30 f i aMaterial.obj
 0001:00012d10       ?erase@?$_Tree@V?$_Tmap_traits@HPAUTextureType@aMaterial@@U?$less@H@std@@V?$allocator@U?$pair@$$CBHPAUTextureType@aMaterial@@@std@@@4@$0A@@std@@@std@@QAE?AViterator@12@V312@@Z 10013d10 f i aMaterial.obj
 0001:000133f0       ??1?$map@HPAUMaterialType@aMaterial@@U?$less@H@std@@V?$allocator@U?$pair@$$CBHPAUMaterialType@aMaterial@@@std@@@4@@std@@QAE@XZ 100143f0 f i aMaterial.obj
 0001:00013430       ??1?$_Tree@V?$_Tmap_traits@HPAUMaterialType@aMaterial@@U?$less@H@std@@V?$allocator@U?$pair@$$CBHPAUMaterialType@aMaterial@@@std@@@4@$0A@@std@@@std@@QAE@XZ 10014430 f i aMaterial.obj
 0001:00013470       ?_Tidy@?$_Tree@V?$_Tmap_traits@HPAUMaterialType@aMaterial@@U?$less@H@std@@V?$allocator@U?$pair@$$CBHPAUMaterialType@aMaterial@@@std@@@4@$0A@@std@@@std@@IAEXXZ 10014470 f i aMaterial.obj
 0001:00013550       ?erase@?$_Tree@V?$_Tmap_traits@HPAUMaterialType@aMaterial@@U?$less@H@std@@V?$allocator@U?$pair@$$CBHPAUMaterialType@aMaterial@@@std@@@4@$0A@@std@@@std@@QAE?AViterator@12@V312@0@Z 10014550 f i aMaterial.obj
 0001:00013630       ?erase@?$_Tree@V?$_Tmap_traits@HPAUMaterialType@aMaterial@@U?$less@H@std@@V?$allocator@U?$pair@$$CBHPAUMaterialType@aMaterial@@@std@@@4@$0A@@std@@@std@@QAE?AViterator@12@V312@@Z 10014630 f i aMaterial.obj
 0001:00013d10       _SetZeusFunc@4             10014d10 f   Main.obj
 0001:00013d80       ??4StringClass@CRC@@QAEXV01@@Z 10014d80 f i Main.obj
 0001:00013dff       ?D3DXGetFormatInfo@@YAPBU_D3DXFORMAT_INFO@@W4_D3DFORMAT@@@Z 10014dff f   D3dx8:d3dx8tex.obj
 0001:00013e98       ?D3DXFindClosestFormat@@YA?AW4_D3DFORMAT@@PBW41@PBUtagPALETTEENTRY@@PBU_D3DXFORMAT_INFO@@@Z 10014e98 f   D3dx8:d3dx8tex.obj
 0001:00013f06       ?D3DXFindClosestDeviceFormat@@YA?AW4_D3DFORMAT@@PAUIDirect3DDevice8@@KW4_D3DRESOURCETYPE@@PBU_D3DXFORMAT_INFO@@@Z 10014f06 f   D3dx8:d3dx8tex.obj
 0001:00013fe8       ?D3DXFindClosestExternalFormat@@YA?AW4_D3DFORMAT@@W41@@Z 10014fe8 f   D3dx8:d3dx8tex.obj
 0001:00014019       _D3DXGetImageInfoFromFileInMemory@12 10015019 f   D3dx8:d3dx8tex.obj
 0001:00014051       _sqrtf                     10015051 f i D3dx8:d3dx8tex.obj
 0001:00014058       ??0D3DXVECTOR2@@QAE@XZ     10015058 f i D3dx8:d3dx8tex.obj
 0001:0001405b       ??0D3DXVECTOR3@@QAE@XZ     1001505b f i D3dx8:d3dx8tex.obj
 0001:0001405e       ??0D3DXVECTOR4@@QAE@XZ     1001505e f i D3dx8:d3dx8tex.obj
 0001:00014061       _D3DXLoadSurfaceFromMemory@40 10015061 f   D3dx8:d3dx8tex.obj
 0001:000141f0       ??0D3DXCOLOR@@QAE@XZ       100151f0 f i D3dx8:d3dx8tex.obj
 0001:000141f3       _D3DXSaveSurfaceToFileA@20 100151f3 f   D3dx8:d3dx8tex.obj
 0001:00014213       _D3DXSaveSurfaceToFileW@20 10015213 f   D3dx8:d3dx8tex.obj
 0001:00014233       ??0D3DXVECTOR3@@QAE@MMM@Z  10015233 f i D3dx8:d3dx8tex.obj
 0001:0001424c       _D3DXLoadVolumeFromMemory@44 1001524c f   D3dx8:d3dx8tex.obj
 0001:000143cf       _D3DXSaveVolumeToFileA@20  100153cf f   D3dx8:d3dx8tex.obj
 0001:000143ef       _D3DXSaveVolumeToFileW@20  100153ef f   D3dx8:d3dx8tex.obj
 0001:00014739       _D3DXCheckTextureRequirements@28 10015739 f   D3dx8:d3dx8tex.obj
 0001:00014761       _D3DXCheckCubeTextureRequirements@24 10015761 f   D3dx8:d3dx8tex.obj
 0001:00014789       _D3DXCheckVolumeTextureRequirements@32 10015789 f   D3dx8:d3dx8tex.obj
 0001:000147b2       _D3DXCreateTexture@32      100157b2 f   D3dx8:d3dx8tex.obj
 0001:00014818       _D3DXCreateCubeTexture@28  10015818 f   D3dx8:d3dx8tex.obj
 0001:00014877       _D3DXCreateVolumeTexture@36 10015877 f   D3dx8:d3dx8tex.obj
 0001:000148e4       ?D3DXVec3Cross@@YAPAUD3DXVECTOR3@@PAU1@PBU1@1@Z 100158e4 f i D3dx8:d3dx8tex.obj
 0001:00014930       ??_ECD3DXLockSurface@@QAEPAXI@Z 10015930 f i D3dx8:d3dx8tex.obj
 0001:0001497b       ??_ECD3DXLockVolume@@QAEPAXI@Z 1001597b f i D3dx8:d3dx8tex.obj
 0001:000149c6       ??_H@YGXPAXIHP6EPAX0@Z@Z   100159c6 f i D3dx8:d3dx8tex.obj
 0001:000149e8       _D3DXFillCubeTexture@12    100159e8 f   D3dx8:d3dx8tex.obj
 0001:000150b3       _D3DXFillVolumeTexture@12  100160b3 f   D3dx8:d3dx8tex.obj
 0001:00015352       _D3DXComputeNormalMap@24   10016352 f   D3dx8:d3dx8tex.obj
 0001:00015b50       _D3DXGetImageInfoFromFileA@8 10016b50 f   D3dx8:d3dx8tex.obj
 0001:00015b8f       _D3DXGetImageInfoFromFileW@8 10016b8f f   D3dx8:d3dx8tex.obj
 0001:00015bce       _D3DXGetImageInfoFromResourceA@12 10016bce f   D3dx8:d3dx8tex.obj
 0001:00015c12       _D3DXGetImageInfoFromResourceW@12 10016c12 f   D3dx8:d3dx8tex.obj
 0001:00015c56       _D3DXLoadSurfaceFromFileInMemory@36 10016c56 f   D3dx8:d3dx8tex.obj
 0001:00015d0e       _D3DXLoadSurfaceFromSurface@32 10016d0e f   D3dx8:d3dx8tex.obj
 0001:00015eb4       _D3DXLoadVolumeFromFileInMemory@36 10016eb4 f   D3dx8:d3dx8tex.obj
 0001:00015f70       _D3DXLoadVolumeFromVolume@32 10016f70 f   D3dx8:d3dx8tex.obj
 0001:000163b6       _D3DXSaveTextureToFileA@16 100173b6 f   D3dx8:d3dx8tex.obj
 0001:000163d3       _D3DXSaveTextureToFileW@16 100173d3 f   D3dx8:d3dx8tex.obj
 0001:000163f0       _D3DXFilterTexture@16      100173f0 f   D3dx8:d3dx8tex.obj
 0001:000166d4       _D3DXFillTexture@12        100176d4 f   D3dx8:d3dx8tex.obj
 0001:000168e7       _D3DXLoadSurfaceFromFileA@32 100178e7 f   D3dx8:d3dx8tex.obj
 0001:00016938       _D3DXLoadSurfaceFromFileW@32 10017938 f   D3dx8:d3dx8tex.obj
 0001:00016989       _D3DXLoadSurfaceFromResourceA@36 10017989 f   D3dx8:d3dx8tex.obj
 0001:000169df       _D3DXLoadSurfaceFromResourceW@36 100179df f   D3dx8:d3dx8tex.obj
 0001:00016a35       _D3DXLoadVolumeFromFileA@32 10017a35 f   D3dx8:d3dx8tex.obj
 0001:00016a86       _D3DXLoadVolumeFromFileW@32 10017a86 f   D3dx8:d3dx8tex.obj
 0001:00016ad7       _D3DXLoadVolumeFromResourceA@36 10017ad7 f   D3dx8:d3dx8tex.obj
 0001:00016b2d       _D3DXLoadVolumeFromResourceW@36 10017b2d f   D3dx8:d3dx8tex.obj
 0001:000171f6       _D3DXCreateTextureFromFileInMemoryEx@60 100181f6 f   D3dx8:d3dx8tex.obj
 0001:00017236       _D3DXCreateCubeTextureFromFileInMemoryEx@56 10018236 f   D3dx8:d3dx8tex.obj
 0001:00017276       _D3DXCreateVolumeTextureFromFileInMemoryEx@64 10018276 f   D3dx8:d3dx8tex.obj
 0001:000172b7       _D3DXCreateTextureFromFileExA@56 100182b7 f   D3dx8:d3dx8tex.obj
 0001:0001731a       _D3DXCreateTextureFromFileExW@56 1001831a f   D3dx8:d3dx8tex.obj
 0001:0001737d       _D3DXCreateTextureFromResourceExA@60 1001837d f   D3dx8:d3dx8tex.obj
 0001:000173e5       _D3DXCreateTextureFromResourceExW@60 100183e5 f   D3dx8:d3dx8tex.obj
 0001:0001744d       _D3DXCreateTextureFromFileInMemory@16 1001844d f   D3dx8:d3dx8tex.obj
 0001:0001747d       _D3DXCreateCubeTextureFromFileExA@52 1001847d f   D3dx8:d3dx8tex.obj
 0001:000174dd       _D3DXCreateCubeTextureFromFileExW@52 100184dd f   D3dx8:d3dx8tex.obj
 0001:0001753d       _D3DXCreateCubeTextureFromResourceExA@56 1001853d f   D3dx8:d3dx8tex.obj
 0001:000175a2       _D3DXCreateCubeTextureFromResourceExW@56 100185a2 f   D3dx8:d3dx8tex.obj
 0001:00017607       _D3DXCreateCubeTextureFromFileInMemory@16 10018607 f   D3dx8:d3dx8tex.obj
 0001:00017637       _D3DXCreateVolumeTextureFromFileExA@60 10018637 f   D3dx8:d3dx8tex.obj
 0001:0001769d       _D3DXCreateVolumeTextureFromFileExW@60 1001869d f   D3dx8:d3dx8tex.obj
 0001:00017703       _D3DXCreateVolumeTextureFromResourceExA@64 10018703 f   D3dx8:d3dx8tex.obj
 0001:0001776e       _D3DXCreateVolumeTextureFromResourceExW@64 1001876e f   D3dx8:d3dx8tex.obj
 0001:000177d9       _D3DXCreateVolumeTextureFromFileInMemory@16 100187d9 f   D3dx8:d3dx8tex.obj
 0001:00017808       _D3DXCreateTextureFromFileA@12 10018808 f   D3dx8:d3dx8tex.obj
 0001:0001782d       _D3DXCreateTextureFromFileW@12 1001882d f   D3dx8:d3dx8tex.obj
 0001:00017852       _D3DXCreateTextureFromResourceA@16 10018852 f   D3dx8:d3dx8tex.obj
 0001:0001787b       _D3DXCreateTextureFromResourceW@16 1001887b f   D3dx8:d3dx8tex.obj
 0001:000178a4       _D3DXCreateCubeTextureFromFileA@12 100188a4 f   D3dx8:d3dx8tex.obj
 0001:000178c8       _D3DXCreateCubeTextureFromFileW@12 100188c8 f   D3dx8:d3dx8tex.obj
 0001:000178ec       _D3DXCreateCubeTextureFromResourceA@16 100188ec f   D3dx8:d3dx8tex.obj
 0001:00017914       _D3DXCreateCubeTextureFromResourceW@16 10018914 f   D3dx8:d3dx8tex.obj
 0001:0001793c       _D3DXCreateVolumeTextureFromFileA@12 1001893c f   D3dx8:d3dx8tex.obj
 0001:00017962       _D3DXCreateVolumeTextureFromFileW@12 10018962 f   D3dx8:d3dx8tex.obj
 0001:00017988       _D3DXCreateVolumeTextureFromResourceA@16 10018988 f   D3dx8:d3dx8tex.obj
 0001:000179b2       _D3DXCreateVolumeTextureFromResourceW@16 100189b2 f   D3dx8:d3dx8tex.obj
 0001:000179dc       ?D3DXDebugMute@@YAXH@Z     100189dc f   D3dx8:d3dx8dbg.obj
 0001:00017a6c       ??0CD3DXImage@@QAE@XZ      10018a6c f   D3dx8:cd3dximage.obj
 0001:00017a85       ??1CD3DXImage@@QAE@XZ      10018a85 f   D3dx8:cd3dximage.obj
 0001:00017ade       ??_GCD3DXImage@@QAEPAXI@Z  10018ade f i D3dx8:cd3dximage.obj
 0001:00017afa       ?Initialize@CD3DXImage@@QAEJPAUD3DX_BLT@@@Z 10018afa f   D3dx8:cd3dximage.obj
 0001:00017bbd       ?LoadDIB@CD3DXImage@@AAEJPBXK@Z 10018bbd f   D3dx8:cd3dximage.obj
 0001:000182d3       ?SaveDIB@CD3DXImage@@AAEJPAXH@Z 100192d3 f   D3dx8:cd3dximage.obj
 0001:00018619       ?LoadJPG@CD3DXImage@@AAEJPBXK@Z 10019619 f   D3dx8:cd3dximage.obj
 0001:00018889       ?LoadTGA@CD3DXImage@@AAEJPBXK@Z 10019889 f   D3dx8:cd3dximage.obj
 0001:00018d30       ?LoadPPM@CD3DXImage@@AAEJPBXK@Z 10019d30 f   D3dx8:cd3dximage.obj
 0001:00019006       ?LoadPNG@CD3DXImage@@AAEJPBXK@Z 1001a006 f   D3dx8:cd3dximage.obj
 0001:0001959c       ?LoadDDS@CD3DXImage@@AAEJPBXK@Z 1001a59c f   D3dx8:cd3dximage.obj
 0001:000198dd       ?SaveDDS@CD3DXImage@@AAEJPAX@Z 1001a8dd f   D3dx8:cd3dximage.obj
 0001:00019b85       ?Save@CD3DXImage@@QAEJPBXW4_D3DXIMAGE_FILEFORMAT@@H@Z 1001ab85 f   D3dx8:cd3dximage.obj
 0001:00019e4e       ?LoadBMP@CD3DXImage@@AAEJPBXK@Z 1001ae4e f   D3dx8:cd3dximage.obj
 0001:00019e7e       ?Load@CD3DXImage@@QAEJPBXKPAU_D3DXIMAGE_INFO@@H@Z 1001ae7e f   D3dx8:cd3dximage.obj
 0001:0001a053       ??0CD3DXBlt@@QAE@XZ        1001b053 f   D3dx8:cd3dxblt.obj
 0001:0001a05d       ??1CD3DXBlt@@QAE@XZ        1001b05d f   D3dx8:cd3dxblt.obj
 0001:0001a07b       _floorf                    1001b07b f i D3dx8:cd3dxblt.obj
 0001:0001a08c       ??0TF_Row@@QAE@XZ          1001b08c f i D3dx8:cd3dxblt.obj
 0001:0001a099       ??1TF_Row@@QAE@XZ          1001b099 f i D3dx8:cd3dxblt.obj
 0001:0001a35f       ??_ETF_Row@@QAEPAXI@Z      1001b35f f i D3dx8:cd3dxblt.obj
 0001:0001a3ab       ?BltTriangle3D@CD3DXBlt@@IAEJXZ 1001b3ab f   D3dx8:cd3dxblt.obj
 0001:0001a81f       ?BltSame_DXTn@CD3DXBlt@@IAEJXZ 1001b81f f   D3dx8:cd3dxblt.obj
 0001:0001a9ad       ?BltBox2D_R8G8B8@CD3DXBlt@@IAEJXZ 1001b9ad f   D3dx8:cd3dxblt.obj
 0001:0001a9b3       ?c_BoxFilter2D_A8R8G8B8@@YAJPAI0IIII@Z 1001b9b3 f   D3dx8:cd3dxblt.obj
 0001:0001aad9       ??0D3DXCOLOR@@QAE@MMMM@Z   1001bad9 f i D3dx8:cd3dxblt.obj
 0001:0001aaf9       ?BltBox2D_A8R8G8B8@CD3DXBlt@@IAEJXZ 1001baf9 f   D3dx8:cd3dxblt.obj
 0001:0001ab2a       ?c_BoxFilter2D_X8R8G8B8@@YAJPAI0IIII@Z 1001bb2a f   D3dx8:cd3dxblt.obj
 0001:0001ac12       ?mmx_BoxFilter2D_A8R8G8B8@@YAJPAI0IIII@Z 1001bc12 f   D3dx8:cd3dxblt.obj
 0001:0001ad28       ??HD3DXCOLOR@@QBE?AU0@ABU0@@Z 1001bd28 f i D3dx8:cd3dxblt.obj
 0001:0001ad54       ?init_BoxFilter2D_A8R8G8B8@@YAJPAI0IIII@Z 1001bd54 f   D3dx8:cd3dxblt.obj
 0001:0001ad8c       ??DD3DXCOLOR@@QBE?AU0@M@Z  1001bd8c f i D3dx8:cd3dxblt.obj
 0001:0001adb8       ?init_BoxFilter2D_X8R8G8B8@@YAJPAI0IIII@Z 1001bdb8 f   D3dx8:cd3dxblt.obj
 0001:0001ade7       ?BltBox2D_X8R8G8B8@CD3DXBlt@@IAEJXZ 1001bde7 f   D3dx8:cd3dxblt.obj
 0001:0001ae18       ?BltBox2D_R5G6B5@CD3DXBlt@@IAEJXZ 1001be18 f   D3dx8:cd3dxblt.obj
 0001:0001af68       ?BltBox2D_X1R5G5B5@CD3DXBlt@@IAEJXZ 1001bf68 f   D3dx8:cd3dxblt.obj
 0001:0001b08c       ?BltBox2D_A1R5G5B5@CD3DXBlt@@IAEJXZ 1001c08c f   D3dx8:cd3dxblt.obj
 0001:0001b1db       ?BltBox2D_A4R4G4B4@CD3DXBlt@@IAEJXZ 1001c1db f   D3dx8:cd3dxblt.obj
 0001:0001b32e       ?BltBox2D_R3G3B2@CD3DXBlt@@IAEJXZ 1001c32e f   D3dx8:cd3dxblt.obj
 0001:0001b46d       ?BltBox2D_A8@CD3DXBlt@@IAEJXZ 1001c46d f   D3dx8:cd3dxblt.obj
 0001:0001b508       ?BltBox2D_A8R3G3B2@CD3DXBlt@@IAEJXZ 1001c508 f   D3dx8:cd3dxblt.obj
 0001:0001b654       ?BltBox2D_X4R4G4B4@CD3DXBlt@@IAEJXZ 1001c654 f   D3dx8:cd3dxblt.obj
 0001:0001b775       ?BltBox2D_A8P8@CD3DXBlt@@IAEJXZ 1001c775 f   D3dx8:cd3dxblt.obj
 0001:0001b77b       ?BltBox2D_P8@CD3DXBlt@@IAEJXZ 1001c77b f   D3dx8:cd3dxblt.obj
 0001:0001b781       ?BltBox2D_A8L8@CD3DXBlt@@IAEJXZ 1001c781 f   D3dx8:cd3dxblt.obj
 0001:0001b8cd       ?BltBox2D_A4L4@CD3DXBlt@@IAEJXZ 1001c8cd f   D3dx8:cd3dxblt.obj
 0001:0001ba4e       ?BltSame@CD3DXBlt@@IAEJXZ  1001ca4e f   D3dx8:cd3dxblt.obj
 0001:0001bb86       ?BltCopy@CD3DXBlt@@IAEJXZ  1001cb86 f   D3dx8:cd3dxblt.obj
 0001:0001bc77       ?BltNone@CD3DXBlt@@IAEJXZ  1001cc77 f   D3dx8:cd3dxblt.obj
 0001:0001be79       ?BltPoint@CD3DXBlt@@IAEJXZ 1001ce79 f   D3dx8:cd3dxblt.obj
 0001:0001c07d       ?BltBox2D@CD3DXBlt@@IAEJXZ 1001d07d f   D3dx8:cd3dxblt.obj
 0001:0001c4a0       ?BltBox3D@CD3DXBlt@@IAEJXZ 1001d4a0 f   D3dx8:cd3dxblt.obj
 0001:0001ca32       ?BltLinear2D@CD3DXBlt@@IAEJXZ 1001da32 f   D3dx8:cd3dxblt.obj
 0001:0001ce18       ?BltLinear3D@CD3DXBlt@@IAEJXZ 1001de18 f   D3dx8:cd3dxblt.obj
 0001:0001d549       ?BltTriangle2D@CD3DXBlt@@IAEJXZ 1001e549 f   D3dx8:cd3dxblt.obj
 0001:0001d8eb       ?Blt@CD3DXBlt@@QAEJPAUD3DX_BLT@@0K@Z 1001e8eb f   D3dx8:cd3dxblt.obj
 0001:0001da05       ??0CD3DXLockSurface@@QAE@XZ 1001ea05 f   D3dx8:cd3dxlock.obj
 0001:0001da15       ?Unlock@CD3DXLockSurface@@QAEJXZ 1001ea15 f   D3dx8:cd3dxlock.obj
 0001:0001da7e       ??0CD3DXLockVolume@@QAE@XZ 1001ea7e f   D3dx8:cd3dxlock.obj
 0001:0001da84       ?Unlock@CD3DXLockVolume@@QAEJXZ 1001ea84 f   D3dx8:cd3dxlock.obj
 0001:0001da9a       ??1CD3DXLockSurface@@QAE@XZ 1001ea9a f   D3dx8:cd3dxlock.obj
 0001:0001da9f       ?Lock@CD3DXLockSurface@@QAEJPAUD3DX_BLT@@PAUIDirect3DSurface8@@PBUtagPALETTEENTRY@@PBUtagRECT@@KK@Z 1001ea9f f   D3dx8:cd3dxlock.obj
 0001:0001deb2       ??1CD3DXLockVolume@@QAE@XZ 1001eeb2 f   D3dx8:cd3dxlock.obj
 0001:0001deb7       ?Lock@CD3DXLockVolume@@QAEJPAUD3DX_BLT@@PAUIDirect3DVolume8@@PBUtagPALETTEENTRY@@PBU_D3DBOX@@KK@Z 1001eeb7 f   D3dx8:cd3dxlock.obj
 0001:0001e212       ??1CD3DXCodec@@UAE@XZ      1001f212 f   D3dx8:cd3dxcodec.obj
 0001:0001e225       ?Decode@CD3DXCodec@@UAEXIIPAUD3DXCOLOR@@@Z 1001f225 f   D3dx8:cd3dxcodec.obj
 0001:0001e228       ?Encode@CD3DXCodec@@UAEXIIPAUD3DXCOLOR@@@Z 1001f228 f   D3dx8:cd3dxcodec.obj
 0001:0001e22b       ?Convert@CD3DXCodec@@IAEPAUD3DXCOLOR@@PAU2@@Z 1001f22b f   D3dx8:cd3dxcodec.obj
 0001:0001e522       ??0D3DXCOLOR@@QAE@K@Z      1001f522 f i D3dx8:cd3dxcodec.obj
 0001:0001e577       ??GD3DXCOLOR@@QBE?AU0@ABU0@@Z 1001f577 f i D3dx8:cd3dxcodec.obj
 0001:0001e5a3       ??8D3DXCOLOR@@QBEHABU0@@Z  1001f5a3 f i D3dx8:cd3dxcodec.obj
 0001:0001e5e3       ?QuantizeColorKey@CD3DXCodecYUV@@MAEXXZ 1001f5e3 f   D3dx8:cd3dxcodec.obj
 0001:0001e5e4       ??1CD3DXCodecDXT@@UAE@XZ   1001f5e4 f   D3dx8:cd3dxcodec.obj
 0001:0001e684       ?Encode@CD3DXCodecDXT@@UAEXIIPAUD3DXCOLOR@@@Z 1001f684 f   D3dx8:cd3dxcodec.obj
 0001:0001eac0       ??0CD3DXCodec@@IAE@PAUD3DX_BLT@@IK@Z 1001fac0 f   D3dx8:cd3dxcodec.obj
 0001:0001ed0c       ??_ECD3DXCodec@@UAEPAXI@Z  1001fd0c f i D3dx8:cd3dxcodec.obj
 0001:0001ed0c       ??_GCD3DXCodec@@UAEPAXI@Z  1001fd0c f i D3dx8:cd3dxcodec.obj
 0001:0001ed28       ?ConvertFrom@CD3DXCodec@@QAEJPAV1@@Z 1001fd28 f   D3dx8:cd3dxcodec.obj
 0001:0001eda3       ?QuantizeColorKey@CD3DXCodec@@MAEXXZ 1001fda3 f   D3dx8:cd3dxcodec.obj
 0001:0001ee6f       ?ColorKey@CD3DXCodec@@IAEXPAUD3DXCOLOR@@@Z 1001fe6f f   D3dx8:cd3dxcodec.obj
 0001:0001eedf       ?Encode@CD3DXCodec_R8G8B8@@UAEXIIPAUD3DXCOLOR@@@Z 1001fedf f   D3dx8:cd3dxcodec.obj
 0001:0001efcb       ?Encode@CD3DXCodec_A8R8G8B8@@UAEXIIPAUD3DXCOLOR@@@Z 1001ffcb f   D3dx8:cd3dxcodec.obj
 0001:0001f0ee       ?Encode@CD3DXCodec_X8R8G8B8@@UAEXIIPAUD3DXCOLOR@@@Z 100200ee f   D3dx8:cd3dxcodec.obj
 0001:0001f1ef       ?Encode@CD3DXCodec_R5G6B5@@UAEXIIPAUD3DXCOLOR@@@Z 100201ef f   D3dx8:cd3dxcodec.obj
 0001:0001f2f0       ?Encode@CD3DXCodec_X1R5G5B5@@UAEXIIPAUD3DXCOLOR@@@Z 100202f0 f   D3dx8:cd3dxcodec.obj
 0001:0001f3f1       ?Encode@CD3DXCodec_A1R5G5B5@@UAEXIIPAUD3DXCOLOR@@@Z 100203f1 f   D3dx8:cd3dxcodec.obj
 0001:0001f50e       ?Encode@CD3DXCodec_A4R4G4B4@@UAEXIIPAUD3DXCOLOR@@@Z 1002050e f   D3dx8:cd3dxcodec.obj
 0001:0001f631       ?Encode@CD3DXCodec_R3G3B2@@UAEXIIPAUD3DXCOLOR@@@Z 10020631 f   D3dx8:cd3dxcodec.obj
 0001:0001f72f       ?Encode@CD3DXCodec_A8@@UAEXIIPAUD3DXCOLOR@@@Z 1002072f f   D3dx8:cd3dxcodec.obj
 0001:0001f7d8       ?Encode@CD3DXCodec_A8R3G3B2@@UAEXIIPAUD3DXCOLOR@@@Z 100207d8 f   D3dx8:cd3dxcodec.obj
 0001:0001f8fb       ?Encode@CD3DXCodec_X4R4G4B4@@UAEXIIPAUD3DXCOLOR@@@Z 100208fb f   D3dx8:cd3dxcodec.obj
 0001:0001f9fc       ?Encode@CD3DXCodec_A2B10G10R10@@UAEXIIPAUD3DXCOLOR@@@Z 100209fc f   D3dx8:cd3dxcodec.obj
 0001:0001fb1f       ?Encode@CD3DXCodec_G16R16@@UAEXIIPAUD3DXCOLOR@@@Z 10020b1f f   D3dx8:cd3dxcodec.obj
 0001:0001fbef       ?Encode@CD3DXCodec_A8P8@@UAEXIIPAUD3DXCOLOR@@@Z 10020bef f   D3dx8:cd3dxcodec.obj
 0001:0001fd07       ?Encode@CD3DXCodec_P8@@UAEXIIPAUD3DXCOLOR@@@Z 10020d07 f   D3dx8:cd3dxcodec.obj
 0001:0001fdcc       ?Encode@CD3DXCodec_L8@@UAEXIIPAUD3DXCOLOR@@@Z 10020dcc f   D3dx8:cd3dxcodec.obj
 0001:0001fe91       ?Encode@CD3DXCodec_A8L8@@UAEXIIPAUD3DXCOLOR@@@Z 10020e91 f   D3dx8:cd3dxcodec.obj
 0001:0001ff87       ?Encode@CD3DXCodec_A4L4@@UAEXIIPAUD3DXCOLOR@@@Z 10020f87 f   D3dx8:cd3dxcodec.obj
 0001:00020072       ?Encode@CD3DXCodec_V8U8@@UAEXIIPAUD3DXCOLOR@@@Z 10021072 f   D3dx8:cd3dxcodec.obj
 0001:00020147       ?Encode@CD3DXCodec_L6V5U5@@UAEXIIPAUD3DXCOLOR@@@Z 10021147 f   D3dx8:cd3dxcodec.obj
 0001:0002024c       ?Encode@CD3DXCodec_X8L8V8U8@@UAEXIIPAUD3DXCOLOR@@@Z 1002124c f   D3dx8:cd3dxcodec.obj
 0001:00020357       ?Encode@CD3DXCodec_Q8W8V8U8@@UAEXIIPAUD3DXCOLOR@@@Z 10021357 f   D3dx8:cd3dxcodec.obj
 0001:00020491       ?Encode@CD3DXCodec_V16U16@@UAEXIIPAUD3DXCOLOR@@@Z 10021491 f   D3dx8:cd3dxcodec.obj
 0001:00020567       ?Encode@CD3DXCodec_W11V11U10@@UAEXIIPAUD3DXCOLOR@@@Z 10021567 f   D3dx8:cd3dxcodec.obj
 0001:00020671       ?Encode@CD3DXCodec_A2W10V10U10@@UAEXIIPAUD3DXCOLOR@@@Z 10021671 f   D3dx8:cd3dxcodec.obj
 0001:000207a7       ?Encode@CD3DXCodec_D16_LOCKABLE@@UAEXIIPAUD3DXCOLOR@@@Z 100217a7 f   D3dx8:cd3dxcodec.obj
 0001:0002086e       ?Encode@CD3DXCodec_D3DX_L16@@UAEXIIPAUD3DXCOLOR@@@Z 1002186e f   D3dx8:cd3dxcodec.obj
 0001:00020935       ?Encode@CD3DXCodec_D3DX_A16L16@@UAEXIIPAUD3DXCOLOR@@@Z 10021935 f   D3dx8:cd3dxcodec.obj
 0001:00020a23       ?Encode@CD3DXCodec_D3DX_R16G16B16@@UAEXIIPAUD3DXCOLOR@@@Z 10021a23 f   D3dx8:cd3dxcodec.obj
 0001:00020b12       ?Encode@CD3DXCodec_D3DX_A16R16G16B16@@UAEXIIPAUD3DXCOLOR@@@Z 10021b12 f   D3dx8:cd3dxcodec.obj
 0001:00020c6e       ?Decode@CD3DXCodec_R8G8B8@@UAEXIIPAUD3DXCOLOR@@@Z 10021c6e f   D3dx8:cd3dxcodec.obj
 0001:00020cfa       ?Decode@CD3DXCodec_A8R8G8B8@@UAEXIIPAUD3DXCOLOR@@@Z 10021cfa f   D3dx8:cd3dxcodec.obj
 0001:00020da0       ?Decode@CD3DXCodec_X8R8G8B8@@UAEXIIPAUD3DXCOLOR@@@Z 10021da0 f   D3dx8:cd3dxcodec.obj
 0001:00020e3c       ?Decode@CD3DXCodec_R5G6B5@@UAEXIIPAUD3DXCOLOR@@@Z 10021e3c f   D3dx8:cd3dxcodec.obj
 0001:00020ee1       ?Decode@CD3DXCodec_X1R5G5B5@@UAEXIIPAUD3DXCOLOR@@@Z 10021ee1 f   D3dx8:cd3dxcodec.obj
 0001:00020f83       ?Decode@CD3DXCodec_A1R5G5B5@@UAEXIIPAUD3DXCOLOR@@@Z 10021f83 f   D3dx8:cd3dxcodec.obj
 0001:00021033       ?Decode@CD3DXCodec_A4R4G4B4@@UAEXIIPAUD3DXCOLOR@@@Z 10022033 f   D3dx8:cd3dxcodec.obj
 0001:000210e2       ?Decode@CD3DXCodec_A2B10G10R10@@UAEXIIPAUD3DXCOLOR@@@Z 100220e2 f   D3dx8:cd3dxcodec.obj
 0001:000211b8       ?Decode@CD3DXCodec_G16R16@@UAEXIIPAUD3DXCOLOR@@@Z 100221b8 f   D3dx8:cd3dxcodec.obj
 0001:0002124a       ?Decode@CD3DXCodec_R3G3B2@@UAEXIIPAUD3DXCOLOR@@@Z 1002224a f   D3dx8:cd3dxcodec.obj
 0001:000212ec       ?Decode@CD3DXCodec_A8@@UAEXIIPAUD3DXCOLOR@@@Z 100222ec f   D3dx8:cd3dxcodec.obj
 0001:0002135e       ?Decode@CD3DXCodec_A8R3G3B2@@UAEXIIPAUD3DXCOLOR@@@Z 1002235e f   D3dx8:cd3dxcodec.obj
 0001:00021410       ?Decode@CD3DXCodec_X4R4G4B4@@UAEXIIPAUD3DXCOLOR@@@Z 10022410 f   D3dx8:cd3dxcodec.obj
 0001:000214af       ?Decode@CD3DXCodec_A8P8@@UAEXIIPAUD3DXCOLOR@@@Z 100224af f   D3dx8:cd3dxcodec.obj
 0001:00021536       ?Decode@CD3DXCodec_P8@@UAEXIIPAUD3DXCOLOR@@@Z 10022536 f   D3dx8:cd3dxcodec.obj
 0001:0002159a       ?Decode@CD3DXCodec_L8@@UAEXIIPAUD3DXCOLOR@@@Z 1002259a f   D3dx8:cd3dxcodec.obj
 0001:00021608       ?Decode@CD3DXCodec_A8L8@@UAEXIIPAUD3DXCOLOR@@@Z 10022608 f   D3dx8:cd3dxcodec.obj
 0001:00021691       ?Decode@CD3DXCodec_A4L4@@UAEXIIPAUD3DXCOLOR@@@Z 10022691 f   D3dx8:cd3dxcodec.obj
 0001:0002171a       ?Decode@CD3DXCodec_V8U8@@UAEXIIPAUD3DXCOLOR@@@Z 1002271a f   D3dx8:cd3dxcodec.obj
 0001:0002179c       ?Decode@CD3DXCodec_L6V5U5@@UAEXIIPAUD3DXCOLOR@@@Z 1002279c f   D3dx8:cd3dxcodec.obj
 0001:0002184d       ?Decode@CD3DXCodec_X8L8V8U8@@UAEXIIPAUD3DXCOLOR@@@Z 1002284d f   D3dx8:cd3dxcodec.obj
 0001:000218de       ?Decode@CD3DXCodec_Q8W8V8U8@@UAEXIIPAUD3DXCOLOR@@@Z 100228de f   D3dx8:cd3dxcodec.obj
 0001:00021975       ?Decode@CD3DXCodec_V16U16@@UAEXIIPAUD3DXCOLOR@@@Z 10022975 f   D3dx8:cd3dxcodec.obj
 0001:000219f8       ?Decode@CD3DXCodec_W11V11U10@@UAEXIIPAUD3DXCOLOR@@@Z 100229f8 f   D3dx8:cd3dxcodec.obj
 0001:00021ab2       ?Decode@CD3DXCodec_A2W10V10U10@@UAEXIIPAUD3DXCOLOR@@@Z 10022ab2 f   D3dx8:cd3dxcodec.obj
 0001:00021b85       ?Decode@CD3DXCodec_D16_LOCKABLE@@UAEXIIPAUD3DXCOLOR@@@Z 10022b85 f   D3dx8:cd3dxcodec.obj
 0001:00021bf5       ?Decode@CD3DXCodec_D3DX_L16@@UAEXIIPAUD3DXCOLOR@@@Z 10022bf5 f   D3dx8:cd3dxcodec.obj
 0001:00021c65       ?Decode@CD3DXCodec_D3DX_A16L16@@UAEXIIPAUD3DXCOLOR@@@Z 10022c65 f   D3dx8:cd3dxcodec.obj
 0001:00021cf3       ?Decode@CD3DXCodec_D3DX_R16G16B16@@UAEXIIPAUD3DXCOLOR@@@Z 10022cf3 f   D3dx8:cd3dxcodec.obj
 0001:00021d7f       ?Decode@CD3DXCodec_D3DX_A16R16G16B16@@UAEXIIPAUD3DXCOLOR@@@Z 10022d7f f   D3dx8:cd3dxcodec.obj
 0001:00021e5f       ??0CD3DXCodec_R8G8B8@@QAE@PAUD3DX_BLT@@@Z 10022e5f f i D3dx8:cd3dxcodec.obj
 0001:00021e7b       ??0CD3DXCodecYUV@@QAE@PAUD3DX_BLT@@@Z 10022e7b f   D3dx8:cd3dxcodec.obj
 0001:00021f73       ??_GCD3DXCodec_R8G8B8@@UAEPAXI@Z 10022f73 f i D3dx8:cd3dxcodec.obj
 0001:00021f73       ??_ECD3DXCodec_R8G8B8@@UAEPAXI@Z 10022f73 f i D3dx8:cd3dxcodec.obj
 0001:00021f8f       ??1CD3DXCodec_R8G8B8@@UAE@XZ 10022f8f f i D3dx8:cd3dxcodec.obj
 0001:00021f94       ??0CD3DXCodec_A8R8G8B8@@QAE@PAUD3DX_BLT@@@Z 10022f94 f i D3dx8:cd3dxcodec.obj
 0001:00021fb0       ??_ECD3DXCodec_A8R8G8B8@@UAEPAXI@Z 10022fb0 f i D3dx8:cd3dxcodec.obj
 0001:00021fb0       ??_GCD3DXCodec_A8R8G8B8@@UAEPAXI@Z 10022fb0 f i D3dx8:cd3dxcodec.obj
 0001:00021fcc       ??1CD3DXCodec_A8R8G8B8@@UAE@XZ 10022fcc f i D3dx8:cd3dxcodec.obj
 0001:00021fd1       ??0CD3DXCodec_X8R8G8B8@@QAE@PAUD3DX_BLT@@@Z 10022fd1 f i D3dx8:cd3dxcodec.obj
 0001:00021fed       ??_GCD3DXCodec_X8R8G8B8@@UAEPAXI@Z 10022fed f i D3dx8:cd3dxcodec.obj
 0001:00021fed       ??_ECD3DXCodec_X8R8G8B8@@UAEPAXI@Z 10022fed f i D3dx8:cd3dxcodec.obj
 0001:00022009       ??1CD3DXCodec_X8R8G8B8@@UAE@XZ 10023009 f i D3dx8:cd3dxcodec.obj
 0001:0002200e       ??0CD3DXCodec_R5G6B5@@QAE@PAUD3DX_BLT@@@Z 1002300e f i D3dx8:cd3dxcodec.obj
 0001:0002202a       ?Commit@CD3DXCodecYUV@@QAEJXZ 1002302a f   D3dx8:cd3dxcodec.obj
 0001:00022216       ??_GCD3DXCodec_R5G6B5@@UAEPAXI@Z 10023216 f i D3dx8:cd3dxcodec.obj
 0001:00022216       ??_ECD3DXCodec_R5G6B5@@UAEPAXI@Z 10023216 f i D3dx8:cd3dxcodec.obj
 0001:00022232       ??1CD3DXCodec_R5G6B5@@UAE@XZ 10023232 f i D3dx8:cd3dxcodec.obj
 0001:00022237       ??0CD3DXCodec_X1R5G5B5@@QAE@PAUD3DX_BLT@@@Z 10023237 f i D3dx8:cd3dxcodec.obj
 0001:00022253       ??_GCD3DXCodec_X1R5G5B5@@UAEPAXI@Z 10023253 f i D3dx8:cd3dxcodec.obj
 0001:00022253       ??_ECD3DXCodec_X1R5G5B5@@UAEPAXI@Z 10023253 f i D3dx8:cd3dxcodec.obj
 0001:0002226f       ??1CD3DXCodec_X1R5G5B5@@UAE@XZ 1002326f f i D3dx8:cd3dxcodec.obj
 0001:00022274       ??0CD3DXCodec_A1R5G5B5@@QAE@PAUD3DX_BLT@@@Z 10023274 f i D3dx8:cd3dxcodec.obj
 0001:00022290       ??_ECD3DXCodec_A1R5G5B5@@UAEPAXI@Z 10023290 f i D3dx8:cd3dxcodec.obj
 0001:00022290       ??_GCD3DXCodec_A1R5G5B5@@UAEPAXI@Z 10023290 f i D3dx8:cd3dxcodec.obj
 0001:000222ac       ??1CD3DXCodec_A1R5G5B5@@UAE@XZ 100232ac f i D3dx8:cd3dxcodec.obj
 0001:000222b1       ?Fetch@CD3DXCodecYUV@@QAEJIIH@Z 100232b1 f   D3dx8:cd3dxcodec.obj
 0001:00022582       ??0CD3DXCodec_A4R4G4B4@@QAE@PAUD3DX_BLT@@@Z 10023582 f i D3dx8:cd3dxcodec.obj
 0001:0002259e       ??_GCD3DXCodec_A4R4G4B4@@UAEPAXI@Z 1002359e f i D3dx8:cd3dxcodec.obj
 0001:0002259e       ??_ECD3DXCodec_A4R4G4B4@@UAEPAXI@Z 1002359e f i D3dx8:cd3dxcodec.obj
 0001:000225ba       ??1CD3DXCodec_A4R4G4B4@@UAE@XZ 100235ba f i D3dx8:cd3dxcodec.obj
 0001:000225bf       ??0CD3DXCodec_R3G3B2@@QAE@PAUD3DX_BLT@@@Z 100235bf f i D3dx8:cd3dxcodec.obj
 0001:000225db       ??_GCD3DXCodec_R3G3B2@@UAEPAXI@Z 100235db f i D3dx8:cd3dxcodec.obj
 0001:000225db       ??_ECD3DXCodec_R3G3B2@@UAEPAXI@Z 100235db f i D3dx8:cd3dxcodec.obj
 0001:000225f7       ??1CD3DXCodec_R3G3B2@@UAE@XZ 100235f7 f i D3dx8:cd3dxcodec.obj
 0001:000225fc       ??0CD3DXCodec_A8@@QAE@PAUD3DX_BLT@@@Z 100235fc f i D3dx8:cd3dxcodec.obj
 0001:00022618       ??_ECD3DXCodec_A8@@UAEPAXI@Z 10023618 f i D3dx8:cd3dxcodec.obj
 0001:00022618       ??_GCD3DXCodec_A8@@UAEPAXI@Z 10023618 f i D3dx8:cd3dxcodec.obj
 0001:00022634       ??1CD3DXCodec_A8@@UAE@XZ   10023634 f i D3dx8:cd3dxcodec.obj
 0001:00022639       ??0CD3DXCodec_A8R3G3B2@@QAE@PAUD3DX_BLT@@@Z 10023639 f i D3dx8:cd3dxcodec.obj
 0001:00022655       ??_ECD3DXCodec_A8R3G3B2@@UAEPAXI@Z 10023655 f i D3dx8:cd3dxcodec.obj
 0001:00022655       ??_GCD3DXCodec_A8R3G3B2@@UAEPAXI@Z 10023655 f i D3dx8:cd3dxcodec.obj
 0001:00022671       ??1CD3DXCodec_A8R3G3B2@@UAE@XZ 10023671 f i D3dx8:cd3dxcodec.obj
 0001:00022676       ??0CD3DXCodec_X4R4G4B4@@QAE@PAUD3DX_BLT@@@Z 10023676 f i D3dx8:cd3dxcodec.obj
 0001:00022692       ??_ECD3DXCodec_X4R4G4B4@@UAEPAXI@Z 10023692 f i D3dx8:cd3dxcodec.obj
 0001:00022692       ??_GCD3DXCodec_X4R4G4B4@@UAEPAXI@Z 10023692 f i D3dx8:cd3dxcodec.obj
 0001:000226ae       ??1CD3DXCodec_X4R4G4B4@@UAE@XZ 100236ae f i D3dx8:cd3dxcodec.obj
 0001:000226b3       ?Encode@CD3DXCodecYUV@@UAEXIIPAUD3DXCOLOR@@@Z 100236b3 f   D3dx8:cd3dxcodec.obj
 0001:00022740       ??0CD3DXCodec_A2B10G10R10@@QAE@PAUD3DX_BLT@@@Z 10023740 f i D3dx8:cd3dxcodec.obj
 0001:0002275c       ??_GCD3DXCodec_A2B10G10R10@@UAEPAXI@Z 1002375c f i D3dx8:cd3dxcodec.obj
 0001:0002275c       ??_ECD3DXCodec_A2B10G10R10@@UAEPAXI@Z 1002375c f i D3dx8:cd3dxcodec.obj
 0001:00022778       ??1CD3DXCodec_A2B10G10R10@@UAE@XZ 10023778 f i D3dx8:cd3dxcodec.obj
 0001:0002277d       ?Decode@CD3DXCodecYUV@@UAEXIIPAUD3DXCOLOR@@@Z 1002377d f   D3dx8:cd3dxcodec.obj
 0001:000227ec       ??0CD3DXCodec_G16R16@@QAE@PAUD3DX_BLT@@@Z 100237ec f i D3dx8:cd3dxcodec.obj
 0001:00022808       ??_ECD3DXCodec_G16R16@@UAEPAXI@Z 10023808 f i D3dx8:cd3dxcodec.obj
 0001:00022808       ??_GCD3DXCodec_G16R16@@UAEPAXI@Z 10023808 f i D3dx8:cd3dxcodec.obj
 0001:00022824       ??1CD3DXCodec_G16R16@@UAE@XZ 10023824 f i D3dx8:cd3dxcodec.obj
 0001:00022829       ??0CD3DXCodecDXT@@QAE@PAUD3DX_BLT@@@Z 10023829 f   D3dx8:cd3dxcodec.obj
 0001:00022a1b       ??0CD3DXCodec_A8P8@@QAE@PAUD3DX_BLT@@@Z 10023a1b f i D3dx8:cd3dxcodec.obj
 0001:00022a37       ??_GCD3DXCodec_A8P8@@UAEPAXI@Z 10023a37 f i D3dx8:cd3dxcodec.obj
 0001:00022a37       ??_ECD3DXCodec_A8P8@@UAEPAXI@Z 10023a37 f i D3dx8:cd3dxcodec.obj
 0001:00022a53       ??1CD3DXCodec_A8P8@@UAE@XZ 10023a53 f i D3dx8:cd3dxcodec.obj
 0001:00022a58       ??0CD3DXCodec_P8@@QAE@PAUD3DX_BLT@@@Z 10023a58 f i D3dx8:cd3dxcodec.obj
 0001:00022a74       ??_GCD3DXCodec_P8@@UAEPAXI@Z 10023a74 f i D3dx8:cd3dxcodec.obj
 0001:00022a74       ??_ECD3DXCodec_P8@@UAEPAXI@Z 10023a74 f i D3dx8:cd3dxcodec.obj
 0001:00022a90       ??1CD3DXCodec_P8@@UAE@XZ   10023a90 f i D3dx8:cd3dxcodec.obj
 0001:00022a95       ??0CD3DXCodec_L8@@QAE@PAUD3DX_BLT@@@Z 10023a95 f i D3dx8:cd3dxcodec.obj
 0001:00022ab1       ??_GCD3DXCodec_L8@@UAEPAXI@Z 10023ab1 f i D3dx8:cd3dxcodec.obj
 0001:00022ab1       ??_ECD3DXCodec_L8@@UAEPAXI@Z 10023ab1 f i D3dx8:cd3dxcodec.obj
 0001:00022acd       ??1CD3DXCodec_L8@@UAE@XZ   10023acd f i D3dx8:cd3dxcodec.obj
 0001:00022ad2       ??0CD3DXCodec_A8L8@@QAE@PAUD3DX_BLT@@@Z 10023ad2 f i D3dx8:cd3dxcodec.obj
 0001:00022aee       ??_GCD3DXCodecDXT@@UAEPAXI@Z 10023aee f i D3dx8:cd3dxcodec.obj
 0001:00022aee       ??_ECD3DXCodecDXT@@UAEPAXI@Z 10023aee f i D3dx8:cd3dxcodec.obj
 0001:00022b0a       ??_GCD3DXCodec_A8L8@@UAEPAXI@Z 10023b0a f i D3dx8:cd3dxcodec.obj
 0001:00022b0a       ??_ECD3DXCodec_A8L8@@UAEPAXI@Z 10023b0a f i D3dx8:cd3dxcodec.obj
 0001:00022b26       ??1CD3DXCodec_A8L8@@UAE@XZ 10023b26 f i D3dx8:cd3dxcodec.obj
 0001:00022b2b       ??0CD3DXCodec_A4L4@@QAE@PAUD3DX_BLT@@@Z 10023b2b f i D3dx8:cd3dxcodec.obj
 0001:00022b47       ??_GCD3DXCodec_A4L4@@UAEPAXI@Z 10023b47 f i D3dx8:cd3dxcodec.obj
 0001:00022b47       ??_ECD3DXCodec_A4L4@@UAEPAXI@Z 10023b47 f i D3dx8:cd3dxcodec.obj
 0001:00022b63       ??1CD3DXCodec_A4L4@@UAE@XZ 10023b63 f i D3dx8:cd3dxcodec.obj
 0001:00022b68       ?QuantizeColorKey@CD3DXCodecDXT@@MAEXXZ 10023b68 f   D3dx8:cd3dxcodec.obj
 0001:00022c69       ??0CD3DXCodec_V8U8@@QAE@PAUD3DX_BLT@@@Z 10023c69 f i D3dx8:cd3dxcodec.obj
 0001:00022c85       ??_ECD3DXCodec_V8U8@@UAEPAXI@Z 10023c85 f i D3dx8:cd3dxcodec.obj
 0001:00022c85       ??_GCD3DXCodec_V8U8@@UAEPAXI@Z 10023c85 f i D3dx8:cd3dxcodec.obj
 0001:00022ca1       ??1CD3DXCodec_V8U8@@UAE@XZ 10023ca1 f i D3dx8:cd3dxcodec.obj
 0001:00022ca6       ??0CD3DXCodec_L6V5U5@@QAE@PAUD3DX_BLT@@@Z 10023ca6 f i D3dx8:cd3dxcodec.obj
 0001:00022cc2       ??_ECD3DXCodec_L6V5U5@@UAEPAXI@Z 10023cc2 f i D3dx8:cd3dxcodec.obj
 0001:00022cc2       ??_GCD3DXCodec_L6V5U5@@UAEPAXI@Z 10023cc2 f i D3dx8:cd3dxcodec.obj
 0001:00022cde       ??1CD3DXCodec_L6V5U5@@UAE@XZ 10023cde f i D3dx8:cd3dxcodec.obj
 0001:00022ce3       ??0CD3DXCodec_X8L8V8U8@@QAE@PAUD3DX_BLT@@@Z 10023ce3 f i D3dx8:cd3dxcodec.obj
 0001:00022cff       ??_ECD3DXCodec_X8L8V8U8@@UAEPAXI@Z 10023cff f i D3dx8:cd3dxcodec.obj
 0001:00022cff       ??_GCD3DXCodec_X8L8V8U8@@UAEPAXI@Z 10023cff f i D3dx8:cd3dxcodec.obj
 0001:00022d1b       ??1CD3DXCodec_X8L8V8U8@@UAE@XZ 10023d1b f i D3dx8:cd3dxcodec.obj
 0001:00022d20       ??0CD3DXCodec_Q8W8V8U8@@QAE@PAUD3DX_BLT@@@Z 10023d20 f i D3dx8:cd3dxcodec.obj
 0001:00022d3c       ??_GCD3DXCodec_Q8W8V8U8@@UAEPAXI@Z 10023d3c f i D3dx8:cd3dxcodec.obj
 0001:00022d3c       ??_ECD3DXCodec_Q8W8V8U8@@UAEPAXI@Z 10023d3c f i D3dx8:cd3dxcodec.obj
 0001:00022d58       ??1CD3DXCodec_Q8W8V8U8@@UAE@XZ 10023d58 f i D3dx8:cd3dxcodec.obj
 0001:00022d5d       ??0CD3DXCodec_V16U16@@QAE@PAUD3DX_BLT@@@Z 10023d5d f i D3dx8:cd3dxcodec.obj
 0001:00022d79       ??_GCD3DXCodec_V16U16@@UAEPAXI@Z 10023d79 f i D3dx8:cd3dxcodec.obj
 0001:00022d79       ??_ECD3DXCodec_V16U16@@UAEPAXI@Z 10023d79 f i D3dx8:cd3dxcodec.obj
 0001:00022d95       ??1CD3DXCodec_V16U16@@UAE@XZ 10023d95 f i D3dx8:cd3dxcodec.obj
 0001:00022d9a       ??0CD3DXCodec_W11V11U10@@QAE@PAUD3DX_BLT@@@Z 10023d9a f i D3dx8:cd3dxcodec.obj
 0001:00022db6       ??_GCD3DXCodec_W11V11U10@@UAEPAXI@Z 10023db6 f i D3dx8:cd3dxcodec.obj
 0001:00022db6       ??_ECD3DXCodec_W11V11U10@@UAEPAXI@Z 10023db6 f i D3dx8:cd3dxcodec.obj
 0001:00022dd2       ??1CD3DXCodec_W11V11U10@@UAE@XZ 10023dd2 f i D3dx8:cd3dxcodec.obj
 0001:00022dd7       ??0CD3DXCodec_A2W10V10U10@@QAE@PAUD3DX_BLT@@@Z 10023dd7 f i D3dx8:cd3dxcodec.obj
 0001:00022df3       ??_ECD3DXCodec_A2W10V10U10@@UAEPAXI@Z 10023df3 f i D3dx8:cd3dxcodec.obj
 0001:00022df3       ??_GCD3DXCodec_A2W10V10U10@@UAEPAXI@Z 10023df3 f i D3dx8:cd3dxcodec.obj
 0001:00022e0f       ??1CD3DXCodec_A2W10V10U10@@UAE@XZ 10023e0f f i D3dx8:cd3dxcodec.obj
 0001:00022e14       ??0CD3DXCodec_D16_LOCKABLE@@QAE@PAUD3DX_BLT@@@Z 10023e14 f i D3dx8:cd3dxcodec.obj
 0001:00022e30       ??_GCD3DXCodec_D16_LOCKABLE@@UAEPAXI@Z 10023e30 f i D3dx8:cd3dxcodec.obj
 0001:00022e30       ??_ECD3DXCodec_D16_LOCKABLE@@UAEPAXI@Z 10023e30 f i D3dx8:cd3dxcodec.obj
 0001:00022e4c       ??1CD3DXCodec_D16_LOCKABLE@@UAE@XZ 10023e4c f i D3dx8:cd3dxcodec.obj
 0001:00022e51       ??0CD3DXCodec_D3DX_L16@@QAE@PAUD3DX_BLT@@@Z 10023e51 f i D3dx8:cd3dxcodec.obj
 0001:00022e6d       ??_ECD3DXCodec_D3DX_L16@@UAEPAXI@Z 10023e6d f i D3dx8:cd3dxcodec.obj
 0001:00022e6d       ??_GCD3DXCodec_D3DX_L16@@UAEPAXI@Z 10023e6d f i D3dx8:cd3dxcodec.obj
 0001:00022e89       ??1CD3DXCodec_D3DX_L16@@UAE@XZ 10023e89 f i D3dx8:cd3dxcodec.obj
 0001:00022e8e       ?Decode@CD3DXCodecDXT@@UAEXIIPAUD3DXCOLOR@@@Z 10023e8e f   D3dx8:cd3dxcodec.obj
 0001:00023137       ??0CD3DXCodec_D3DX_A16L16@@QAE@PAUD3DX_BLT@@@Z 10024137 f i D3dx8:cd3dxcodec.obj
 0001:00023153       ??_ECD3DXCodec_D3DX_A16L16@@UAEPAXI@Z 10024153 f i D3dx8:cd3dxcodec.obj
 0001:00023153       ??_GCD3DXCodec_D3DX_A16L16@@UAEPAXI@Z 10024153 f i D3dx8:cd3dxcodec.obj
 0001:0002316f       ??1CD3DXCodec_D3DX_A16L16@@UAE@XZ 1002416f f i D3dx8:cd3dxcodec.obj
 0001:00023174       ??0CD3DXCodec_D3DX_R16G16B16@@QAE@PAUD3DX_BLT@@@Z 10024174 f i D3dx8:cd3dxcodec.obj
 0001:00023190       ??_GCD3DXCodec_D3DX_R16G16B16@@UAEPAXI@Z 10024190 f i D3dx8:cd3dxcodec.obj
 0001:00023190       ??_ECD3DXCodec_D3DX_R16G16B16@@UAEPAXI@Z 10024190 f i D3dx8:cd3dxcodec.obj
 0001:000231ac       ??1CD3DXCodec_D3DX_R16G16B16@@UAE@XZ 100241ac f i D3dx8:cd3dxcodec.obj
 0001:000231b1       ??0CD3DXCodec_D3DX_A16R16G16B16@@QAE@PAUD3DX_BLT@@@Z 100241b1 f i D3dx8:cd3dxcodec.obj
 0001:000231cd       ??_ECD3DXCodec_D3DX_A16R16G16B16@@UAEPAXI@Z 100241cd f i D3dx8:cd3dxcodec.obj
 0001:000231cd       ??_GCD3DXCodec_D3DX_A16R16G16B16@@UAEPAXI@Z 100241cd f i D3dx8:cd3dxcodec.obj
 0001:000231e9       ??1CD3DXCodec_D3DX_A16R16G16B16@@UAE@XZ 100241e9 f i D3dx8:cd3dxcodec.obj
 0001:000231ee       ??0CD3DXCodec_DXT1@@QAE@PAUD3DX_BLT@@@Z 100241ee f i D3dx8:cd3dxcodec.obj
 0001:00023206       ??_ECD3DXCodec_DXT1@@UAEPAXI@Z 10024206 f i D3dx8:cd3dxcodec.obj
 0001:00023206       ??_GCD3DXCodec_DXT1@@UAEPAXI@Z 10024206 f i D3dx8:cd3dxcodec.obj
 0001:00023222       ??1CD3DXCodec_DXT1@@UAE@XZ 10024222 f i D3dx8:cd3dxcodec.obj
 0001:00023227       ??0CD3DXCodec_DXT2@@QAE@PAUD3DX_BLT@@@Z 10024227 f i D3dx8:cd3dxcodec.obj
 0001:0002323f       ??_ECD3DXCodec_DXT2@@UAEPAXI@Z 1002423f f i D3dx8:cd3dxcodec.obj
 0001:0002323f       ??_GCD3DXCodec_DXT2@@UAEPAXI@Z 1002423f f i D3dx8:cd3dxcodec.obj
 0001:0002325b       ??1CD3DXCodec_DXT2@@UAE@XZ 1002425b f i D3dx8:cd3dxcodec.obj
 0001:00023260       ??0CD3DXCodec_DXT3@@QAE@PAUD3DX_BLT@@@Z 10024260 f i D3dx8:cd3dxcodec.obj
 0001:00023278       ??_GCD3DXCodec_DXT3@@UAEPAXI@Z 10024278 f i D3dx8:cd3dxcodec.obj
 0001:00023278       ??_ECD3DXCodec_DXT3@@UAEPAXI@Z 10024278 f i D3dx8:cd3dxcodec.obj
 0001:00023294       ??1CD3DXCodec_DXT3@@UAE@XZ 10024294 f i D3dx8:cd3dxcodec.obj
 0001:00023299       ??0CD3DXCodec_DXT4@@QAE@PAUD3DX_BLT@@@Z 10024299 f i D3dx8:cd3dxcodec.obj
 0001:000232b1       ??_ECD3DXCodec_DXT4@@UAEPAXI@Z 100242b1 f i D3dx8:cd3dxcodec.obj
 0001:000232b1       ??_GCD3DXCodec_DXT4@@UAEPAXI@Z 100242b1 f i D3dx8:cd3dxcodec.obj
 0001:000232cd       ??1CD3DXCodec_DXT4@@UAE@XZ 100242cd f i D3dx8:cd3dxcodec.obj
 0001:000232d2       ??0CD3DXCodec_DXT5@@QAE@PAUD3DX_BLT@@@Z 100242d2 f i D3dx8:cd3dxcodec.obj
 0001:000232ea       ??_GCD3DXCodec_DXT5@@UAEPAXI@Z 100242ea f i D3dx8:cd3dxcodec.obj
 0001:000232ea       ??_ECD3DXCodec_DXT5@@UAEPAXI@Z 100242ea f i D3dx8:cd3dxcodec.obj
 0001:00023306       ??1CD3DXCodec_DXT5@@UAE@XZ 10024306 f i D3dx8:cd3dxcodec.obj
 0001:0002330b       ??1CD3DXCodecYUV@@UAE@XZ   1002430b f   D3dx8:cd3dxcodec.obj
 0001:00023354       ??0CD3DXCodec_UYVY@@QAE@PAUD3DX_BLT@@@Z 10024354 f i D3dx8:cd3dxcodec.obj
 0001:0002336c       ??0CD3DXCodec_YUY2@@QAE@PAUD3DX_BLT@@@Z 1002436c f i D3dx8:cd3dxcodec.obj
 0001:00023384       ?Create@CD3DXCodec@@SAPAV1@PAUD3DX_BLT@@@Z 10024384 f   D3dx8:cd3dxcodec.obj
 0001:00023ae0       ??_GCD3DXCodecYUV@@UAEPAXI@Z 10024ae0 f i D3dx8:cd3dxcodec.obj
 0001:00023ae0       ??_ECD3DXCodecYUV@@UAEPAXI@Z 10024ae0 f i D3dx8:cd3dxcodec.obj
 0001:00023afc       ??_ECD3DXCodec_UYVY@@UAEPAXI@Z 10024afc f i D3dx8:cd3dxcodec.obj
 0001:00023afc       ??_GCD3DXCodec_UYVY@@UAEPAXI@Z 10024afc f i D3dx8:cd3dxcodec.obj
 0001:00023b18       ??1CD3DXCodec_UYVY@@UAE@XZ 10024b18 f i D3dx8:cd3dxcodec.obj
 0001:00023b1d       ??_ECD3DXCodec_YUY2@@UAEPAXI@Z 10024b1d f i D3dx8:cd3dxcodec.obj
 0001:00023b1d       ??_GCD3DXCodec_YUY2@@UAEPAXI@Z 10024b1d f i D3dx8:cd3dxcodec.obj
 0001:00023b39       ??1CD3DXCodec_YUY2@@UAE@XZ 10024b39 f i D3dx8:cd3dxcodec.obj
 0001:00023b7e       ?init_D3DXVec2Normalize@@YGPAUD3DXVECTOR2@@PAU1@PBU1@@Z 10024b7e f   D3dx8:d3dxmath.obj
 0001:00023b8b       _D3DXVec2Normalize@8       10024b8b f   D3dx8:d3dxmath.obj
 0001:00023b91       ?init_D3DXVec2Hermite@@YGPAUD3DXVECTOR2@@PAU1@PBU1@111M@Z 10024b91 f   D3dx8:d3dxmath.obj
 0001:00023bbb       _D3DXVec2Hermite@24        10024bbb f   D3dx8:d3dxmath.obj
 0001:00023bc1       ?c_D3DXVec2Hermite@@YGPAUD3DXVECTOR2@@PAU1@PBU1@111M@Z 10024bc1 f   D3dx8:d3dxmath.obj
 0001:00023c4f       ?init_D3DXVec2CatmullRom@@YGPAUD3DXVECTOR2@@PAU1@PBU1@111M@Z 10024c4f f   D3dx8:d3dxmath.obj
 0001:00023c79       _D3DXVec2CatmullRom@24     10024c79 f   D3dx8:d3dxmath.obj
 0001:00023c7f       ?c_D3DXVec2CatmullRom@@YGPAUD3DXVECTOR2@@PAU1@PBU1@111M@Z 10024c7f f   D3dx8:d3dxmath.obj
 0001:00023d2e       ?init_D3DXVec2BaryCentric@@YGPAUD3DXVECTOR2@@PAU1@PBU1@11MM@Z 10024d2e f   D3dx8:d3dxmath.obj
 0001:00023d5d       _D3DXVec2BaryCentric@24    10024d5d f   D3dx8:d3dxmath.obj
 0001:00023d63       ?c_D3DXVec2BaryCentric@@YGPAUD3DXVECTOR2@@PAU1@PBU1@11MM@Z 10024d63 f   D3dx8:d3dxmath.obj
 0001:00023da6       ?init_D3DXVec2Transform@@YGPAUD3DXVECTOR4@@PAU1@PBUD3DXVECTOR2@@PBUD3DXMATRIX@@@Z 10024da6 f   D3dx8:d3dxmath.obj
 0001:00023db3       _D3DXVec2Transform@12      10024db3 f   D3dx8:d3dxmath.obj
 0001:00023db9       ?init_D3DXVec2TransformCoord@@YGPAUD3DXVECTOR2@@PAU1@PBU1@PBUD3DXMATRIX@@@Z 10024db9 f   D3dx8:d3dxmath.obj
 0001:00023dc6       _D3DXVec2TransformCoord@12 10024dc6 f   D3dx8:d3dxmath.obj
 0001:00023dcc       ?init_D3DXVec2TransformNormal@@YGPAUD3DXVECTOR2@@PAU1@PBU1@PBUD3DXMATRIX@@@Z 10024dcc f   D3dx8:d3dxmath.obj
 0001:00023dd9       _D3DXVec2TransformNormal@12 10024dd9 f   D3dx8:d3dxmath.obj
 0001:00023ddf       ?init_D3DXVec3Normalize@@YGPAUD3DXVECTOR3@@PAU1@PBU1@@Z 10024ddf f   D3dx8:d3dxmath.obj
 0001:00023dec       _D3DXVec3Normalize@8       10024dec f   D3dx8:d3dxmath.obj
 0001:00023df2       _acosf                     10024df2 f i D3dx8:d3dxmath.obj
 0001:00023dfc       ?init_D3DXVec3Hermite@@YGPAUD3DXVECTOR3@@PAU1@PBU1@111M@Z 10024dfc f   D3dx8:d3dxmath.obj
 0001:00023e26       _D3DXVec3Hermite@24        10024e26 f   D3dx8:d3dxmath.obj
 0001:00023e2c       _atan2f                    10024e2c f i D3dx8:d3dxmath.obj
 0001:00023e37       ?c_D3DXVec3Hermite@@YGPAUD3DXVECTOR3@@PAU1@PBU1@111M@Z 10024e37 f   D3dx8:d3dxmath.obj
 0001:00023ee5       _fabsf                     10024ee5 f i D3dx8:d3dxmath.obj
 0001:00023eec       ?init_D3DXVec3CatmullRom@@YGPAUD3DXVECTOR3@@PAU1@PBU1@111M@Z 10024eec f   D3dx8:d3dxmath.obj
 0001:00023f16       _D3DXVec3CatmullRom@24     10024f16 f   D3dx8:d3dxmath.obj
 0001:00023f1c       ?c_D3DXVec3CatmullRom@@YGPAUD3DXVECTOR3@@PAU1@PBU1@111M@Z 10024f1c f   D3dx8:d3dxmath.obj
 0001:00023fed       _sinf                      10024fed f i D3dx8:d3dxmath.obj
 0001:00023ff4       ?init_D3DXVec3BaryCentric@@YGPAUD3DXVECTOR3@@PAU1@PBU1@11MM@Z 10024ff4 f   D3dx8:d3dxmath.obj
 0001:00024023       _D3DXVec3BaryCentric@24    10025023 f   D3dx8:d3dxmath.obj
 0001:00024029       ?c_D3DXVec3BaryCentric@@YGPAUD3DXVECTOR3@@PAU1@PBU1@11MM@Z 10025029 f   D3dx8:d3dxmath.obj
 0001:00024086       ??0D3DXMATRIX@@QAE@XZ      10025086 f i D3dx8:d3dxmath.obj
 0001:00024089       ??0_D3DXMATRIXA16@@QAE@XZ  10025089 f i D3dx8:d3dxmath.obj
 0001:0002408c       ?init_D3DXVec3Transform@@YGPAUD3DXVECTOR4@@PAU1@PBUD3DXVECTOR3@@PBUD3DXMATRIX@@@Z 1002508c f   D3dx8:d3dxmath.obj
 0001:00024099       _D3DXVec3Transform@12      10025099 f   D3dx8:d3dxmath.obj
 0001:0002409f       ?c_D3DXVec3Transform@@YGPAUD3DXVECTOR4@@PAU1@PBUD3DXVECTOR3@@PBUD3DXMATRIX@@@Z 1002509f f   D3dx8:d3dxmath.obj
 0001:0002412a       ?init_D3DXVec3TransformCoord@@YGPAUD3DXVECTOR3@@PAU1@PBU1@PBUD3DXMATRIX@@@Z 1002512a f   D3dx8:d3dxmath.obj
 0001:00024137       _D3DXVec3TransformCoord@12 10025137 f   D3dx8:d3dxmath.obj
 0001:0002413d       ??0D3DXQUATERNION@@QAE@XZ  1002513d f i D3dx8:d3dxmath.obj
 0001:00024140       ??0D3DXPLANE@@QAE@XZ       10025140 f i D3dx8:d3dxmath.obj
 0001:00024143       ?init_D3DXVec3TransformNormal@@YGPAUD3DXVECTOR3@@PAU1@PBU1@PBUD3DXMATRIX@@@Z 10025143 f   D3dx8:d3dxmath.obj
 0001:00024150       ??0D3DXVECTOR2@@QAE@MM@Z   10025150 f i D3dx8:d3dxmath.obj
 0001:00024162       _D3DXVec3TransformNormal@12 10025162 f   D3dx8:d3dxmath.obj
 0001:00024168       ?c_D3DXVec3TransformNormal@@YGPAUD3DXVECTOR3@@PAU1@PBU1@PBUD3DXMATRIX@@@Z 10025168 f   D3dx8:d3dxmath.obj
 0001:000241ce       ?init_D3DXVec3Project@@YGPAUD3DXVECTOR3@@PAU1@PBU1@PBU_D3DVIEWPORT8@@PBUD3DXMATRIX@@33@Z 100251ce f   D3dx8:d3dxmath.obj
 0001:000241df       ??_0D3DXVECTOR2@@QAEAAU0@M@Z 100251df f i D3dx8:d3dxmath.obj
 0001:000241f6       _D3DXVec3Project@24        100251f6 f   D3dx8:d3dxmath.obj
 0001:000241fc       ??KD3DXVECTOR2@@QBE?AU0@M@Z 100251fc f i D3dx8:d3dxmath.obj
 0001:00024219       ?init_D3DXVec3Unproject@@YGPAUD3DXVECTOR3@@PAU1@PBU1@PBU_D3DVIEWPORT8@@PBUD3DXMATRIX@@33@Z 10025219 f   D3dx8:d3dxmath.obj
 0001:0002422a       _D3DXVec3Unproject@24      1002522a f   D3dx8:d3dxmath.obj
 0001:00024230       ?init_D3DXVec4Cross@@YGPAUD3DXVECTOR4@@PAU1@PBU1@11@Z 10025230 f   D3dx8:d3dxmath.obj
 0001:0002423d       ??_0D3DXVECTOR3@@QAEAAU0@M@Z 1002523d f i D3dx8:d3dxmath.obj
 0001:0002425c       _D3DXVec4Cross@16          1002525c f   D3dx8:d3dxmath.obj
 0001:00024262       ?c_D3DXVec4Cross@@YGPAUD3DXVECTOR4@@PAU1@PBU1@11@Z 10025262 f   D3dx8:d3dxmath.obj
 0001:00024352       ??GD3DXVECTOR3@@QBE?AU0@ABU0@@Z 10025352 f i D3dx8:d3dxmath.obj
 0001:00024375       ??KD3DXVECTOR3@@QBE?AU0@M@Z 10025375 f i D3dx8:d3dxmath.obj
 0001:0002439d       ?init_D3DXVec4Normalize@@YGPAUD3DXVECTOR4@@PAU1@PBU1@@Z 1002539d f   D3dx8:d3dxmath.obj
 0001:000243aa       _D3DXVec4Normalize@8       100253aa f   D3dx8:d3dxmath.obj
 0001:000243b0       ?init_D3DXVec4Hermite@@YGPAUD3DXVECTOR4@@PAU1@PBU1@111M@Z 100253b0 f   D3dx8:d3dxmath.obj
 0001:000243da       _D3DXVec4Hermite@24        100253da f   D3dx8:d3dxmath.obj
 0001:000243e0       ??0D3DXVECTOR4@@QAE@MMMM@Z 100253e0 f i D3dx8:d3dxmath.obj
 0001:00024400       ?c_D3DXVec4Hermite@@YGPAUD3DXVECTOR4@@PAU1@PBU1@111M@Z 10025400 f   D3dx8:d3dxmath.obj
 0001:000244d1       ?init_D3DXVec4CatmullRom@@YGPAUD3DXVECTOR4@@PAU1@PBU1@111M@Z 100254d1 f   D3dx8:d3dxmath.obj
 0001:000244fb       _D3DXVec4CatmullRom@24     100254fb f   D3dx8:d3dxmath.obj
 0001:00024501       ?c_D3DXVec4CatmullRom@@YGPAUD3DXVECTOR4@@PAU1@PBU1@111M@Z 10025501 f   D3dx8:d3dxmath.obj
 0001:000245f4       ?init_D3DXVec4BaryCentric@@YGPAUD3DXVECTOR4@@PAU1@PBU1@11MM@Z 100255f4 f   D3dx8:d3dxmath.obj
 0001:00024623       _D3DXVec4BaryCentric@24    10025623 f   D3dx8:d3dxmath.obj
 0001:00024629       ?c_D3DXVec4BaryCentric@@YGPAUD3DXVECTOR4@@PAU1@PBU1@11MM@Z 10025629 f   D3dx8:d3dxmath.obj
 0001:000246a0       ??KD3DXVECTOR4@@QBE?AU0@M@Z 100256a0 f i D3dx8:d3dxmath.obj
 0001:000246cd       ?init_D3DXVec4Transform@@YGPAUD3DXVECTOR4@@PAU1@PBU1@PBUD3DXMATRIX@@@Z 100256cd f   D3dx8:d3dxmath.obj
 0001:000246da       _D3DXVec4Transform@12      100256da f   D3dx8:d3dxmath.obj
 0001:000246e0       ?c_D3DXVec4Transform@@YGPAUD3DXVECTOR4@@PAU1@PBU1@PBUD3DXMATRIX@@@Z 100256e0 f   D3dx8:d3dxmath.obj
 0001:0002477f       ?init_D3DXMatrixfDeterminant@@YGMPBUD3DXMATRIX@@@Z 1002577f f   D3dx8:d3dxmath.obj
 0001:0002478c       _D3DXMatrixfDeterminant@4  1002578c f   D3dx8:d3dxmath.obj
 0001:00024792       ?c_D3DXMatrixfDeterminant@@YGMPBUD3DXMATRIX@@@Z 10025792 f   D3dx8:d3dxmath.obj
 0001:0002485c       ?init_D3DXMatrixMultiply@@YGPAUD3DXMATRIX@@PAU1@PBU1@1@Z 1002585c f   D3dx8:d3dxmath.obj
 0001:00024869       _D3DXMatrixMultiply@12     10025869 f   D3dx8:d3dxmath.obj
 0001:0002486f       ?c_D3DXMatrixMultiply@@YGPAUD3DXMATRIX@@PAU1@PBU1@1@Z 1002586f f   D3dx8:d3dxmath.obj
 0001:00024aa5       ?init_D3DXMatrixTranspose@@YGPAUD3DXMATRIX@@PAU1@PBU1@@Z 10025aa5 f   D3dx8:d3dxmath.obj
 0001:00024ab2       _D3DXMatrixTranspose@8     10025ab2 f   D3dx8:d3dxmath.obj
 0001:00024ab8       ?c_D3DXMatrixTranspose@@YGPAUD3DXMATRIX@@PAU1@PBU1@@Z 10025ab8 f   D3dx8:d3dxmath.obj
 0001:00024b25       ?init_D3DXMatrixMultiplyTranspose@@YGPAUD3DXMATRIX@@PAU1@PBU1@1@Z 10025b25 f   D3dx8:d3dxmath.obj
 0001:00024b32       _D3DXMatrixMultiplyTranspose@12 10025b32 f   D3dx8:d3dxmath.obj
 0001:00024b38       ?c_D3DXMatrixMultiplyTranspose@@YGPAUD3DXMATRIX@@PAU1@PBU1@1@Z 10025b38 f   D3dx8:d3dxmath.obj
 0001:00024d6e       ??0D3DXQUATERNION@@QAE@MMMM@Z 10025d6e f i D3dx8:d3dxmath.obj
 0001:00024d8e       ?init_D3DXMatrixInverse@@YGPAUD3DXMATRIX@@PAU1@PAMPBU1@@Z 10025d8e f   D3dx8:d3dxmath.obj
 0001:00024d9b       _D3DXMatrixInverse@12      10025d9b f   D3dx8:d3dxmath.obj
 0001:00024da1       ?c_D3DXMatrixInverse@@YGPAUD3DXMATRIX@@PAU1@PAMPBU1@@Z 10025da1 f   D3dx8:d3dxmath.obj
 0001:0002512e       ??_0D3DXQUATERNION@@QAEAAU0@M@Z 1002612e f i D3dx8:d3dxmath.obj
 0001:00025155       ??GD3DXQUATERNION@@QBE?AU0@XZ 10026155 f i D3dx8:d3dxmath.obj
 0001:0002517a       ??HD3DXQUATERNION@@QBE?AU0@ABU0@@Z 1002617a f i D3dx8:d3dxmath.obj
 0001:000251a6       ??GD3DXQUATERNION@@QBE?AU0@ABU0@@Z 100261a6 f i D3dx8:d3dxmath.obj
 0001:000251d2       ??DD3DXQUATERNION@@QBE?AU0@M@Z 100261d2 f i D3dx8:d3dxmath.obj
 0001:000251fe       ??KD3DXQUATERNION@@QBE?AU0@M@Z 100261fe f i D3dx8:d3dxmath.obj
 0001:0002522b       ?init_D3DXMatrixScaling@@YGPAUD3DXMATRIX@@PAU1@MMM@Z 1002622b f   D3dx8:d3dxmath.obj
 0001:00025259       _D3DXMatrixScaling@16      10026259 f   D3dx8:d3dxmath.obj
 0001:0002525f       ?c_D3DXMatrixScaling@@YGPAUD3DXMATRIX@@PAU1@MMM@Z 1002625f f   D3dx8:d3dxmath.obj
 0001:000252bb       ?init_D3DXMatrixTranslation@@YGPAUD3DXMATRIX@@PAU1@MMM@Z 100262bb f   D3dx8:d3dxmath.obj
 0001:000252e9       ??0D3DXPLANE@@QAE@MMMM@Z   100262e9 f i D3dx8:d3dxmath.obj
 0001:00025309       _D3DXMatrixTranslation@16  10026309 f   D3dx8:d3dxmath.obj
 0001:0002530f       ?c_D3DXMatrixTranslation@@YGPAUD3DXMATRIX@@PAU1@MMM@Z 1002630f f   D3dx8:d3dxmath.obj
 0001:0002536b       ??GD3DXPLANE@@QBE?AU0@XZ   1002636b f i D3dx8:d3dxmath.obj
 0001:00025390       ?init_D3DXMatrixRotationX@@YGPAUD3DXMATRIX@@PAU1@M@Z 10026390 f   D3dx8:d3dxmath.obj
 0001:000253ac       _D3DXMatrixRotationX@8     100263ac f   D3dx8:d3dxmath.obj
 0001:000253b2       ?c_D3DXMatrixRotationX@@YGPAUD3DXMATRIX@@PAU1@M@Z 100263b2 f   D3dx8:d3dxmath.obj
 0001:0002542c       ?init_D3DXMatrixRotationY@@YGPAUD3DXMATRIX@@PAU1@M@Z 1002642c f   D3dx8:d3dxmath.obj
 0001:00025448       _D3DXMatrixRotationY@8     10026448 f   D3dx8:d3dxmath.obj
 0001:0002544e       ?c_D3DXMatrixRotationY@@YGPAUD3DXMATRIX@@PAU1@M@Z 1002644e f   D3dx8:d3dxmath.obj
 0001:000254c9       ?init_D3DXMatrixRotationZ@@YGPAUD3DXMATRIX@@PAU1@M@Z 100264c9 f   D3dx8:d3dxmath.obj
 0001:000254e5       _D3DXMatrixRotationZ@8     100264e5 f   D3dx8:d3dxmath.obj
 0001:000254eb       ?c_D3DXMatrixRotationZ@@YGPAUD3DXMATRIX@@PAU1@M@Z 100264eb f   D3dx8:d3dxmath.obj
 0001:00025567       ?init_D3DXMatrixRotationAxis@@YGPAUD3DXMATRIX@@PAU1@PBUD3DXVECTOR3@@M@Z 10026567 f   D3dx8:d3dxmath.obj
 0001:00025587       _D3DXMatrixRotationAxis@12 10026587 f   D3dx8:d3dxmath.obj
 0001:0002558d       ?c_D3DXMatrixRotationAxis@@YGPAUD3DXMATRIX@@PAU1@PBUD3DXVECTOR3@@M@Z 1002658d f   D3dx8:d3dxmath.obj
 0001:0002568f       ?init_D3DXMatrixRotationQuaternion@@YGPAUD3DXMATRIX@@PAU1@PBUD3DXQUATERNION@@@Z 1002668f f   D3dx8:d3dxmath.obj
 0001:0002569c       _D3DXMatrixRotationQuaternion@8 1002669c f   D3dx8:d3dxmath.obj
 0001:000256a2       ?c_D3DXMatrixRotationQuaternion@@YGPAUD3DXMATRIX@@PAU1@PBUD3DXQUATERNION@@@Z 100266a2 f   D3dx8:d3dxmath.obj
 0001:00025784       ?init_D3DXMatrixRotationYawPitchRoll@@YGPAUD3DXMATRIX@@PAU1@MMM@Z 10026784 f   D3dx8:d3dxmath.obj
 0001:000257b2       _D3DXMatrixRotationYawPitchRoll@16 100267b2 f   D3dx8:d3dxmath.obj
 0001:000257b8       ?init_D3DXMatrixTransformation@@YGPAUD3DXMATRIX@@PAU1@PBUD3DXVECTOR3@@PBUD3DXQUATERNION@@1121@Z 100267b8 f   D3dx8:d3dxmath.obj
 0001:000257c9       _D3DXMatrixTransformation@28 100267c9 f   D3dx8:d3dxmath.obj
 0001:000257cf       ?D3DXVec2LengthSq@@YAMPBUD3DXVECTOR2@@@Z 100267cf f i D3dx8:d3dxmath.obj
 0001:000257e7       ?init_D3DXMatrixAffineTransformation@@YGPAUD3DXMATRIX@@PAU1@MPBUD3DXVECTOR3@@PBUD3DXQUATERNION@@1@Z 100267e7 f   D3dx8:d3dxmath.obj
 0001:0002580e       ?D3DXVec3LengthSq@@YAMPBUD3DXVECTOR3@@@Z 1002680e f i D3dx8:d3dxmath.obj
 0001:00025831       _D3DXMatrixAffineTransformation@20 10026831 f   D3dx8:d3dxmath.obj
 0001:00025837       ?c_D3DXMatrixAffineTransformation@@YGPAUD3DXMATRIX@@PAU1@MPBUD3DXVECTOR3@@PBUD3DXQUATERNION@@1@Z 10026837 f   D3dx8:d3dxmath.obj
 0001:0002591d       ?D3DXVec3Dot@@YAMPBUD3DXVECTOR3@@0@Z 1002691d f i D3dx8:d3dxmath.obj
 0001:0002593a       ?D3DXVec3Subtract@@YAPAUD3DXVECTOR3@@PAU1@PBU1@1@Z 1002693a f i D3dx8:d3dxmath.obj
 0001:0002595f       _D3DXMatrixLookAtRH@16     1002695f f   D3dx8:d3dxmath.obj
 0001:00025aa7       _D3DXMatrixLookAtLH@16     10026aa7 f   D3dx8:d3dxmath.obj
 0001:00025bef       ?D3DXVec3Lerp@@YAPAUD3DXVECTOR3@@PAU1@PBU1@1M@Z 10026bef f i D3dx8:d3dxmath.obj
 0001:00025c26       ?D3DXVec4LengthSq@@YAMPBUD3DXVECTOR4@@@Z 10026c26 f i D3dx8:d3dxmath.obj
 0001:00025c54       _D3DXMatrixPerspectiveRH@20 10026c54 f   D3dx8:d3dxmath.obj
 0001:00025cc0       _D3DXMatrixPerspectiveLH@20 10026cc0 f   D3dx8:d3dxmath.obj
 0001:00025d2c       _D3DXMatrixPerspectiveFovRH@20 10026d2c f   D3dx8:d3dxmath.obj
 0001:00025dc0       _D3DXMatrixPerspectiveFovLH@20 10026dc0 f   D3dx8:d3dxmath.obj
 0001:00025e54       ?D3DXMatrixIdentity@@YAPAUD3DXMATRIX@@PAU1@@Z 10026e54 f i D3dx8:d3dxmath.obj
 0001:00025ea8       _D3DXMatrixPerspectiveOffCenterRH@28 10026ea8 f   D3dx8:d3dxmath.obj
 0001:00025f45       _D3DXMatrixPerspectiveOffCenterLH@28 10026f45 f   D3dx8:d3dxmath.obj
 0001:00025fe6       ?D3DXQuaternionLengthSq@@YAMPBUD3DXQUATERNION@@@Z 10026fe6 f i D3dx8:d3dxmath.obj
 0001:00026014       ?D3DXQuaternionDot@@YAMPBUD3DXQUATERNION@@0@Z 10027014 f i D3dx8:d3dxmath.obj
 0001:00026039       _D3DXMatrixOrthoRH@20      10027039 f   D3dx8:d3dxmath.obj
 0001:000260ab       ?D3DXQuaternionConjugate@@YAPAUD3DXQUATERNION@@PAU1@PBU1@@Z 100270ab f i D3dx8:d3dxmath.obj
 0001:000260d0       ?D3DXPlaneDot@@YAMPBUD3DXPLANE@@PBUD3DXVECTOR4@@@Z 100270d0 f i D3dx8:d3dxmath.obj
 0001:000260f5       _D3DXMatrixOrthoLH@20      100270f5 f   D3dx8:d3dxmath.obj
 0001:00026169       ?D3DXPlaneDotCoord@@YAMPBUD3DXPLANE@@PBUD3DXVECTOR3@@@Z 10027169 f i D3dx8:d3dxmath.obj
 0001:00026189       ?D3DXPlaneDotNormal@@YAMPBUD3DXPLANE@@PBUD3DXVECTOR3@@@Z 10027189 f i D3dx8:d3dxmath.obj
 0001:000261a6       _D3DXMatrixOrthoOffCenterRH@28 100271a6 f   D3dx8:d3dxmath.obj
 0001:00026248       _D3DXMatrixOrthoOffCenterLH@28 10027248 f   D3dx8:d3dxmath.obj
 0001:000262ec       ?init_D3DXMatrixShadow@@YGPAUD3DXMATRIX@@PAU1@PBUD3DXVECTOR4@@PBUD3DXPLANE@@@Z 100272ec f   D3dx8:d3dxmath.obj
 0001:000262f9       _D3DXMatrixShadow@12       100272f9 f   D3dx8:d3dxmath.obj
 0001:000262ff       ?init_D3DXMatrixReflect@@YGPAUD3DXMATRIX@@PAU1@PBUD3DXPLANE@@@Z 100272ff f   D3dx8:d3dxmath.obj
 0001:0002630c       _D3DXMatrixReflect@8       1002730c f   D3dx8:d3dxmath.obj
 0001:00026312       ?init_D3DXQuaternionToAxisAngle@@YGXPBUD3DXQUATERNION@@PAUD3DXVECTOR3@@PAM@Z 10027312 f   D3dx8:d3dxmath.obj
 0001:0002631f       _D3DXQuaternionToAxisAngle@12 1002731f f   D3dx8:d3dxmath.obj
 0001:00026325       ?c_D3DXQuaternionToAxisAngle@@YGXPBUD3DXQUATERNION@@PAUD3DXVECTOR3@@PAM@Z 10027325 f   D3dx8:d3dxmath.obj
 0001:000263c2       ?init_D3DXQuaternionRotationMatrix@@YGPAUD3DXQUATERNION@@PAU1@PBUD3DXMATRIX@@@Z 100273c2 f   D3dx8:d3dxmath.obj
 0001:000263cf       _D3DXQuaternionRotationMatrix@8 100273cf f   D3dx8:d3dxmath.obj
 0001:000263d5       ?c_D3DXQuaternionRotationMatrix@@YGPAUD3DXQUATERNION@@PAU1@PBUD3DXMATRIX@@@Z 100273d5 f   D3dx8:d3dxmath.obj
 0001:00026509       ?init_D3DXQuaternionRotationAxis@@YGPAUD3DXQUATERNION@@PAU1@PBUD3DXVECTOR3@@M@Z 10027509 f   D3dx8:d3dxmath.obj
 0001:00026529       _D3DXQuaternionRotationAxis@12 10027529 f   D3dx8:d3dxmath.obj
 0001:0002652f       ?c_D3DXQuaternionRotationAxis@@YGPAUD3DXQUATERNION@@PAU1@PBUD3DXVECTOR3@@M@Z 1002752f f   D3dx8:d3dxmath.obj
 0001:0002658b       ?init_D3DXQuaternionRotationYawPitchRoll@@YGPAUD3DXQUATERNION@@PAU1@MMM@Z 1002758b f   D3dx8:d3dxmath.obj
 0001:000265b9       _D3DXQuaternionRotationYawPitchRoll@16 100275b9 f   D3dx8:d3dxmath.obj
 0001:000265bf       ?c_D3DXQuaternionRotationYawPitchRoll@@YGPAUD3DXQUATERNION@@PAU1@MMM@Z 100275bf f   D3dx8:d3dxmath.obj
 0001:00026698       ?init_D3DXQuaternionMultiply@@YGPAUD3DXQUATERNION@@PAU1@PBU1@1@Z 10027698 f   D3dx8:d3dxmath.obj
 0001:000266a5       _D3DXQuaternionMultiply@12 100276a5 f   D3dx8:d3dxmath.obj
 0001:000266ab       ?c_D3DXQuaternionMultiply@@YGPAUD3DXQUATERNION@@PAU1@PBU1@1@Z 100276ab f   D3dx8:d3dxmath.obj
 0001:00026741       ?init_D3DXQuaternionNormalize@@YGPAUD3DXQUATERNION@@PAU1@PBU1@@Z 10027741 f   D3dx8:d3dxmath.obj
 0001:0002674e       _D3DXQuaternionNormalize@8 1002774e f   D3dx8:d3dxmath.obj
 0001:00026754       ?c_D3DXQuaternionNormalize@@YGPAUD3DXQUATERNION@@PAU1@PBU1@@Z 10027754 f   D3dx8:d3dxmath.obj
 0001:0002680d       ?init_D3DXQuaternionInverse@@YGPAUD3DXQUATERNION@@PAU1@PBU1@@Z 1002780d f   D3dx8:d3dxmath.obj
 0001:0002681a       _D3DXQuaternionInverse@8   1002781a f   D3dx8:d3dxmath.obj
 0001:00026820       ?c_D3DXQuaternionInverse@@YGPAUD3DXQUATERNION@@PAU1@PBU1@@Z 10027820 f   D3dx8:d3dxmath.obj
 0001:000268d4       ?init_D3DXQuaternionLn@@YGPAUD3DXQUATERNION@@PAU1@PBU1@@Z 100278d4 f   D3dx8:d3dxmath.obj
 0001:000268e1       _D3DXQuaternionLn@8        100278e1 f   D3dx8:d3dxmath.obj
 0001:000268e7       ?c_D3DXQuaternionLn@@YGPAUD3DXQUATERNION@@PAU1@PBU1@@Z 100278e7 f   D3dx8:d3dxmath.obj
 0001:00026965       ?init_D3DXQuaternionExp@@YGPAUD3DXQUATERNION@@PAU1@PBU1@@Z 10027965 f   D3dx8:d3dxmath.obj
 0001:00026972       _D3DXQuaternionExp@8       10027972 f   D3dx8:d3dxmath.obj
 0001:00026978       ?c_D3DXQuaternionExp@@YGPAUD3DXQUATERNION@@PAU1@PBU1@@Z 10027978 f   D3dx8:d3dxmath.obj
 0001:00026a13       ?init_D3DXQuaternionSlerp@@YGPAUD3DXQUATERNION@@PAU1@PBU1@1M@Z 10027a13 f   D3dx8:d3dxmath.obj
 0001:00026a37       _D3DXQuaternionSlerp@16    10027a37 f   D3dx8:d3dxmath.obj
 0001:00026a3d       ?c_D3DXQuaternionSlerp@@YGPAUD3DXQUATERNION@@PAU1@PBU1@1M@Z 10027a3d f   D3dx8:d3dxmath.obj
 0001:00026b20       ?init_D3DXQuaternionSquad@@YGPAUD3DXQUATERNION@@PAU1@PBU1@111M@Z 10027b20 f   D3dx8:d3dxmath.obj
 0001:00026b4a       _D3DXQuaternionSquad@24    10027b4a f   D3dx8:d3dxmath.obj
 0001:00026b50       ?c_D3DXQuaternionSquad@@YGPAUD3DXQUATERNION@@PAU1@PBU1@111M@Z 10027b50 f   D3dx8:d3dxmath.obj
 0001:00026ba7       ?init_D3DXQuaternionSquadSetup@@YGXPAUD3DXQUATERNION@@00PBU1@111@Z 10027ba7 f   D3dx8:d3dxmath.obj
 0001:00026bb8       _D3DXQuaternionSquadSetup@28 10027bb8 f   D3dx8:d3dxmath.obj
 0001:00026bbe       ?init_D3DXQuaternionBaryCentric@@YGPAUD3DXQUATERNION@@PAU1@PBU1@11MM@Z 10027bbe f   D3dx8:d3dxmath.obj
 0001:00026bed       _D3DXQuaternionBaryCentric@24 10027bed f   D3dx8:d3dxmath.obj
 0001:00026bf3       ?c_D3DXQuaternionBaryCentric@@YGPAUD3DXQUATERNION@@PAU1@PBU1@11MM@Z 10027bf3 f   D3dx8:d3dxmath.obj
 0001:00026c7e       ?init_D3DXPlaneNormalize@@YGPAUD3DXPLANE@@PAU1@PBU1@@Z 10027c7e f   D3dx8:d3dxmath.obj
 0001:00026c8b       _D3DXPlaneNormalize@8      10027c8b f   D3dx8:d3dxmath.obj
 0001:00026c91       ?c_D3DXPlaneNormalize@@YGPAUD3DXPLANE@@PAU1@PBU1@@Z 10027c91 f   D3dx8:d3dxmath.obj
 0001:00026d35       ?init_D3DXPlaneIntersectLine@@YGPAUD3DXVECTOR3@@PAU1@PBUD3DXPLANE@@PBU1@2@Z 10027d35 f   D3dx8:d3dxmath.obj
 0001:00026d42       _D3DXPlaneIntersectLine@16 10027d42 f   D3dx8:d3dxmath.obj
 0001:00026d48       ?c_D3DXPlaneIntersectLine@@YGPAUD3DXVECTOR3@@PAU1@PBUD3DXPLANE@@PBU1@2@Z 10027d48 f   D3dx8:d3dxmath.obj
 0001:00026dea       ?init_D3DXPlaneFromPointNormal@@YGPAUD3DXPLANE@@PAU1@PBUD3DXVECTOR3@@1@Z 10027dea f   D3dx8:d3dxmath.obj
 0001:00026df7       _D3DXPlaneFromPointNormal@12 10027df7 f   D3dx8:d3dxmath.obj
 0001:00026dfd       ?c_D3DXPlaneFromPointNormal@@YGPAUD3DXPLANE@@PAU1@PBUD3DXVECTOR3@@1@Z 10027dfd f   D3dx8:d3dxmath.obj
 0001:00026e35       ?init_D3DXPlaneFromPoints@@YGPAUD3DXPLANE@@PAU1@PBUD3DXVECTOR3@@11@Z 10027e35 f   D3dx8:d3dxmath.obj
 0001:00026e42       _D3DXPlaneFromPoints@16    10027e42 f   D3dx8:d3dxmath.obj
 0001:00026e48       ?c_D3DXPlaneFromPoints@@YGPAUD3DXPLANE@@PAU1@PBUD3DXVECTOR3@@11@Z 10027e48 f   D3dx8:d3dxmath.obj
 0001:00026eea       ?init_D3DXPlaneTransform@@YGPAUD3DXPLANE@@PAU1@PBU1@PBUD3DXMATRIX@@@Z 10027eea f   D3dx8:d3dxmath.obj
 0001:00026ef7       _D3DXPlaneTransform@12     10027ef7 f   D3dx8:d3dxmath.obj
 0001:00026efd       ?c_D3DXPlaneTransform@@YGPAUD3DXPLANE@@PAU1@PBU1@PBUD3DXMATRIX@@@Z 10027efd f   D3dx8:d3dxmath.obj
 0001:00026f9c       _D3DXColorAdjustSaturation@12 10027f9c f   D3dx8:d3dxmath.obj
 0001:00026ff4       _D3DXColorAdjustContrast@12 10027ff4 f   D3dx8:d3dxmath.obj
 0001:0002703d       _D3DXFresnelTerm@8         1002803d f   D3dx8:d3dxmath.obj
 0001:0002710b       ?c_D3DXVec2Normalize@@YGPAUD3DXVECTOR2@@PAU1@PBU1@@Z 1002810b f   D3dx8:d3dxmath.obj
 0001:00027198       ?c_D3DXVec2Transform@@YGPAUD3DXVECTOR4@@PAU1@PBUD3DXVECTOR2@@PBUD3DXMATRIX@@@Z 10028198 f   D3dx8:d3dxmath.obj
 0001:00027203       ?c_D3DXVec2TransformCoord@@YGPAUD3DXVECTOR2@@PAU1@PBU1@PBUD3DXMATRIX@@@Z 10028203 f   D3dx8:d3dxmath.obj
 0001:00027283       ?c_D3DXVec2TransformNormal@@YGPAUD3DXVECTOR2@@PAU1@PBU1@PBUD3DXMATRIX@@@Z 10028283 f   D3dx8:d3dxmath.obj
 0001:000272bf       ?c_D3DXVec3Normalize@@YGPAUD3DXVECTOR3@@PAU1@PBU1@@Z 100282bf f   D3dx8:d3dxmath.obj
 0001:0002735f       ?c_D3DXVec3TransformCoord@@YGPAUD3DXVECTOR3@@PAU1@PBU1@PBUD3DXMATRIX@@@Z 1002835f f   D3dx8:d3dxmath.obj
 0001:0002741e       ?c_D3DXVec3Project@@YGPAUD3DXVECTOR3@@PAU1@PBU1@PBU_D3DVIEWPORT8@@PBUD3DXMATRIX@@33@Z 1002841e f   D3dx8:d3dxmath.obj
 0001:000275ab       ?c_D3DXVec3Unproject@@YGPAUD3DXVECTOR3@@PAU1@PBU1@PBU_D3DVIEWPORT8@@PBUD3DXMATRIX@@33@Z 100285ab f   D3dx8:d3dxmath.obj
 0001:00027751       ?c_D3DXVec4Normalize@@YGPAUD3DXVECTOR4@@PAU1@PBU1@@Z 10028751 f   D3dx8:d3dxmath.obj
 0001:0002780a       ??DD3DXQUATERNION@@QBE?AU0@ABU0@@Z 1002880a f i D3dx8:d3dxmath.obj
 0001:00027831       ?c_D3DXMatrixRotationYawPitchRoll@@YGPAUD3DXMATRIX@@PAU1@MMM@Z 10028831 f   D3dx8:d3dxmath.obj
 0001:0002786a       ?c_D3DXMatrixTransformation@@YGPAUD3DXMATRIX@@PAU1@PBUD3DXVECTOR3@@PBUD3DXQUATERNION@@1121@Z 1002886a f   D3dx8:d3dxmath.obj
 0001:00027b1e       ?c_D3DXMatrixShadow@@YGPAUD3DXMATRIX@@PAU1@PBUD3DXVECTOR4@@PBUD3DXPLANE@@@Z 10028b1e f   D3dx8:d3dxmath.obj
 0001:00027bf8       ?c_D3DXMatrixReflect@@YGPAUD3DXMATRIX@@PAU1@PBUD3DXPLANE@@@Z 10028bf8 f   D3dx8:d3dxmath.obj
 0001:00027cb7       ?c_D3DXQuaternionSquadSetup@@YGXPAUD3DXQUATERNION@@00PBU1@111@Z 10028cb7 f   D3dx8:d3dxmath.obj
 0001:00028091       ??0CD3DXFile@@QAE@XZ       10029091 f   D3dx8:cd3dxfile.obj
 0001:000280a3       ?Open@CD3DXFile@@QAEJPBXH@Z 100290a3 f   D3dx8:cd3dxfile.obj
 0001:000281b3       ?Create@CD3DXFile@@QAEJPBXH@Z 100291b3 f   D3dx8:cd3dxfile.obj
 0001:0002827d       ?Close@CD3DXFile@@QAEJXZ   1002927d f   D3dx8:cd3dxfile.obj
 0001:000282be       ??1CD3DXFile@@QAE@XZ       100292be f   D3dx8:cd3dxfile.obj
 0001:000282c9       ??0CD3DXResource@@QAE@XZ   100292c9 f   D3dx8:cd3dxresource.obj
 0001:000282d6       ??1CD3DXResource@@QAE@XZ   100292d6 f   D3dx8:cd3dxresource.obj
 0001:000282e4       ?Close@CD3DXResource@@QAEJXZ 100292e4 f   D3dx8:cd3dxresource.obj
 0001:00028303       ?Open@CD3DXResource@@QAEJPAUHINSTANCE__@@PBXHH@Z 10029303 f   D3dx8:cd3dxresource.obj
 0001:00028391       ?jpeg_CreateDecompress@D3DX@@YAXPAUjpeg_decompress_struct@1@HI@Z 10029391 f   D3dx8:jdapimin.obj
 0001:00028451       ?jpeg_destroy_decompress@D3DX@@YAXPAUjpeg_decompress_struct@1@@Z 10029451 f   D3dx8:jdapimin.obj
 0001:00028456       ?jpeg_abort_decompress@D3DX@@YAXPAUjpeg_decompress_struct@1@@Z 10029456 f   D3dx8:jdapimin.obj
 0001:0002845b       ?jpeg_set_marker_processor@D3DX@@YAXPAUjpeg_decompress_struct@1@HP6AE0@Z@Z 1002945b f   D3dx8:jdapimin.obj
 0001:0002862b       ?jpeg_consume_input@D3DX@@YAHPAUjpeg_decompress_struct@1@@Z 1002962b f   D3dx8:jdapimin.obj
 0001:000286c5       ?jpeg_input_complete@D3DX@@YAEPAUjpeg_decompress_struct@1@@Z 100296c5 f   D3dx8:jdapimin.obj
 0001:000286fd       ?jpeg_has_multiple_scans@D3DX@@YAEPAUjpeg_decompress_struct@1@@Z 100296fd f   D3dx8:jdapimin.obj
 0001:00028735       ?jpeg_finish_decompress@D3DX@@YAEPAUjpeg_decompress_struct@1@@Z 10029735 f   D3dx8:jdapimin.obj
 0001:000287dc       ?jpeg_read_header@D3DX@@YAHPAUjpeg_decompress_struct@1@E@Z 100297dc f   D3dx8:jdapimin.obj
 0001:000288e8       ?jpeg_read_scanlines@D3DX@@YAIPAUjpeg_decompress_struct@1@PAPAEI@Z 100298e8 f   D3dx8:jdapistd.obj
 0001:0002896c       ?jpeg_read_raw_data@D3DX@@YAIPAUjpeg_decompress_struct@1@PAPAPAEI@Z 1002996c f   D3dx8:jdapistd.obj
 0001:00028a09       ?jpeg_start_output@D3DX@@YAEPAUjpeg_decompress_struct@1@H@Z 10029a09 f   D3dx8:jdapistd.obj
 0001:00028a63       ?jpeg_finish_output@D3DX@@YAEPAUjpeg_decompress_struct@1@@Z 10029a63 f   D3dx8:jdapistd.obj
 0001:00028ae0       ?jpeg_start_decompress@D3DX@@YAEPAUjpeg_decompress_struct@1@@Z 10029ae0 f   D3dx8:jdapistd.obj
 0001:00028bfd       ?_asm_isMMX@@YAHXZ         10029bfd f   D3dx8:cpudetect.obj
 0001:00028c22       ?isMMXprocessor@@YAHXZ     10029c22 f   D3dx8:cpudetect.obj
 0001:00028e4c       _D3DXCpuOptimizations@4    10029e4c f   D3dx8:cpudetect.obj
 0001:0002a47a       ?jpeg_resync_to_restart@D3DX@@YAEPAUjpeg_decompress_struct@1@H@Z 1002b47a f   D3dx8:jdmarker.obj
 0001:0002a593       ?jinit_marker_reader@D3DX@@YAXPAUjpeg_decompress_struct@1@@Z 1002b593 f   D3dx8:jdmarker.obj
 0001:0002a721       ?jpeg_std_error@D3DX@@YAPAUjpeg_error_mgr@1@PAU21@@Z 1002b721 f   D3dx8:jerror.obj
 0001:0002a801       ?png_set_error_fn@D3DX@@YAXPAUpng_struct_def@1@PAXP6AX0PBD@Z3@Z 1002b801 f   D3dx8:pngerror.obj
 0001:0002a81b       ?png_get_error_ptr@D3DX@@YAPAXPAUpng_struct_def@1@@Z 1002b81b f   D3dx8:pngerror.obj
 0001:0002a823       ?png_error@D3DX@@YAXPAUpng_struct_def@1@PBD@Z 1002b823 f   D3dx8:pngerror.obj
 0001:0002a841       ?png_warning@D3DX@@YAXPAUpng_struct_def@1@PBD@Z 1002b841 f   D3dx8:pngerror.obj
 0001:0002a856       ?png_chunk_error@D3DX@@YAXPAUpng_struct_def@1@PBD@Z 1002b856 f   D3dx8:pngerror.obj
 0001:0002a87b       ?png_chunk_warning@D3DX@@YAXPAUpng_struct_def@1@PBD@Z 1002b87b f   D3dx8:pngerror.obj
 0001:0002a8a0       ?png_create_read_struct@D3DX@@YAPAUpng_struct_def@1@PBDPAXP6AXPAU21@0@Z3@Z 1002b8a0 f   D3dx8:pngread.obj
 0001:0002a9a3       ?png_read_init@D3DX@@YAXPAUpng_struct_def@1@@Z 1002b9a3 f   D3dx8:pngread.obj
 0001:0002aa63       ?png_read_info@D3DX@@YAXPAUpng_struct_def@1@PAUpng_info_struct@1@@Z 1002ba63 f   D3dx8:pngread.obj
 0001:0002abd6       ?png_read_update_info@D3DX@@YAXPAUpng_struct_def@1@PAUpng_info_struct@1@@Z 1002bbd6 f   D3dx8:pngread.obj
 0001:0002abf6       ?png_start_read_image@D3DX@@YAXPAUpng_struct_def@1@@Z 1002bbf6 f   D3dx8:pngread.obj
 0001:0002ac08       ?png_read_row@D3DX@@YAXPAUpng_struct_def@1@PAE1@Z 1002bc08 f   D3dx8:pngread.obj
 0001:0002afaf       ?png_read_rows@D3DX@@YAXPAUpng_struct_def@1@PAPAE1K@Z 1002bfaf f   D3dx8:pngread.obj
 0001:0002b029       ?png_read_image@D3DX@@YAXPAUpng_struct_def@1@PAPAE@Z 1002c029 f   D3dx8:pngread.obj
 0001:0002b076       ?png_read_end@D3DX@@YAXPAUpng_struct_def@1@PAUpng_info_struct@1@@Z 1002c076 f   D3dx8:pngread.obj
 0001:0002b176       ?png_read_destroy@D3DX@@YAXPAUpng_struct_def@1@PAUpng_info_struct@1@1@Z 1002c176 f   D3dx8:pngread.obj
 0001:0002b299       ?png_set_read_status_fn@D3DX@@YAXPAUpng_struct_def@1@P6AX0KH@Z@Z 1002c299 f   D3dx8:pngread.obj
 0001:0002b2a8       ?png_destroy_read_struct@D3DX@@YAXPAPAUpng_struct_def@1@PAPAUpng_info_struct@1@1@Z 1002c2a8 f   D3dx8:pngread.obj
 0001:0002b329       ?png_get_valid@D3DX@@YAKPAUpng_struct_def@1@PAUpng_info_struct@1@K@Z 1002c329 f   D3dx8:pngget.obj
 0001:0002b343       ?png_get_rowbytes@D3DX@@YAKPAUpng_struct_def@1@PAUpng_info_struct@1@@Z 1002c343 f   D3dx8:pngget.obj
 0001:0002b359       ?png_get_channels@D3DX@@YAEPAUpng_struct_def@1@PAUpng_info_struct@1@@Z 1002c359 f   D3dx8:pngget.obj
 0001:0002b36f       ?png_get_signature@D3DX@@YAPAEPAUpng_struct_def@1@PAUpng_info_struct@1@@Z 1002c36f f   D3dx8:pngget.obj
 0001:0002b385       ?png_get_gAMA@D3DX@@YAKPAUpng_struct_def@1@PAUpng_info_struct@1@PAN@Z 1002c385 f   D3dx8:pngget.obj
 0001:0002b3ae       ?png_get_sRGB@D3DX@@YAKPAUpng_struct_def@1@PAUpng_info_struct@1@PAH@Z 1002c3ae f   D3dx8:pngget.obj
 0001:0002b3d9       ?png_get_IHDR@D3DX@@YAKPAUpng_struct_def@1@PAUpng_info_struct@1@PAK2PAH3333@Z 1002c3d9 f   D3dx8:pngget.obj
 0001:0002b4aa       ?png_get_PLTE@D3DX@@YAKPAUpng_struct_def@1@PAUpng_info_struct@1@PAPAUpng_color_struct@1@PAH@Z 1002c4aa f   D3dx8:pngget.obj
 0001:0002b4dd       ?png_get_tRNS@D3DX@@YAKPAUpng_struct_def@1@PAUpng_info_struct@1@PAPAEPAHPAPAUpng_color_16_struct@1@@Z 1002c4dd f   D3dx8:pngget.obj
 0001:0002b544       ?png_set_bgr@D3DX@@YAXPAUpng_struct_def@1@@Z 1002c544 f   D3dx8:pngtrans.obj
 0001:0002b54d       ?png_set_swap@D3DX@@YAXPAUpng_struct_def@1@@Z 1002c54d f   D3dx8:pngtrans.obj
 0001:0002b55f       ?png_set_packing@D3DX@@YAXPAUpng_struct_def@1@@Z 1002c55f f   D3dx8:pngtrans.obj
 0001:0002b578       ?png_set_shift@D3DX@@YAXPAUpng_struct_def@1@PAUpng_color_8_struct@1@@Z 1002c578 f   D3dx8:pngtrans.obj
 0001:0002b591       ?png_set_interlace_handling@D3DX@@YAHPAUpng_struct_def@1@@Z 1002c591 f   D3dx8:pngtrans.obj
 0001:0002b5aa       ?png_set_filler@D3DX@@YAXPAUpng_struct_def@1@KH@Z 1002c5aa f   D3dx8:pngtrans.obj
 0001:0002b5f7       ?png_do_swap@D3DX@@YAXPAUpng_row_info_struct@1@PAE@Z 1002c5f7 f   D3dx8:pngtrans.obj
 0001:0002b624       ?png_do_bgr@D3DX@@YAXPAUpng_row_info_struct@1@PAE@Z 1002c624 f   D3dx8:pngtrans.obj
 0001:0002b6e3       ?png_set_crc_action@D3DX@@YAXPAUpng_struct_def@1@HH@Z 1002c6e3 f   D3dx8:pngrtran.obj
 0001:0002b762       ?png_set_strip_16@D3DX@@YAXPAUpng_struct_def@1@@Z 1002c762 f   D3dx8:pngrtran.obj
 0001:0002b76b       ?png_set_dither@D3DX@@YAXPAUpng_struct_def@1@PAUpng_color_struct@1@HHPAGH@Z 1002c76b f   D3dx8:pngrtran.obj
 0001:0002bdbe       ?png_set_gamma@D3DX@@YAXPAUpng_struct_def@1@NN@Z 1002cdbe f   D3dx8:pngrtran.obj
 0001:0002bdf4       ?png_set_expand@D3DX@@YAXPAUpng_struct_def@1@@Z 1002cdf4 f   D3dx8:pngrtran.obj
 0001:0002bdfd       ?png_set_palette_to_rgb@D3DX@@YAXPAUpng_struct_def@1@@Z 1002cdfd f   D3dx8:pngrtran.obj
 0001:0002be06       ?png_set_gray_1_2_4_to_8@D3DX@@YAXPAUpng_struct_def@1@@Z 1002ce06 f   D3dx8:pngrtran.obj
 0001:0002be0f       ?png_set_tRNS_to_alpha@D3DX@@YAXPAUpng_struct_def@1@@Z 1002ce0f f   D3dx8:pngrtran.obj
 0001:0002be18       ?png_read_transform_info@D3DX@@YAXPAUpng_struct_def@1@PAUpng_info_struct@1@@Z 1002ce18 f   D3dx8:pngrtran.obj
 0001:0002bf03       ?png_do_unpack@D3DX@@YAXPAUpng_row_info_struct@1@PAE@Z 1002cf03 f   D3dx8:pngrtran.obj
 0001:0002c013       ?png_do_unshift@D3DX@@YAXPAUpng_row_info_struct@1@PAEPAUpng_color_8_struct@1@@Z 1002d013 f   D3dx8:pngrtran.obj
 0001:0002c18a       ?png_do_chop@D3DX@@YAXPAUpng_row_info_struct@1@PAE@Z 1002d18a f   D3dx8:pngrtran.obj
 0001:0002c1ce       ?png_do_read_filler@D3DX@@YAXPAUpng_row_info_struct@1@PAEKK@Z 1002d1ce f   D3dx8:pngrtran.obj
 0001:0002c406       ?png_build_grayscale_palette@D3DX@@YAXHPAUpng_color_struct@1@@Z 1002d406 f   D3dx8:pngrtran.obj
 0001:0002c466       ?png_do_gamma@D3DX@@YAXPAUpng_row_info_struct@1@PAE1PAPAGH@Z 1002d466 f   D3dx8:pngrtran.obj
 0001:0002c7b4       ?png_do_expand_palette@D3DX@@YAXPAUpng_row_info_struct@1@PAEPAUpng_color_struct@1@1H@Z 1002d7b4 f   D3dx8:pngrtran.obj
 0001:0002c9bc       ?png_do_expand@D3DX@@YAXPAUpng_row_info_struct@1@PAEPAUpng_color_16_struct@1@@Z 1002d9bc f   D3dx8:pngrtran.obj
 0001:0002cd0e       ?png_do_dither@D3DX@@YAXPAUpng_row_info_struct@1@PAE11@Z 1002dd0e f   D3dx8:pngrtran.obj
 0001:0002ce1c       ?png_build_gamma_table@D3DX@@YAXPAUpng_struct_def@1@@Z 1002de1c f   D3dx8:pngrtran.obj
 0001:0002d125       ?png_init_read_transformations@D3DX@@YAXPAUpng_struct_def@1@@Z 1002e125 f   D3dx8:pngrtran.obj
 0001:0002d238       ?png_do_read_transformations@D3DX@@YAXPAUpng_struct_def@1@@Z 1002e238 f   D3dx8:pngrtran.obj
 0001:0002d3f0       ?png_set_gAMA@D3DX@@YAXPAUpng_struct_def@1@PAUpng_info_struct@1@N@Z 1002e3f0 f   D3dx8:pngset.obj
 0001:0002d40b       ?png_set_IHDR@D3DX@@YAXPAUpng_struct_def@1@PAUpng_info_struct@1@KKHHHHH@Z 1002e40b f   D3dx8:pngset.obj
 0001:0002d4ac       ?png_set_PLTE@D3DX@@YAXPAUpng_struct_def@1@PAUpng_info_struct@1@PAUpng_color_struct@1@H@Z 1002e4ac f   D3dx8:pngset.obj
 0001:0002d4d0       ?png_set_sRGB@D3DX@@YAXPAUpng_struct_def@1@PAUpng_info_struct@1@H@Z 1002e4d0 f   D3dx8:pngset.obj
 0001:0002d4eb       ?png_set_sRGB_gAMA_and_cHRM@D3DX@@YAXPAUpng_struct_def@1@PAUpng_info_struct@1@H@Z 1002e4eb f   D3dx8:pngset.obj
 0001:0002d524       ?png_set_tRNS@D3DX@@YAXPAUpng_struct_def@1@PAUpng_info_struct@1@PAEHPAUpng_color_16_struct@1@@Z 1002e524 f   D3dx8:pngset.obj
 0001:0002d56b       ?png_permit_empty_plte@D3DX@@YAXPAUpng_struct_def@1@H@Z 1002e56b f   D3dx8:pngset.obj
 0001:0002d57e       ?png_read_data@D3DX@@YAXPAUpng_struct_def@1@PAEI@Z 1002e57e f   D3dx8:pngrio.obj
 0001:0002d5a6       ?png_set_read_fn@D3DX@@YAXPAUpng_struct_def@1@PAXP6AX0PAEI@Z@Z 1002e5a6 f   D3dx8:pngrio.obj
 0001:0002d5e5       ?png_get_header_version@D3DX@@YAPADPAUpng_struct_def@1@@Z 1002e5e5 f   D3dx8:png.obj
 0001:0002d5eb       ?png_set_sig_bytes@D3DX@@YAXPAUpng_struct_def@1@H@Z 1002e5eb f   D3dx8:png.obj
 0001:0002d618       ?png_sig_cmp@D3DX@@YAHPAEII@Z 1002e618 f   D3dx8:png.obj
 0001:0002d660       ?png_check_sig@D3DX@@YAHPAEH@Z 1002e660 f   D3dx8:png.obj
 0001:0002d678       ?png_zalloc@D3DX@@YAPAXPAXII@Z 1002e678 f   D3dx8:png.obj
 0001:0002d6cb       ?png_zfree@D3DX@@YAXPAX0@Z 1002e6cb f   D3dx8:png.obj
 0001:0002d6d0       ?png_reset_crc@D3DX@@YAXPAUpng_struct_def@1@@Z 1002e6d0 f   D3dx8:png.obj
 0001:0002d6e8       ?png_calculate_crc@D3DX@@YAXPAUpng_struct_def@1@PAEI@Z 1002e6e8 f   D3dx8:png.obj
 0001:0002d727       ?png_info_init@D3DX@@YAXPAUpng_info_struct@1@@Z 1002e727 f   D3dx8:png.obj
 0001:0002d735       ?png_info_destroy@D3DX@@YAXPAUpng_struct_def@1@PAUpng_info_struct@1@@Z 1002e735 f   D3dx8:png.obj
 0001:0002d743       ?png_get_io_ptr@D3DX@@YAPAXPAUpng_struct_def@1@@Z 1002e743 f   D3dx8:png.obj
 0001:0002d74b       ?png_get_copyright@D3DX@@YAPADPAUpng_struct_def@1@@Z 1002e74b f   D3dx8:png.obj
 0001:0002d751       ?png_check_version@D3DX@@YAXPAUpng_struct_def@1@@Z 1002e751 f   D3dx8:png.obj
 0001:0002d752       ?png_create_info_struct@D3DX@@YAPAUpng_info_struct@1@PAUpng_struct_def@1@@Z 1002e752 f   D3dx8:png.obj
 0001:0002d778       ?png_destroy_info_struct@D3DX@@YAXPAUpng_struct_def@1@PAPAUpng_info_struct@1@@Z 1002e778 f   D3dx8:png.obj
 0001:0002d898       ?D3DXColorLerp@@YAPAUD3DXCOLOR@@PAU1@PBU1@1M@Z 1002e898 f i D3dx8:dxtn.obj
 0001:0002ea8e       ?D3DXDecodeDXT1@@YAJPAUD3DXCOLOR@@PBE@Z 1002fa8e f   D3dx8:dxtn.obj
 0001:0002ebcc       ?D3DXDecodeDXT3@@YAJPAUD3DXCOLOR@@PBE@Z 1002fbcc f   D3dx8:dxtn.obj
 0001:0002ec4f       ?D3DXDecodeDXT5@@YAJPAUD3DXCOLOR@@PBE@Z 1002fc4f f   D3dx8:dxtn.obj
 0001:0002ed8b       ?D3DXEncodeDXT1@@YAJPAEPBUD3DXCOLOR@@@Z 1002fd8b f   D3dx8:dxtn.obj
 0001:0002eda3       ?D3DXEncodeDXT3@@YAJPAEPBUD3DXCOLOR@@@Z 1002fda3 f   D3dx8:dxtn.obj
 0001:0002eeb7       ?D3DXEncodeDXT5@@YAJPAEPBUD3DXCOLOR@@@Z 1002feb7 f   D3dx8:dxtn.obj
 0001:0002f309       ?D3DXDecodeDXT2@@YAJPAUD3DXCOLOR@@PBE@Z 10030309 f   D3dx8:dxtn.obj
 0001:0002f32c       ?D3DXDecodeDXT4@@YAJPAUD3DXCOLOR@@PBE@Z 1003032c f   D3dx8:dxtn.obj
 0001:0002f34f       ?D3DXEncodeDXT2@@YAJPAEPBUD3DXCOLOR@@@Z 1003034f f   D3dx8:dxtn.obj
 0001:0002f383       ?D3DXEncodeDXT4@@YAJPAEPBUD3DXCOLOR@@@Z 10030383 f   D3dx8:dxtn.obj
 0001:0002f3b7       ?jdiv_round_up@D3DX@@YAJJJ@Z 100303b7 f   D3dx8:jutils.obj
 0001:0002f3c7       ?jround_up@D3DX@@YAJJJ@Z   100303c7 f   D3dx8:jutils.obj
 0001:0002f3df       ?jcopy_sample_rows@D3DX@@YAXPAPAEH0HHI@Z 100303df f   D3dx8:jutils.obj
 0001:0002f426       ?jcopy_block_row@D3DX@@YAXPAY0EA@F0I@Z 10030426 f   D3dx8:jutils.obj
 0001:0002f448       ?jzero_far@D3DX@@YAXPAXI@Z 10030448 f   D3dx8:jutils.obj
 0001:0002f463       ?IsMMX@D3DX@@YAHXZ         10030463 f   D3dx8:jutils.obj
 0001:0002f96d       ?jinit_input_controller@D3DX@@YAXPAUjpeg_decompress_struct@1@@Z 1003096d f   D3dx8:jdinput.obj
 0001:00030323       ?jinit_memory_mgr@D3DX@@YAXPAUjpeg_common_struct@1@@Z 10031323 f   D3dx8:jmemmgr.obj
 0001:000303d7       ?jpeg_abort@D3DX@@YAXPAUjpeg_common_struct@1@@Z 100313d7 f   D3dx8:jcomapi.obj
 0001:000303f9       ?jpeg_destroy@D3DX@@YAXPAUjpeg_common_struct@1@@Z 100313f9 f   D3dx8:jcomapi.obj
 0001:00030414       ?jpeg_alloc_quant_table@D3DX@@YAPAUJQUANT_TBL@1@PAUjpeg_common_struct@1@@Z 10031414 f   D3dx8:jcomapi.obj
 0001:00030430       ?jpeg_alloc_huff_table@D3DX@@YAPAUJHUFF_TBL@1@PAUjpeg_common_struct@1@@Z 10031430 f   D3dx8:jcomapi.obj
 0001:000304bd       ?jpeg_calc_output_dimensions@D3DX@@YAXPAUjpeg_decompress_struct@1@@Z 100314bd f   D3dx8:jdmaster.obj
 0001:00030a16       ?jpeg_new_colormap@D3DX@@YAXPAUjpeg_decompress_struct@1@@Z 10031a16 f   D3dx8:jdmaster.obj
 0001:00030a79       ?jinit_master_decompress@D3DX@@YAXPAUjpeg_decompress_struct@1@@Z 10031a79 f   D3dx8:jdmaster.obj
 0001:00030ab0       ?sse_D3DXInitFastTable@@YAXPAUD3DXFASTTABLE@@@Z 10031ab0 f   D3dx8:ssefasttable.obj
 0001:00030bc0       ?sse2_D3DXInitFastTable@@YAXPAUD3DXFASTTABLE@@@Z 10031bc0 f   D3dx8:ssefasttable2.obj
 0001:00030cd0       ?get_feature_flags@@YAIXZ  10031cd0 f   D3dx8:d3dxmathx3d.obj
 0001:00030da5       ?x3d_D3DXInitFastTable@@YAXPAUD3DXFASTTABLE@@@Z 10031da5 f   D3dx8:d3dxmathx3d.obj
 0001:00030fcb       ?x86_D3DXVec2Transform@@YGPAUD3DXVECTOR4@@PAU1@PBUD3DXVECTOR2@@PBUD3DXMATRIX@@@Z 10031fcb f   D3dx8:d3dxmathx86.obj
 0001:00031034       ?x86_D3DXVec2TransformNormal@@YGPAUD3DXVECTOR2@@PAU1@PBU1@PBUD3DXMATRIX@@@Z 10032034 f   D3dx8:d3dxmathx86.obj
 0001:00031069       ?x86_D3DXVec3Transform@@YGPAUD3DXVECTOR4@@PAU1@PBUD3DXVECTOR3@@PBUD3DXMATRIX@@@Z 10032069 f   D3dx8:d3dxmathx86.obj
 0001:000310f4       ?x86_D3DXVec3TransformNormal@@YGPAUD3DXVECTOR3@@PAU1@PBU1@PBUD3DXMATRIX@@@Z 100320f4 f   D3dx8:d3dxmathx86.obj
 0001:00031153       ?x86_D3DXVec4Transform@@YGPAUD3DXVECTOR4@@PAU1@PBU1@PBUD3DXMATRIX@@@Z 10032153 f   D3dx8:d3dxmathx86.obj
 0001:000311ec       ?TableInvSqrt@@YIMM@Z      100321ec f   D3dx8:d3dxmathx86.obj
 0001:00031231       ?x86_D3DXVec3Normalize@@YGPAUD3DXVECTOR3@@PAU1@PBU1@@Z 10032231 f   D3dx8:d3dxmathx86.obj
 0001:000312fb       ?x86_D3DXMatrixMultiply@@YGPAUD3DXMATRIX@@PAU1@PBU1@1@Z 100322fb f   D3dx8:d3dxmathx86.obj
 0001:000313de       ?x86_D3DXMatrixMultiplyTranspose@@YGPAUD3DXMATRIX@@PAU1@PBU1@1@Z 100323de f   D3dx8:d3dxmathx86.obj
 0001:0003146c       ?x86_D3DXInitFastTable@@YAXPAUD3DXFASTTABLE@@@Z 1003246c f   D3dx8:d3dxmathx86.obj
 0001:000314a8       ?inflateReset@D3DX@@YAHPAUz_stream_s@1@@Z 100324a8 f   D3dx8:inflate.obj
 0001:000314e7       ?inflateEnd@D3DX@@YAHPAUz_stream_s@1@@Z 100324e7 f   D3dx8:inflate.obj
 0001:00031525       ?inflateInit2_@D3DX@@YAHPAUz_stream_s@1@HPBDH@Z 10032525 f   D3dx8:inflate.obj
 0001:0003160a       ?inflateInit_@D3DX@@YAHPAUz_stream_s@1@PBDH@Z 1003260a f   D3dx8:inflate.obj
 0001:00031621       ?inflate@D3DX@@YAHPAUz_stream_s@1@H@Z 10032621 f   D3dx8:inflate.obj
 0001:00031988       ?inflateSetDictionary@D3DX@@YAHPAUz_stream_s@1@PBEI@Z 10032988 f   D3dx8:inflate.obj
 0001:00031a01       ?inflateSync@D3DX@@YAHPAUz_stream_s@1@@Z 10032a01 f   D3dx8:inflate.obj
 0001:00031aaf       ?inflateSyncPoint@D3DX@@YAHPAUz_stream_s@1@@Z 10032aaf f   D3dx8:inflate.obj
 0001:00031ad1       ?png_create_struct@D3DX@@YAPAXH@Z 10032ad1 f   D3dx8:pngmem.obj
 0001:00031b13       ?png_destroy_struct@D3DX@@YAXPAX@Z 10032b13 f   D3dx8:pngmem.obj
 0001:00031b20       ?png_malloc@D3DX@@YAPAXPAUpng_struct_def@1@K@Z 10032b20 f   D3dx8:pngmem.obj
 0001:00031b56       ?png_free@D3DX@@YAXPAUpng_struct_def@1@PAX@Z 10032b56 f   D3dx8:pngmem.obj
 0001:00031b6f       ?png_memcpy_check@D3DX@@YAPAXPAUpng_struct_def@1@PAX1K@Z 10032b6f f   D3dx8:pngmem.obj
 0001:00031b92       ?png_memset_check@D3DX@@YAPAXPAUpng_struct_def@1@PAXHK@Z 10032b92 f   D3dx8:pngmem.obj
 0001:00031bc3       ?png_get_uint_32@D3DX@@YAKPAE@Z 10032bc3 f   D3dx8:pngrutil.obj
 0001:00031be6       ?png_get_uint_16@D3DX@@YAGPAE@Z 10032be6 f   D3dx8:pngrutil.obj
 0001:00031bf9       ?png_crc_read@D3DX@@YAXPAUpng_struct_def@1@PAEI@Z 10032bf9 f   D3dx8:pngrutil.obj
 0001:00031c13       ?png_crc_error@D3DX@@YAHPAUpng_struct_def@1@@Z 10032c13 f   D3dx8:pngrutil.obj
 0001:00031c71       ?png_check_chunk_name@D3DX@@YAXPAUpng_struct_def@1@PAE@Z 10032c71 f   D3dx8:pngrutil.obj
 0001:00031cd3       ?png_combine_row@D3DX@@YAXPAUpng_struct_def@1@PAEH@Z 10032cd3 f   D3dx8:pngrutil.obj
 0001:00031ee9       ?png_do_read_interlace@D3DX@@YAXPAUpng_row_info_struct@1@PAEHK@Z 10032ee9 f   D3dx8:pngrutil.obj
 0001:000321b2       ?png_read_filter_row@D3DX@@YAXPAUpng_struct_def@1@PAUpng_row_info_struct@1@PAE2H@Z 100331b2 f   D3dx8:pngrutil.obj
 0001:0003232d       ?png_read_start_row@D3DX@@YAXPAUpng_struct_def@1@@Z 1003332d f   D3dx8:pngrutil.obj
 0001:000324c9       ?png_crc_finish@D3DX@@YAHPAUpng_struct_def@1@K@Z 100334c9 f   D3dx8:pngrutil.obj
 0001:00032555       ?png_handle_IHDR@D3DX@@YAXPAUpng_struct_def@1@PAUpng_info_struct@1@K@Z 10033555 f   D3dx8:pngrutil.obj
 0001:0003274b       ?png_handle_PLTE@D3DX@@YAXPAUpng_struct_def@1@PAUpng_info_struct@1@K@Z 1003374b f   D3dx8:pngrutil.obj
 0001:00032875       ?png_handle_IEND@D3DX@@YAXPAUpng_struct_def@1@PAUpng_info_struct@1@K@Z 10033875 f   D3dx8:pngrutil.obj
 0001:000328bf       ?png_handle_gAMA@D3DX@@YAXPAUpng_struct_def@1@PAUpng_info_struct@1@K@Z 100338bf f   D3dx8:pngrutil.obj
 0001:000329ca       ?png_handle_sRGB@D3DX@@YAXPAUpng_struct_def@1@PAUpng_info_struct@1@K@Z 100339ca f   D3dx8:pngrutil.obj
 0001:00032ab9       ?png_handle_tRNS@D3DX@@YAXPAUpng_struct_def@1@PAUpng_info_struct@1@K@Z 10033ab9 f   D3dx8:pngrutil.obj
 0001:00032c70       ?png_handle_unknown@D3DX@@YAXPAUpng_struct_def@1@PAUpng_info_struct@1@K@Z 10033c70 f   D3dx8:pngrutil.obj
 0001:00032cba       ?png_read_finish_row@D3DX@@YAXPAUpng_struct_def@1@@Z 10033cba f   D3dx8:pngrutil.obj
 0001:00032ede       ?get_crc_table@D3DX@@YAPBKXZ 10033ede f   D3dx8:crc32.obj
 0001:00032ee4       ?crc32@D3DX@@YAKKPBEI@Z    10033ee4 f   D3dx8:crc32.obj
 0001:00032fed       ?jpeg_get_small@D3DX@@YAPAXPAUjpeg_common_struct@1@I@Z 10033fed f   D3dx8:jmemnobs.obj
 0001:00032ff8       ?jpeg_free_small@D3DX@@YAXPAUjpeg_common_struct@1@PAXI@Z 10033ff8 f   D3dx8:jmemnobs.obj
 0001:00033003       ?jpeg_get_large@D3DX@@YAPAXPAUjpeg_common_struct@1@I@Z 10034003 f   D3dx8:jmemnobs.obj
 0001:0003300e       ?jpeg_free_large@D3DX@@YAXPAUjpeg_common_struct@1@PAXI@Z 1003400e f   D3dx8:jmemnobs.obj
 0001:00033019       ?jpeg_mem_available@D3DX@@YAJPAUjpeg_common_struct@1@JJJ@Z 10034019 f   D3dx8:jmemnobs.obj
 0001:0003301e       ?jpeg_open_backing_store@D3DX@@YAXPAUjpeg_common_struct@1@PAUbacking_store_struct@1@J@Z 1003401e f   D3dx8:jmemnobs.obj
 0001:00033032       ?jpeg_mem_init@D3DX@@YAJPAUjpeg_common_struct@1@@Z 10034032 f   D3dx8:jmemnobs.obj
 0001:00033035       ?jpeg_mem_term@D3DX@@YAXPAUjpeg_common_struct@1@@Z 10034035 f   D3dx8:jmemnobs.obj
 0001:00033574       ?jinit_d_main_controller@D3DX@@YAXPAUjpeg_decompress_struct@1@E@Z 10034574 f   D3dx8:jdmainct.obj
 0001:000341b3       ?jinit_d_coef_controller@D3DX@@YAXPAUjpeg_decompress_struct@1@E@Z 100351b3 f   D3dx8:jdcoefct.obj
 0001:000342ab       ?jpeg_make_d_derived_tbl@D3DX@@YAXPAUjpeg_decompress_struct@1@PAUJHUFF_TBL@1@PAPAUd_derived_tbl@1@@Z 100352ab f   D3dx8:jdhuff.obj
 0001:00034455       ?jpeg_fill_bit_buffer@D3DX@@YAEPAUbitread_working_state@1@JHH@Z 10035455 f   D3dx8:jdhuff.obj
 0001:0003453f       ?jpeg_huff_decode@D3DX@@YAHPAUbitread_working_state@1@JHPAUd_derived_tbl@1@H@Z 1003553f f   D3dx8:jdhuff.obj
 0001:00034b83       ?jinit_huff_decoder@D3DX@@YAXPAUjpeg_decompress_struct@1@@Z 10035b83 f   D3dx8:jdhuff.obj
 0001:00035731       ?jinit_phuff_decoder@D3DX@@YAXPAUjpeg_decompress_struct@1@@Z 10036731 f   D3dx8:jdphuff.obj
 0001:00035949       ?jinit_inverse_dct@D3DX@@YAXPAUjpeg_decompress_struct@1@@Z 10036949 f   D3dx8:jddctmgr.obj
 0001:00035be4       ?jinit_d_post_controller@D3DX@@YAXPAUjpeg_decompress_struct@1@E@Z 10036be4 f   D3dx8:jdpostct.obj
 0001:000360a3       ?jinit_upsampler@D3DX@@YAXPAUjpeg_decompress_struct@1@@Z 100370a3 f   D3dx8:jdsample.obj
 0001:000364d5       ?MYCbCr2RGB@D3DX@@YAXHPAE000@Z 100374d5 f   D3dx8:jdcolor.obj
 0001:00036611       ?MYCbCrA2RGBA@D3DX@@YAXHPAE0000@Z 10037611 f   D3dx8:jdcolor.obj
 0001:0003673f       ?MYCbCrA2RGBALegacy@D3DX@@YAXHPAE0000@Z 1003773f f   D3dx8:jdcolor.obj
 0001:00036a99       ?jinit_color_deconverter@D3DX@@YAXPAUjpeg_decompress_struct@1@@Z 10037a99 f   D3dx8:jdcolor.obj
 0001:00037092       ?jinit_merged_upsampler@D3DX@@YAXPAUjpeg_decompress_struct@1@@Z 10038092 f   D3dx8:jdmerge.obj
 0001:00038054       ?jinit_2pass_quantizer@D3DX@@YAXPAUjpeg_decompress_struct@1@@Z 10039054 f   D3dx8:jquant2.obj
 0001:00038b75       ?jinit_1pass_quantizer@D3DX@@YAXPAUjpeg_decompress_struct@1@@Z 10039b75 f   D3dx8:jquant1.obj
 0001:00038c00       ?sse_D3DXVec2Transform@@YGPAUD3DXVECTOR4@@PAU1@PBUD3DXVECTOR2@@PBUD3DXMATRIX@@@Z 10039c00 f   D3dx8:d3dxmathsse.obj
 0001:00038c40       ?sse_D3DXVec2TransformCoord@@YGPAUD3DXVECTOR2@@PAU1@PBU1@PBUD3DXMATRIX@@@Z 10039c40 f   D3dx8:d3dxmathsse.obj
 0001:00038ca0       ?sse_D3DXVec2TransformNormal@@YGPAUD3DXVECTOR2@@PAU1@PBU1@PBUD3DXMATRIX@@@Z 10039ca0 f   D3dx8:d3dxmathsse.obj
 0001:00038ce0       ?sse_D3DXVec3TransformNormal@@YGPAUD3DXVECTOR3@@PAU1@PBU1@PBUD3DXMATRIX@@@Z 10039ce0 f   D3dx8:d3dxmathsse.obj
 0001:00038da0       ?sse_D3DXVec3Transform@@YGPAUD3DXVECTOR4@@PAU1@PBUD3DXVECTOR3@@PBUD3DXMATRIX@@@Z 10039da0 f   D3dx8:d3dxmathsse.obj
 0001:00038e60       ?sse_D3DXVec3TransformCoord@@YGPAUD3DXVECTOR3@@PAU1@PBU1@PBUD3DXMATRIX@@@Z 10039e60 f   D3dx8:d3dxmathsse.obj
 0001:00038f60       ?sse_D3DXVec4Transform@@YGPAUD3DXVECTOR4@@PAU1@PBU1@PBUD3DXMATRIX@@@Z 10039f60 f   D3dx8:d3dxmathsse.obj
 0001:00039020       ?sse_D3DXMatrixMultiply@@YGPAUD3DXMATRIX@@PAU1@PBU1@1@Z 1003a020 f   D3dx8:d3dxmathsse.obj
 0001:00039170       ?sse_D3DXVec3Normalize@@YGPAUD3DXVECTOR3@@PAU1@PBU1@@Z 1003a170 f   D3dx8:d3dxmathsse.obj
 0001:00039240       ?sse_D3DXPlaneNormalize@@YGPAUD3DXPLANE@@PAU1@PBU1@@Z 1003a240 f   D3dx8:d3dxmathsse.obj
 0001:00039320       ?sse_D3DXVec2Normalize@@YGPAUD3DXVECTOR2@@PAU1@PBU1@@Z 1003a320 f   D3dx8:d3dxmathsse.obj
 0001:000393c0       ?sse_D3DXMatrixInverse@@YGPAUD3DXMATRIX@@PAU1@PAMPBU1@@Z 1003a3c0 f   D3dx8:d3dxmathsse.obj
 0001:00039680       ?sse_D3DXMatrixMultiplyTranspose@@YGPAUD3DXMATRIX@@PAU1@PBU1@1@Z 1003a680 f   D3dx8:d3dxmathsse.obj
 0001:000397e0       ?sse_D3DXVec4Cross@@YGPAUD3DXVECTOR4@@PAU1@PBU1@11@Z 1003a7e0 f   D3dx8:d3dxmathsse.obj
 0001:00039890       ?sse_D3DXVec4Normalize@@YGPAUD3DXVECTOR4@@PAU1@PBU1@@Z 1003a890 f   D3dx8:d3dxmathsse.obj
 0001:00039930       ?sse_D3DXMatrixRotationX@@YGPAUD3DXMATRIX@@PAU1@M@Z 1003a930 f   D3dx8:d3dxmathsse.obj
 0001:000399b0       ?sse_D3DXMatrixRotationY@@YGPAUD3DXMATRIX@@PAU1@M@Z 1003a9b0 f   D3dx8:d3dxmathsse.obj
 0001:00039a40       ?sse_D3DXVec3CatmullRom@@YGPAUD3DXVECTOR3@@PAU1@PBU1@111M@Z 1003aa40 f   D3dx8:d3dxmathsse.obj
 0001:00039b00       ?sse_D3DXVec2CatmullRom@@YGPAUD3DXVECTOR2@@PAU1@PBU1@111M@Z 1003ab00 f   D3dx8:d3dxmathsse.obj
 0001:00039b90       ?sse_D3DXVec4CatmullRom@@YGPAUD3DXVECTOR4@@PAU1@PBU1@111M@Z 1003ab90 f   D3dx8:d3dxmathsse.obj
 0001:00039c40       ?sse_D3DXVec3Hermite@@YGPAUD3DXVECTOR3@@PAU1@PBU1@111M@Z 1003ac40 f   D3dx8:d3dxmathsse.obj
 0001:00039d00       ?sse_D3DXVec4Hermite@@YGPAUD3DXVECTOR4@@PAU1@PBU1@111M@Z 1003ad00 f   D3dx8:d3dxmathsse.obj
 0001:00039da0       ?sse_D3DXVec2Hermite@@YGPAUD3DXVECTOR2@@PAU1@PBU1@111M@Z 1003ada0 f   D3dx8:d3dxmathsse.obj
 0001:00039e30       ?sse_D3DXVec3BaryCentric@@YGPAUD3DXVECTOR3@@PAU1@PBU1@11MM@Z 1003ae30 f   D3dx8:d3dxmathsse.obj
 0001:00039e90       ?sse_D3DXVec4BaryCentric@@YGPAUD3DXVECTOR4@@PAU1@PBU1@11MM@Z 1003ae90 f   D3dx8:d3dxmathsse.obj
 0001:00039ee0       ?sse_D3DXVec2BaryCentric@@YGPAUD3DXVECTOR2@@PAU1@PBU1@11MM@Z 1003aee0 f   D3dx8:d3dxmathsse.obj
 0001:00039f40       ?sse_D3DXPlaneIntersectLine@@YGPAUD3DXVECTOR3@@PAU1@PBUD3DXPLANE@@PBU1@2@Z 1003af40 f   D3dx8:d3dxmathsse.obj
 0001:0003a000       ?sse_D3DXColorAdjustSaturation@@YGPAUD3DXCOLOR@@PAU1@PBU1@M@Z 1003b000 f   D3dx8:d3dxmathsse.obj
 0001:0003a090       ?sse_D3DXMatrixDeterminant@@YGMPBUD3DXMATRIX@@@Z 1003b090 f   D3dx8:d3dxmathsse.obj
 0001:0003a160       ?sse_D3DXPlaneFromPoints@@YGPAUD3DXPLANE@@PAU1@PBUD3DXVECTOR3@@11@Z 1003b160 f   D3dx8:d3dxmathsse.obj
 0001:0003a250       ?sse_D3DXMatrixShadow@@YGPAU_D3DMATRIX@@PAU1@PBUD3DXVECTOR4@@PBUD3DXPLANE@@@Z 1003b250 f   D3dx8:d3dxmathsse.obj
 0001:0003a3e0       ?sse_D3DXMatrixReflect@@YGPAUD3DXMATRIX@@PAU1@PBUD3DXPLANE@@@Z 1003b3e0 f   D3dx8:d3dxmathsse.obj
 0001:0003a4c0       ?sse_D3DXQuaternionMultiply@@YGPAUD3DXQUATERNION@@PAU1@PBU1@1@Z 1003b4c0 f   D3dx8:d3dxquatsse.obj
 0001:0003a550       ?sse_D3DXQuaternionNormalize@@YGPAUD3DXQUATERNION@@PAU1@PBU1@@Z 1003b550 f   D3dx8:d3dxquatsse.obj
 0001:0003a5f0       ?sse_D3DXQuaternionInverse@@YGPAUD3DXQUATERNION@@PAU1@PBU1@@Z 1003b5f0 f   D3dx8:d3dxquatsse.obj
 0001:0003a660       ?sse_D3DXQuaternionRotationMatrix@@YGPAUD3DXQUATERNION@@PAU1@PBUD3DXMATRIX@@@Z 1003b660 f   D3dx8:d3dxquatsse.obj
 0001:0003a780       ?sse_D3DXQuaternionRotationYawPitchRoll@@YGPAUD3DXQUATERNION@@PAU1@MMM@Z 1003b780 f   D3dx8:d3dxquatsse.obj
 0001:0003a850       ?sse2_D3DXVec3TransformNormal@@YGPAUD3DXVECTOR3@@PAU1@PBU1@PBUD3DXMATRIX@@@Z 1003b850 f   D3dx8:d3dxmathsse2.obj
 0001:0003a910       ?sse2_D3DXVec3Transform@@YGPAUD3DXVECTOR4@@PAU1@PBUD3DXVECTOR3@@PBUD3DXMATRIX@@@Z 1003b910 f   D3dx8:d3dxmathsse2.obj
 0001:0003a9d0       ?sse2_D3DXVec3TransformCoord@@YGPAUD3DXVECTOR3@@PAU1@PBU1@PBUD3DXMATRIX@@@Z 1003b9d0 f   D3dx8:d3dxmathsse2.obj
 0001:0003aad0       ?sse2_D3DXVec4Transform@@YGPAUD3DXVECTOR4@@PAU1@PBU1@PBUD3DXMATRIX@@@Z 1003bad0 f   D3dx8:d3dxmathsse2.obj
 0001:0003ab90       ?sse2_D3DXMatrixMultiply@@YGPAUD3DXMATRIX@@PAU1@PBU1@1@Z 1003bb90 f   D3dx8:d3dxmathsse2.obj
 0001:0003ace0       ?sse2_D3DXVec3Normalize@@YGPAUD3DXVECTOR3@@PAU1@PBU1@@Z 1003bce0 f   D3dx8:d3dxmathsse2.obj
 0001:0003adb0       ?sse2_D3DXPlaneNormalize@@YGPAUD3DXPLANE@@PAU1@PBU1@@Z 1003bdb0 f   D3dx8:d3dxmathsse2.obj
 0001:0003ae90       ?sse2_D3DXVec2Normalize@@YGPAUD3DXVECTOR2@@PAU1@PBU1@@Z 1003be90 f   D3dx8:d3dxmathsse2.obj
 0001:0003af30       ?sse2_D3DXMatrixInverse@@YGPAUD3DXMATRIX@@PAU1@PAMPBU1@@Z 1003bf30 f   D3dx8:d3dxmathsse2.obj
 0001:0003b1f0       ?sse2_D3DXMatrixMultiplyTranspose@@YGPAUD3DXMATRIX@@PAU1@PBU1@1@Z 1003c1f0 f   D3dx8:d3dxmathsse2.obj
 0001:0003b350       ?sse2_D3DXVec4Cross@@YGPAUD3DXVECTOR4@@PAU1@PBU1@11@Z 1003c350 f   D3dx8:d3dxmathsse2.obj
 0001:0003b400       ?sse2_D3DXMatrixRotationX@@YGPAUD3DXMATRIX@@PAU1@M@Z 1003c400 f   D3dx8:d3dxmathsse2.obj
 0001:0003b480       ?sse2_D3DXMatrixRotationY@@YGPAUD3DXMATRIX@@PAU1@M@Z 1003c480 f   D3dx8:d3dxmathsse2.obj
 0001:0003b510       ?sse2_D3DXMatrixDeterminant@@YGMPBUD3DXMATRIX@@@Z 1003c510 f   D3dx8:d3dxmathsse2.obj
 0001:0003b5e0       ?sse2_D3DXPlaneFromPoints@@YGPAUD3DXPLANE@@PAU1@PBUD3DXVECTOR3@@11@Z 1003c5e0 f   D3dx8:d3dxmathsse2.obj
 0001:0003b6d0       ?sse2_D3DXMatrixShadow@@YGPAU_D3DMATRIX@@PAU1@PBUD3DXVECTOR4@@PBUD3DXPLANE@@@Z 1003c6d0 f   D3dx8:d3dxmathsse2.obj
 0001:0003b860       ?sse2_D3DXMatrixReflect@@YGPAUD3DXMATRIX@@PAU1@PBUD3DXPLANE@@@Z 1003c860 f   D3dx8:d3dxmathsse2.obj
 0001:0003b940       ?sse2_D3DXQuaternionInverse@@YGPAUD3DXQUATERNION@@PAU1@PBU1@@Z 1003c940 f   D3dx8:d3dxquatsse2.obj
 0001:0003b9b0       ?sse2_QuaternionSlerp@@YGPAUD3DXQUATERNION@@PAU1@PBU1@1M@Z 1003c9b0 f   D3dx8:d3dxquatsse2.obj
 0001:0003bb00       ?sse2_D3DXQuaternionRotationMatrix@@YGPAUD3DXQUATERNION@@PAU1@PBUD3DXMATRIX@@@Z 1003cb00 f   D3dx8:d3dxquatsse2.obj
 0001:0003bc20       ?sse2_D3DXQuaternionRotationYawPitchRoll@@YGPAUD3DXQUATERNION@@PAU1@MMM@Z 1003cc20 f   D3dx8:d3dxquatsse2.obj
 0001:0003bcf0       ?x3d_D3DXQuaternionMultiply@@YGPAUD3DXQUATERNION@@PAU1@PBU1@1@Z 1003ccf0 f   D3dx8:x3d_quat.obj
 0001:0003bd89       ?x3d_D3DXQuaternionNormalize@@YGPAUD3DXQUATERNION@@PAU1@PBU1@@Z 1003cd89 f   D3dx8:x3d_quat.obj
 0001:0003bde6       ?x3d_D3DXQuaternionToAxisAngle@@YGXPBUD3DXQUATERNION@@PAUD3DXVECTOR3@@PAM@Z 1003cde6 f   D3dx8:x3d_quat.obj
 0001:0003be99       ?x3d_D3DXQuaternionRotationMatrix@@YGPAUD3DXQUATERNION@@PAU1@PBUD3DXMATRIX@@@Z 1003ce99 f   D3dx8:x3d_quat.obj
 0001:0003c0b5       ?x3d_D3DXQuaternionRotationMatrix_K7@@YGPAUD3DXQUATERNION@@PAU1@PBUD3DXMATRIX@@@Z 1003d0b5 f   D3dx8:x3d_quat.obj
 0001:0003c2ca       ?x3d_D3DXQuaternionRotationYawPitchRoll@@YGPAUD3DXQUATERNION@@PAU1@MMM@Z 1003d2ca f   D3dx8:x3d_quat.obj
 0001:0003c38f       ?x3d_D3DXQuaternionRotationAxis@@YGPAUD3DXQUATERNION@@PAU1@PBUD3DXVECTOR3@@M@Z 1003d38f f   D3dx8:x3d_quat.obj
 0001:0003c3fb       ?x3d_D3DXQuaternionSlerp@@YGPAUD3DXQUATERNION@@PAU1@PBU1@1M@Z 1003d3fb f   D3dx8:x3d_quat.obj
 0001:0003c532       ?x3d_D3DXQuaternionBaryCentric@@YGPAUD3DXQUATERNION@@PAU1@PBU1@11MM@Z 1003d532 f   D3dx8:x3d_quat.obj
 0001:0003c5bf       ?x3d_D3DXQuaternionSquad@@YGPAUD3DXQUATERNION@@PAU1@PBU1@111M@Z 1003d5bf f   D3dx8:x3d_quat.obj
 0001:0003c651       ?x3d_D3DXQuaternionInverse@@YGPAUD3DXQUATERNION@@PAU1@PBU1@@Z 1003d651 f   D3dx8:x3d_quat.obj
 0001:0003c6b5       ?x3d_D3DXQuaternionLn@@YGPAUD3DXQUATERNION@@PAU1@PBU1@@Z 1003d6b5 f   D3dx8:x3d_quat.obj
 0001:0003c75c       ?x3d_D3DXQuaternionExp@@YGPAUD3DXQUATERNION@@PAU1@PBU1@@Z 1003d75c f   D3dx8:x3d_quat.obj
 0001:0003c801       ?x3d_D3DXQuaternionExp_K7@@YGPAUD3DXQUATERNION@@PAU1@PBU1@@Z 1003d801 f   D3dx8:x3d_quat.obj
 0001:0003c8a3       ?x3d_D3DXQuaternionSquadSetup@@YGXPAUD3DXQUATERNION@@00PBU1@111@Z 1003d8a3 f   D3dx8:x3d_quat.obj
 0001:0003d2fc       ?x3d_D3DXMatrixMultiply@@YGPAUD3DXMATRIX@@PAU1@PBU1@1@Z 1003e2fc f   D3dx8:x3d_matx.obj
 0001:0003d52e       ?x3d_D3DXMatrixfDeterminant@@YGMPBUD3DXMATRIX@@@Z 1003e52e f   D3dx8:x3d_matx.obj
 0001:0003d5fd       ?x3d_D3DXMatrixTranslation@@YGPAUD3DXMATRIX@@PAU1@MMM@Z 1003e5fd f   D3dx8:x3d_matx.obj
 0001:0003d64d       ?x3d_D3DXMatrixShadow@@YGPAUD3DXMATRIX@@PAU1@PBUD3DXVECTOR4@@PBUD3DXPLANE@@@Z 1003e64d f   D3dx8:x3d_matx.obj
 0001:0003d738       ?x3d_D3DXMatrixReflect@@YGPAUD3DXMATRIX@@PAU1@PBUD3DXPLANE@@@Z 1003e738 f   D3dx8:x3d_matx.obj
 0001:0003d814       ?x3d_D3DXMatrixRotationX@@YGPAUD3DXMATRIX@@PAU1@M@Z 1003e814 f   D3dx8:x3d_matx.obj
 0001:0003d877       ?x3d_D3DXMatrixRotationY@@YGPAUD3DXMATRIX@@PAU1@M@Z 1003e877 f   D3dx8:x3d_matx.obj
 0001:0003d8d5       ?x3d_D3DXMatrixRotationZ@@YGPAUD3DXMATRIX@@PAU1@M@Z 1003e8d5 f   D3dx8:x3d_matx.obj
 0001:0003d92e       ?x3d_D3DXMatrixScaling@@YGPAUD3DXMATRIX@@PAU1@MMM@Z 1003e92e f   D3dx8:x3d_matx.obj
 0001:0003d975       ?x3d_D3DXMatrixTranspose@@YGPAUD3DXMATRIX@@PAU1@PBU1@@Z 1003e975 f   D3dx8:x3d_matx.obj
 0001:0003d9e4       ?x3d_D3DXMatrixIdentity@@YAPAUD3DXMATRIX@@PAU1@@Z 1003e9e4 f   D3dx8:x3d_matx.obj
 0001:0003da1d       ?x3d_D3DXMatrixRotationQuaternion@@YGPAUD3DXMATRIX@@PAU1@PBUD3DXQUATERNION@@@Z 1003ea1d f   D3dx8:x3d_matx.obj
 0001:0003daef       ?x3d_D3DXMatrixRotationQuaternion_K7@@YGPAUD3DXMATRIX@@PAU1@PBUD3DXQUATERNION@@@Z 1003eaef f   D3dx8:x3d_matx.obj
 0001:0003dba4       ?x3d_D3DXMatrixTransformation@@YGPAUD3DXMATRIX@@PAU1@PBUD3DXVECTOR3@@PBUD3DXQUATERNION@@1121@Z 1003eba4 f   D3dx8:x3d_matx.obj
 0001:0003ed3c       ?x3d_D3DXMatrixRotationYawPitchRoll@@YGPAUD3DXMATRIX@@PAU1@MMM@Z 1003fd3c f   D3dx8:x3d_matx.obj
 0001:0003eee1       ?x3d_D3DXMatrixAffineTransformation@@YGPAUD3DXMATRIX@@PAU1@MPBUD3DXVECTOR3@@PBUD3DXQUATERNION@@1@Z 1003fee1 f   D3dx8:x3d_matx.obj
 0001:0003f415       ?x3d_D3DXMatrixRotationAxis@@YGPAUD3DXMATRIX@@PAU1@PBUD3DXVECTOR3@@M@Z 10040415 f   D3dx8:x3d_matx.obj
 0001:0003f52e       ?x3d_D3DXMatrixLookAtLH@@YGPAUD3DXMATRIX@@PAU1@PBUD3DXVECTOR3@@11@Z 1004052e f   D3dx8:x3d_matx.obj
 0001:0003f71d       ?x3d_D3DXMatrixLookAtRH@@YGPAUD3DXMATRIX@@PAU1@PBUD3DXVECTOR3@@11@Z 1004071d f   D3dx8:x3d_matx.obj
 0001:0003f90c       ?x3d_D3DXMatrixTransformation_K7@@YGPAUD3DXMATRIX@@PAU1@PBUD3DXVECTOR3@@PBUD3DXQUATERNION@@1121@Z 1004090c f   D3dx8:x3d_matx.obj
 0001:00040a60       ?x3d_D3DXMatrixInverse_K7@@YGPAUD3DXMATRIX@@PAU1@PAMPBU1@@Z 10041a60 f   D3dx8:x3d_matx.obj
 0001:00040d42       ?x3d_D3DXMatrixMultiplyTranspose@@YGPAUD3DXMATRIX@@PAU1@PBU1@1@Z 10041d42 f   D3dx8:x3d_matx.obj
 0001:0004113a       ?x3d_D3DXMatrixInverse_inline@@YGPAUD3DXMATRIX@@PAU1@PAMPBU1@@Z 1004213a f i D3dx8:x3d_matx.obj
 0001:0004146e       ?x3d_D3DXMatrixInverse@@YGPAUD3DXMATRIX@@PAU1@PAMPBU1@@Z 1004246e f   D3dx8:x3d_matx.obj
 0001:0004148a       ?x3d_D3DXVec3Transform@@YGPAUD3DXVECTOR4@@PAU1@PBUD3DXVECTOR3@@PBUD3DXMATRIX@@@Z 1004248a f   D3dx8:x3d_vec3.obj
 0001:000414fb       ?x3d_D3DXVec3TransformNormal@@YGPAUD3DXVECTOR3@@PAU1@PBU1@PBUD3DXMATRIX@@@Z 100424fb f   D3dx8:x3d_vec3.obj
 0001:00041562       ?x3d_D3DXVec3Normalize@@YGPAUD3DXVECTOR3@@PAU1@PBU1@@Z 10042562 f   D3dx8:x3d_vec3.obj
 0001:000415c1       ?x3d_D3DXVec3BaryCentric@@YGPAUD3DXVECTOR3@@PAU1@PBU1@11MM@Z 100425c1 f   D3dx8:x3d_vec3.obj
 0001:00041632       ?x3d_D3DXVec3Hermite@@YGPAUD3DXVECTOR3@@PAU1@PBU1@111M@Z 10042632 f   D3dx8:x3d_vec3.obj
 0001:00041706       ?x3d_D3DXVec3CatmullRom@@YGPAUD3DXVECTOR3@@PAU1@PBU1@111M@Z 10042706 f   D3dx8:x3d_vec3.obj
 0001:000417f0       ?x3d_D3DXVec3TransformCoord_inline@@YGPAUD3DXVECTOR3@@PAU1@PBU1@PBUD3DXMATRIX@@@Z 100427f0 f i D3dx8:x3d_vec3.obj
 0001:0004187b       ?x3d_D3DXMatrixMultiply_inline@@YGPAUD3DXMATRIX@@PAU1@PBU1@1@Z 1004287b f i D3dx8:x3d_vec3.obj
 0001:00041a42       ?x3d_D3DXVec3TransformCoord@@YGPAUD3DXVECTOR3@@PAU1@PBU1@PBUD3DXMATRIX@@@Z 10042a42 f   D3dx8:x3d_vec3.obj
 0001:00041a47       ?x3d_D3DXVec3Project@@YGPAUD3DXVECTOR3@@PAU1@PBU1@PBU_D3DVIEWPORT8@@PBUD3DXMATRIX@@33@Z 10042a47 f   D3dx8:x3d_vec3.obj
 0001:00041bcf       ?x3d_D3DXVec3Unproject@@YGPAUD3DXVECTOR3@@PAU1@PBU1@PBU_D3DVIEWPORT8@@PBUD3DXMATRIX@@33@Z 10042bcf f   D3dx8:x3d_vec3.obj
 0001:00041df5       ?x3d_D3DXVec3Unproject_K7@@YGPAUD3DXVECTOR3@@PAU1@PBU1@PBU_D3DVIEWPORT8@@PBUD3DXMATRIX@@33@Z 10042df5 f   D3dx8:x3d_vec3.obj
 0001:00041f48       ?x3d_D3DXVec2Transform@@YGPAUD3DXVECTOR4@@PAU1@PBUD3DXVECTOR2@@PBUD3DXMATRIX@@@Z 10042f48 f   D3dx8:x3d_vec2.obj
 0001:00041f9d       ?x3d_D3DXVec2TransformNormal@@YGPAUD3DXVECTOR2@@PAU1@PBU1@PBUD3DXMATRIX@@@Z 10042f9d f   D3dx8:x3d_vec2.obj
 0001:00041fd6       ?x3d_D3DXVec2TransformCoord@@YGPAUD3DXVECTOR2@@PAU1@PBU1@PBUD3DXMATRIX@@@Z 10042fd6 f   D3dx8:x3d_vec2.obj
 0001:0004203a       ?x3d_D3DXVec2Hermite@@YGPAUD3DXVECTOR2@@PAU1@PBU1@111M@Z 1004303a f   D3dx8:x3d_vec2.obj
 0001:000420d2       ?x3d_D3DXVec2BaryCentric@@YGPAUD3DXVECTOR2@@PAU1@PBU1@11MM@Z 100430d2 f   D3dx8:x3d_vec2.obj
 0001:0004211b       ?x3d_D3DXVec2Normalize@@YGPAUD3DXVECTOR2@@PAU1@PBU1@@Z 1004311b f   D3dx8:x3d_vec2.obj
 0001:0004215e       ?x3d_D3DXVec2CatmullRom@@YGPAUD3DXVECTOR2@@PAU1@PBU1@111M@Z 1004315e f   D3dx8:x3d_vec2.obj
 0001:00042209       ?x3d_D3DXVec4Transform@@YGPAUD3DXVECTOR4@@PAU1@PBU1@PBUD3DXMATRIX@@@Z 10043209 f   D3dx8:x3d_vec4.obj
 0001:0004228b       ?x3d_D3DXVec4Normalize@@YGPAUD3DXVECTOR4@@PAU1@PBU1@@Z 1004328b f   D3dx8:x3d_vec4.obj
 0001:000422ea       ?x3d_D3DXVec4Cross@@YGPAUD3DXVECTOR4@@PAU1@PBU1@11@Z 100432ea f   D3dx8:x3d_vec4.obj
 0001:0004241c       ?x3d_D3DXVec4BaryCentric@@YGPAUD3DXVECTOR4@@PAU1@PBU1@11MM@Z 1004341c f   D3dx8:x3d_vec4.obj
 0001:0004248d       ?x3d_D3DXVec4Hermite@@YGPAUD3DXVECTOR4@@PAU1@PBU1@111M@Z 1004348d f   D3dx8:x3d_vec4.obj
 0001:00042555       ?x3d_D3DXVec4CatmullRom@@YGPAUD3DXVECTOR4@@PAU1@PBU1@111M@Z 10043555 f   D3dx8:x3d_vec4.obj
 0001:00042633       ?x3d_D3DXPlaneFromPointNormal@@YGPAUD3DXPLANE@@PAU1@PBUD3DXVECTOR3@@1@Z 10043633 f   D3dx8:x3d_plane.obj
 0001:00042676       ?x3d_D3DXPlaneFromPoints@@YGPAUD3DXPLANE@@PAU1@PBUD3DXVECTOR3@@11@Z 10043676 f   D3dx8:x3d_plane.obj
 0001:0004275a       ?x3d_D3DXPlaneIntersectLine@@YGPAUD3DXVECTOR3@@PAU1@PBUD3DXPLANE@@PBU1@2@Z 1004375a f   D3dx8:x3d_plane.obj
 0001:00042818       ?x3d_D3DXPlaneNormalize@@YGPAUD3DXPLANE@@PAU1@PBU1@@Z 10043818 f   D3dx8:x3d_plane.obj
 0001:0004287c       ?x3d_D3DXPlaneTransform@@YGPAUD3DXPLANE@@PAU1@PBU1@PBUD3DXMATRIX@@@Z 1004387c f   D3dx8:x3d_plane.obj
 0001:000428fa       ?x3d_D3DXColorAdjustContrast@@YGPAUD3DXCOLOR@@PAU1@PBU1@M@Z 100438fa f   D3dx8:x3d_plane.obj
 0001:0004294f       ?x3d_D3DXColorAdjustSaturation@@YGPAUD3DXCOLOR@@PAU1@PBU1@M@Z 1004394f f   D3dx8:x3d_plane.obj
 0001:000429bb       ?inflate_blocks_reset@D3DX@@YAXPAUinflate_blocks_state@1@PAUz_stream_s@1@PAK@Z 100439bb f   D3dx8:infblock.obj
 0001:00042a26       ?inflate_blocks_new@D3DX@@YAPAUinflate_blocks_state@1@PAUz_stream_s@1@P6AKKPBEI@ZI@Z 10043a26 f   D3dx8:infblock.obj
 0001:00042ab3       ?inflate_blocks@D3DX@@YAHPAUinflate_blocks_state@1@PAUz_stream_s@1@H@Z 10043ab3 f   D3dx8:infblock.obj
 0001:0004324e       ?inflate_blocks_free@D3DX@@YAHPAUinflate_blocks_state@1@PAUz_stream_s@1@@Z 1004424e f   D3dx8:infblock.obj
 0001:00043282       ?inflate_set_dictionary@D3DX@@YAXPAUinflate_blocks_state@1@PBEI@Z 10044282 f   D3dx8:infblock.obj
 0001:000432b3       ?inflate_blocks_sync_point@D3DX@@YAHPAUinflate_blocks_state@1@@Z 100442b3 f   D3dx8:infblock.obj
 0001:000432c0       ?adler32@D3DX@@YAKKPBEI@Z  100442c0 f   D3dx8:adler32.obj
 0001:000433d9       ?zlibVersion@D3DX@@YAPBDXZ 100443d9 f   D3dx8:zutil.obj
 0001:000433df       ?zError@D3DX@@YAPBDH@Z     100443df f   D3dx8:zutil.obj
 0001:000433f0       ?zcalloc@D3DX@@YAPAXPAXII@Z 100443f0 f   D3dx8:zutil.obj
 0001:00043400       ?zcfree@D3DX@@YAXPAX0@Z    10044400 f   D3dx8:zutil.obj
 0001:0004340b       ?jpeg_idct_4x4@D3DX@@YAXPAUjpeg_decompress_struct@1@PAUjpeg_component_info@1@PAFPAPAEI@Z 1004440b f   D3dx8:jidctred.obj
 0001:00043720       ?jpeg_idct_2x2@D3DX@@YAXPAUjpeg_decompress_struct@1@PAUjpeg_component_info@1@PAFPAPAEI@Z 10044720 f   D3dx8:jidctred.obj
 0001:000438de       ?jpeg_idct_1x1@D3DX@@YAXPAUjpeg_decompress_struct@1@PAUjpeg_component_info@1@PAFPAPAEI@Z 100448de f   D3dx8:jidctred.obj
 0001:0004391b       ?jpeg_idct_islow@D3DX@@YAXPAUjpeg_decompress_struct@1@PAUjpeg_component_info@1@PAFPAPAEI@Z 1004491b f   D3dx8:jidctint.obj
 0001:00043967       ?jpeg_idct_ifast@D3DX@@YAXPAUjpeg_decompress_struct@1@PAUjpeg_component_info@1@PAFPAPAEI@Z 10044967 f   D3dx8:jidctfst.obj
 0001:000439b3       ?jpeg_idct_float@D3DX@@YAXPAUjpeg_decompress_struct@1@PAUjpeg_component_info@1@PAFPAPAEI@Z 100449b3 f   D3dx8:jidctflt.obj
 0001:00043da0       ?vmlsAcos4@@YAXQBMQAM@Z    10044da0 f   D3dx8:d3dxtrigsse.obj
 0001:00043f50       ?acos2_ss@@YAXMPAM@Z       10044f50 f   D3dx8:d3dxtrigsse.obj
 0001:00044060       ?sse_sin4@@YG_K_K@Z        10045060 f   D3dx8:d3dxtrigsse.obj
 0001:000441e0       ?sse_sincos@@YG_K_K@Z      100451e0 f   D3dx8:d3dxtrigsse.obj
 0001:00044370       ?sse_SinCos4@@YAXQBMQAM1@Z 10045370 f   D3dx8:d3dxtrigsse.obj
 0001:00044560       ?sse2_atan2@@YA_KQBM0@Z    10045560 f   D3dx8:d3dxtrigsse2.obj
 0001:00044a50       ?sse2_sincos@@YG_K_K@Z     10045a50 f   D3dx8:d3dxtrigsse2.obj
 0001:00044b40       ?sse2_SinCos4@@YAXQBMQAM1@Z 10045b40 f   D3dx8:d3dxtrigsse2.obj
 0001:00044cc0       _a_atan                    10045cc0 f   D3dx8:math.obj
 0001:00044d80       _a_atan2                   10045d80 f   D3dx8:math.obj
 0001:00044e80       _a_acos                    10045e80 f   D3dx8:math.obj
 0001:00044f80       _a_asin                    10045f80 f   D3dx8:math.obj
 0001:00045080       _a_log                     10046080 f   D3dx8:math.obj
 0001:00045180       _a_log10                   10046180 f   D3dx8:math.obj
 0001:000451a0       _a_exp                     100461a0 f   D3dx8:math.obj
 0001:00045280       _a_sqrt                    10046280 f   D3dx8:math.obj
 0001:000452a0       _a_fabs                    100462a0 f   D3dx8:math.obj
 0001:000452c0       _a_ceil                    100462c0 f   D3dx8:math.obj
 0001:00045300       _a_floor                   10046300 f   D3dx8:math.obj
 0001:00045340       _a_frexp                   10046340 f   D3dx8:math.obj
 0001:00045380       _a_ldexp                   10046380 f   D3dx8:math.obj
 0001:000453e0       _a_modf                    100463e0 f   D3dx8:math.obj
 0001:00045400       _a_fmod                    10046400 f   D3dx8:math.obj
 0001:00045460       _a_sincos                  10046460 f   D3dx8:math.obj
 0001:00045460       _a_cos                     10046460 f   D3dx8:math.obj
 0001:00045580       _a_sin                     10046580 f   D3dx8:math.obj
 0001:000456a0       _a_tan                     100466a0 f   D3dx8:math.obj
 0001:000457e0       _a_pow                     100467e0 f   D3dx8:math.obj
 0001:00045978       ?inflate_codes_new@D3DX@@YAPAUinflate_codes_state@1@IIPAUinflate_huft_s@1@0PAUz_stream_s@1@@Z 10046978 f   D3dx8:infcodes.obj
 0001:000459ac       ?inflate_codes@D3DX@@YAHPAUinflate_blocks_state@1@PAUz_stream_s@1@H@Z 100469ac f   D3dx8:infcodes.obj
 0001:00045f10       ?inflate_codes_free@D3DX@@YAXPAUinflate_codes_state@1@PAUz_stream_s@1@@Z 10046f10 f   D3dx8:infcodes.obj
 0001:000462a6       ?inflate_trees_bits@D3DX@@YAHPAI0PAPAUinflate_huft_s@1@PAU21@PAUz_stream_s@1@@Z 100472a6 f   D3dx8:inftrees.obj
 0001:00046325       ?inflate_trees_dynamic@D3DX@@YAHIIPAI00PAPAUinflate_huft_s@1@1PAU21@PAUz_stream_s@1@@Z 10047325 f   D3dx8:inftrees.obj
 0001:00046428       ?inflate_trees_fixed@D3DX@@YAHPAI0PAPAUinflate_huft_s@1@1PAUz_stream_s@1@@Z 10047428 f   D3dx8:inftrees.obj
 0001:00046457       ?inflate_flush@D3DX@@YAHPAUinflate_blocks_state@1@PAUz_stream_s@1@H@Z 10047457 f   D3dx8:infutil.obj
 0001:0004656c       ?pidct8x8llm@D3DX@@YAXPAF00PAPAEIPAE@Z 1004756c f   D3dx8:piint.obj
 0001:000469ce       ?midct8x8llm@D3DX@@YAXPAF00PAPAEIPAE@Z 100479ce f   D3dx8:miint.obj
 0001:00047086       ?pidct8x8aan@D3DX@@YAXPAF00PAPAEIPAE@Z 10048086 f   D3dx8:pifst.obj
 0001:000473e1       ?midct8x8aan@D3DX@@YAXPAF00PAPAEIPAE@Z 100483e1 f   D3dx8:mifst.obj
 0001:000481b4       ?inflate_fast@D3DX@@YAHIIPAUinflate_huft_s@1@0PAUinflate_blocks_state@1@PAUz_stream_s@1@@Z 100491b4 f   D3dx8:inffast.obj
 0001:0004846a       _DeleteObject@4            1004946a f   gdi32:GDI32.dll
 0001:00048470       _RegCloseKey@4             10049470 f   Advapi32:ADVAPI32.dll
 0001:00048476       _RegQueryValueExA@24       10049476 f   Advapi32:ADVAPI32.dll
 0001:0004847c       _RegOpenKeyA@12            1004947c f   Advapi32:ADVAPI32.dll
 0001:00048490       ?CustomAssertFunc@Error@@YG_N_NPAD1H1PA_N@Z 10049490 f   System:Error_types.obj
 0001:00048590       ?CustomWarnFunc@Error@@YGXPADH0@Z 10049590 f   System:Error_types.obj
 0001:00048640       ?MakePrintfWindow@Error@@YGXXZ 10049640 f   System:Error_types.obj
 0001:00048670       ?FindCustomPrintf@Error@@YGXXZ 10049670 f   System:Error_types.obj
 0001:000486a0       ?CustomPrintfFunc@Error@@YAXPADZZ 100496a0 f   System:Error_types.obj
 0001:000487b0       ?CustomPrintfWindowScrollUp@Error@@YGXXZ 100497b0 f   System:Error_types.obj
 0001:000487e0       ?CustomPrintfWindowScrollDown@Error@@YGXXZ 100497e0 f   System:Error_types.obj
 0001:00048810       ?CustomPrintfWindowToggleHide@Error@@YGXXZ 10049810 f   System:Error_types.obj
 0001:00048840       ?PIII_Mult44@@YGXPAM00@Z   10049840 f   System:Matrix.obj
 0001:00048960       ?PIII_Mult44Vec4@@YGXPAM00@Z 10049960 f   System:Matrix.obj
 0001:000489b0       ??DMatrix44@@QBE?AUVector4@@ABU1@@Z 100499b0 f   System:Matrix.obj
 0001:00048b00       ??DMatrix44@@QBE?AU0@ABU0@@Z 10049b00 f   System:Matrix.obj
 0001:00048c50       ?RotationAA@Matrix44@@QAEXMMMM@Z 10049c50 f   System:Matrix.obj
 0001:00048c80       ??0Vector2@@QAE@XZ         10049c80 f   System:Matrix.obj
 0001:00048cc0       ??0Vector2@@QAE@MM@Z       10049cc0 f   System:Matrix.obj
 0001:00048d00       ??0Vector2@@QAE@ABU0@@Z    10049d00 f   System:Matrix.obj
 0001:00048d50       ??HVector2@@QBE?AU0@XZ     10049d50 f   System:Matrix.obj
 0001:00048dc0       ??GVector2@@QBE?AU0@XZ     10049dc0 f   System:Matrix.obj
 0001:00048e40       ??HVector2@@QBE?AU0@ABU0@@Z 10049e40 f   System:Matrix.obj
 0001:00048ec0       ??GVector2@@QBE?AU0@ABU0@@Z 10049ec0 f   System:Matrix.obj
 0001:00048f40       ??KVector2@@QBE?AU0@M@Z    10049f40 f   System:Matrix.obj
 0001:00048fd0       ??DVector2@@QBE?AU0@M@Z    10049fd0 f   System:Matrix.obj
 0001:00049050       ??DVector2@@QBE?AU0@ABU0@@Z 1004a050 f   System:Matrix.obj
 0001:000490d0       ??4Vector2@@QAEXABU0@@Z    1004a0d0 f   System:Matrix.obj
 0001:00049120       ??YVector2@@QAEXABU0@@Z    1004a120 f   System:Matrix.obj
 0001:000491d0       ??ZVector2@@QAEXABU0@@Z    1004a1d0 f   System:Matrix.obj
 0001:00049280       ??XVector2@@QAEXM@Z        1004a280 f   System:Matrix.obj
 0001:00049330       ??XVector2@@QAEXABU0@@Z    1004a330 f   System:Matrix.obj
 0001:000493e0       ??_0Vector2@@QAEXM@Z       1004a3e0 f   System:Matrix.obj
 0001:00049490       ??8Vector2@@QAEHABU0@@Z    1004a490 f   System:Matrix.obj
 0001:00049500       ??9Vector2@@QAEHABU0@@Z    1004a500 f   System:Matrix.obj
 0001:00049550       ??AVector2@@QAEAAMH@Z      1004a550 f   System:Matrix.obj
 0001:00049590       ??AVector2@@QBEAAMH@Z      1004a590 f   System:Matrix.obj
 0001:000495d0       ?Set@Vector2@@QAEXMM@Z     1004a5d0 f   System:Matrix.obj
 0001:00049610       ?Len@Vector2@@QAEMXZ       1004a610 f   System:Matrix.obj
 0001:00049670       _sqrtf@4                   1004a670 f i System:Matrix.obj
 0001:000496c0       ?Lerp@Vector2@@QAEXABU1@0M@Z 1004a6c0 f   System:Matrix.obj
 0001:00049750       ?Normalize@Vector2@@QAEXXZ 1004a750 f   System:Matrix.obj
 0001:000497b0       ?Dot@Vector2@@QAEMABU1@@Z  1004a7b0 f   System:Matrix.obj
 0001:00049800       ??0Vector3@@QAE@XZ         1004a800 f   System:Matrix.obj
 0001:00049850       ??0Vector3@@QAE@MMM@Z      1004a850 f   System:Matrix.obj
 0001:000498a0       ??0Vector3@@QAE@ABU0@@Z    1004a8a0 f   System:Matrix.obj
 0001:000498f0       ??HVector3@@QBE?AU0@XZ     1004a8f0 f   System:Matrix.obj
 0001:00049960       ??GVector3@@QBE?AU0@XZ     1004a960 f   System:Matrix.obj
 0001:000499e0       ??HVector3@@QBE?AU0@ABU0@@Z 1004a9e0 f   System:Matrix.obj
 0001:00049a70       ??GVector3@@QBE?AU0@ABU0@@Z 1004aa70 f   System:Matrix.obj
 0001:00049b00       ??KVector3@@QBE?AU0@M@Z    1004ab00 f   System:Matrix.obj
 0001:00049b90       ??DVector3@@QBE?AU0@M@Z    1004ab90 f   System:Matrix.obj
 0001:00049c20       ??DVector3@@QBE?AU0@ABU0@@Z 1004ac20 f   System:Matrix.obj
 0001:00049cb0       ??4Vector3@@QAEXABU0@@Z    1004acb0 f   System:Matrix.obj
 0001:00049d00       ??4Vector3@@QAEXABUVector4@@@Z 1004ad00 f   System:Matrix.obj
 0001:00049d50       ??YVector3@@QAEXABU0@@Z    1004ad50 f   System:Matrix.obj
 0001:00049e00       ??ZVector3@@QAEXABU0@@Z    1004ae00 f   System:Matrix.obj
 0001:00049eb0       ??XVector3@@QAEXM@Z        1004aeb0 f   System:Matrix.obj
 0001:00049f60       ??XVector3@@QAEXABU0@@Z    1004af60 f   System:Matrix.obj
 0001:0004a010       ??_0Vector3@@QAEXM@Z       1004b010 f   System:Matrix.obj
 0001:0004a0c0       ??8Vector3@@QAEHABU0@@Z    1004b0c0 f   System:Matrix.obj
 0001:0004a150       ??9Vector3@@QAEHABU0@@Z    1004b150 f   System:Matrix.obj
 0001:0004a1a0       ??AVector3@@QAEAAMH@Z      1004b1a0 f   System:Matrix.obj
 0001:0004a1e0       ??AVector3@@QBEAAMH@Z      1004b1e0 f   System:Matrix.obj
 0001:0004a220       ?Set@Vector3@@QAEXMMM@Z    1004b220 f   System:Matrix.obj
 0001:0004a270       ?Dot@Vector3@@QAEMABU1@@Z  1004b270 f   System:Matrix.obj
 0001:0004a2d0       ??1Vector2@@QAE@XZ         1004b2d0 f i System:Matrix.obj
 0001:0004a300       ?Len@Vector3@@QBEMXZ       1004b300 f   System:Matrix.obj
 0001:0004a370       ??1Vector3@@QAE@XZ         1004b370 f i System:Matrix.obj
 0001:0004a3a0       ?Len2@Vector3@@QBEMXZ      1004b3a0 f   System:Matrix.obj
 0001:0004a400       ?Distance@Vector3@@QBEMABU1@@Z 1004b400 f   System:Matrix.obj
 0001:0004a4f0       ??1Matrix44@@QAE@XZ        1004b4f0 f i System:Matrix.obj
 0001:0004a590       ?Distance2@Vector3@@QBEMABU1@@Z 1004b590 f   System:Matrix.obj
 0001:0004a680       ?Lerp@Vector3@@QAEXABU1@0M@Z 1004b680 f   System:Matrix.obj
 0001:0004a720       ?Normalize@Vector3@@QAEMXZ 1004b720 f   System:Matrix.obj
 0001:0004a7c0       ?Cross@Vector3@@QBE?AU1@ABU1@@Z 1004b7c0 f   System:Matrix.obj
 0001:0004a880       ??0Vector4@@QAE@XZ         1004b880 f   System:Matrix.obj
 0001:0004a8e0       ??0Vector4@@QAE@MMMM@Z     1004b8e0 f   System:Matrix.obj
 0001:0004a940       ??0Vector4@@QAE@ABU0@@Z    1004b940 f   System:Matrix.obj
 0001:0004a990       ??HVector4@@QBE?AU0@XZ     1004b990 f   System:Matrix.obj
 0001:0004aa00       ??GVector4@@QBE?AU0@XZ     1004ba00 f   System:Matrix.obj
 0001:0004aa90       ??HVector4@@QBE?AU0@ABU0@@Z 1004ba90 f   System:Matrix.obj
 0001:0004ab30       ??GVector4@@QBE?AU0@ABU0@@Z 1004bb30 f   System:Matrix.obj
 0001:0004abd0       ??KVector4@@QBE?AU0@M@Z    1004bbd0 f   System:Matrix.obj
 0001:0004ac70       ??DVector4@@QBE?AU0@M@Z    1004bc70 f   System:Matrix.obj
 0001:0004ad00       ??DVector4@@QBE?AU0@ABU0@@Z 1004bd00 f   System:Matrix.obj
 0001:0004ada0       ??4Vector4@@QAEXABU0@@Z    1004bda0 f   System:Matrix.obj
 0001:0004ae00       ??4Vector4@@QAEXABUVector3@@@Z 1004be00 f   System:Matrix.obj
 0001:0004ae60       ??YVector4@@QAEXABU0@@Z    1004be60 f   System:Matrix.obj
 0001:0004af10       ??ZVector4@@QAEXABU0@@Z    1004bf10 f   System:Matrix.obj
 0001:0004afc0       ??XVector4@@QAEXM@Z        1004bfc0 f   System:Matrix.obj
 0001:0004b070       ??XVector4@@QAEXABU0@@Z    1004c070 f   System:Matrix.obj
 0001:0004b120       ??_0Vector4@@QAEXM@Z       1004c120 f   System:Matrix.obj
 0001:0004b1d0       ??8Vector4@@QAEHABU0@@Z    1004c1d0 f   System:Matrix.obj
 0001:0004b270       ??9Vector4@@QAEHABU0@@Z    1004c270 f   System:Matrix.obj
 0001:0004b2c0       ??AVector4@@QAEAAMH@Z      1004c2c0 f   System:Matrix.obj
 0001:0004b300       ??AVector4@@QBEAAMH@Z      1004c300 f   System:Matrix.obj
 0001:0004b340       ?Set@Vector4@@QAEXMMMM@Z   1004c340 f   System:Matrix.obj
 0001:0004b390       ?Dot@Vector4@@QAEMABU1@@Z  1004c390 f   System:Matrix.obj
 0001:0004b3f0       ?Cross@Vector4@@QAE?AU1@ABU1@@Z 1004c3f0 f   System:Matrix.obj
 0001:0004b4b0       ?Len@Vector4@@QAEMXZ       1004c4b0 f   System:Matrix.obj
 0001:0004b520       ?LenNoSqr@Vector4@@QAEMXZ  1004c520 f   System:Matrix.obj
 0001:0004b580       ?Lerp@Vector4@@QAEXABU1@0M@Z 1004c580 f   System:Matrix.obj
 0001:0004b6b0       ?Normalize@Vector4@@QAEXXZ 1004c6b0 f   System:Matrix.obj
 0001:0004b720       ?NormalizeH@Vector4@@QAEXXZ 1004c720 f   System:Matrix.obj
 0001:0004b7a0       ??0Matrix44@@QAE@XZ        1004c7a0 f   System:Matrix.obj
 0001:0004b850       ??0Matrix44@@QAE@UVector4@@000@Z 1004c850 f   System:Matrix.obj
 0001:0004b960       ??0Matrix44@@QAE@ABU0@@Z   1004c960 f   System:Matrix.obj
 0001:0004ba10       ??HMatrix44@@QBE?AU0@XZ    1004ca10 f   System:Matrix.obj
 0001:0004ba80       ??GMatrix44@@QBE?AU0@XZ    1004ca80 f   System:Matrix.obj
 0001:0004bbe0       ??HMatrix44@@QBE?AU0@ABU0@@Z 1004cbe0 f   System:Matrix.obj
 0001:0004bd60       ??GMatrix44@@QBE?AU0@ABU0@@Z 1004cd60 f   System:Matrix.obj
 0001:0004bee0       ??KMatrix44@@QBE?AU0@M@Z   1004cee0 f   System:Matrix.obj
 0001:0004c060       ??DMatrix44@@QBE?AU0@M@Z   1004d060 f   System:Matrix.obj
 0001:0004c1d0       ??4Matrix44@@QAEXABU0@@Z   1004d1d0 f   System:Matrix.obj
 0001:0004c250       ??YMatrix44@@QAEXABU0@@Z   1004d250 f   System:Matrix.obj
 0001:0004c300       ??ZMatrix44@@QAEXABU0@@Z   1004d300 f   System:Matrix.obj
 0001:0004c3b0       ??XMatrix44@@QAEXM@Z       1004d3b0 f   System:Matrix.obj
 0001:0004c460       ??XMatrix44@@QAEXABU0@@Z   1004d460 f   System:Matrix.obj
 0001:0004c510       ??_0Matrix44@@QAEXM@Z      1004d510 f   System:Matrix.obj
 0001:0004c5c0       ??8Matrix44@@QAEHABU0@@Z   1004d5c0 f   System:Matrix.obj
 0001:0004c670       ??9Matrix44@@QAEHABU0@@Z   1004d670 f   System:Matrix.obj
 0001:0004c6c0       ??AMatrix44@@QAEAAMH@Z     1004d6c0 f   System:Matrix.obj
 0001:0004c700       ??AMatrix44@@QBEAAMH@Z     1004d700 f   System:Matrix.obj
 0001:0004c740       ?Set@Matrix44@@QAEXUVector4@@000@Z 1004d740 f   System:Matrix.obj
 0001:0004c810       ?Lerp@Matrix44@@QAEXABU1@0M@Z 1004d810 f   System:Matrix.obj
 0001:0004c9e0       ?Identity@Matrix44@@QAEXXZ 1004d9e0 f   System:Matrix.obj
 0001:0004ca70       ?Transform@Matrix44@@QAEXUVector3@@AAU2@@Z 1004da70 f   System:Matrix.obj
 0001:0004cb20       ?Transform@Matrix44@@QAEXUVector4@@AAU2@@Z 1004db20 f   System:Matrix.obj
 0001:0004cbf0       ?Scale@Matrix44@@QAEXMMM@Z 1004dbf0 f   System:Matrix.obj
 0001:0004cc50       ?RotationHPR@Matrix44@@QAEXMMM@Z 1004dc50 f   System:Matrix.obj
 0001:0004d350       _cosf@4                    1004e350 f i System:Matrix.obj
 0001:0004d3a0       _sinf@4                    1004e3a0 f i System:Matrix.obj
 0001:0004d3f0       ?RotateHPR@Matrix44@@QAEXMMM@Z 1004e3f0 f   System:Matrix.obj
 0001:0004dc60       ?RotationXYZ@Matrix44@@QAEXMMM@Z 1004ec60 f   System:Matrix.obj
 0001:0004e360       ?RotateXYZ@Matrix44@@QAEXMMM@Z 1004f360 f   System:Matrix.obj
 0001:0004eb90       ?Inverse@Matrix44@@QAEXXZ  1004fb90 f   System:Matrix.obj
 0001:0004f700       ?Translate@Matrix44@@QAEXMMM@Z 10050700 f   System:Matrix.obj
 0001:0004f770       ?Position@Matrix44@@QAEXMMM@Z 10050770 f   System:Matrix.obj
 0001:0004f7d0       ?LookAt@Matrix44@@QAEXMMM@Z 100507d0 f   System:Matrix.obj
 0001:0004f9d0       ??2@YAPAXI@Z               100509d0 f   libcpd:newop.obj
 0001:0004fa10       ??_U@YAPAXI@Z              10050a10 f   libcpd:newaop.obj
 0001:0004fa30       ?_Xlen@_String_base@std@@QBEXXZ 10050a30 f   libcpd:string.obj
 0001:0004fa90       ?_Xran@_String_base@std@@QBEXXZ 10050a90 f   libcpd:string.obj
 0001:0004faf0       ??$_Allocate@D@std@@YAPADIPAD@Z 10050af0 f i libcpd:string.obj
 0001:0004fb10       ?_Nomemory@std@@YAXXZ      10050b10 f   libcpd:nomemory.obj
 0001:0004fb70       ??0bad_alloc@std@@QAE@PBD@Z 10050b70 f i libcpd:nomemory.obj
 0001:0004fba0       ??1bad_alloc@std@@UAE@XZ   10050ba0 f i libcpd:nomemory.obj
 0001:0004fbc0       ??_Ebad_alloc@std@@UAEPAXI@Z 10050bc0 f i libcpd:nomemory.obj
 0001:0004fbc0       ??_Gbad_alloc@std@@UAEPAXI@Z 10050bc0 f i libcpd:nomemory.obj
 0001:0004fbf0       ??0bad_alloc@std@@QAE@ABV01@@Z 10050bf0 f i libcpd:nomemory.obj
 0001:0004fc20       __RTC_CheckEsp             10050c20 f   LIBCD:stack.obj
 0001:0004fc50       @_RTC_CheckStackVars@8     10050c50 f   LIBCD:stack.obj
 0001:0004fcc0       __RTC_InitBase             10050cc0 f   LIBCD:init.obj
 0001:0004fcf0       __RTC_Shutdown             10050cf0 f   LIBCD:init.obj
 0001:0004fd10       __onexit                   10050d10 f   LIBCD:onexit.obj
 0001:0004fe00       _atexit                    10050e00 f   LIBCD:onexit.obj
 0001:0004fe20       ___onexitinit              10050e20 f   LIBCD:onexit.obj
 0001:0004fe70       ?_JumpToContinuation@@YGXPAXPAUEHRegistrationNode@@@Z 10050e70 f   LIBCD:trnsctrl.obj
 0001:0004feb0       ?_CallMemberFunction0@@YGXPAX0@Z 10050eb0 f   LIBCD:trnsctrl.obj
 0001:0004fec0       ?_CallMemberFunction1@@YGXPAX00@Z 10050ec0 f   LIBCD:trnsctrl.obj
 0001:0004fed0       ?_CallMemberFunction2@@YGXPAX00H@Z 10050ed0 f   LIBCD:trnsctrl.obj
 0001:0004fee0       ?_UnwindNestedFrames@@YGXPAUEHRegistrationNode@@PAUEHExceptionRecord@@@Z 10050ee0 f   LIBCD:trnsctrl.obj
 0001:0004ff40       ___CxxFrameHandler         10050f40 f   LIBCD:trnsctrl.obj
 0001:0004ff80       ___CxxLongjmpUnwind@4      10050f80 f   LIBCD:trnsctrl.obj
 0001:0004ffb0       ?_CallCatchBlock2@@YAPAXPAUEHRegistrationNode@@PBU_s_FuncInfo@@PAXHK@Z 10050fb0 f   LIBCD:trnsctrl.obj
 0001:00050080       ?_CallSETranslator@@YAHPAUEHExceptionRecord@@PAUEHRegistrationNode@@PAX2PBU_s_FuncInfo@@H1@Z 10051080 f   LIBCD:trnsctrl.obj
 0001:00050230       ?_GetRangeOfTrysToCheck@@YAPBU_s_TryBlockMapEntry@@PBU_s_FuncInfo@@HHPAI1@Z 10051230 f   LIBCD:trnsctrl.obj
 0001:000502c0       ?_CreateFrameInfo@@YAPAUFrameInfo@@PAU1@PAX@Z 100512c0 f   LIBCD:trnsctrl.obj
 0001:000502e0       ?IsExceptionObjectToBeDestroyed@@YAHPAX@Z 100512e0 f   LIBCD:trnsctrl.obj
 0001:00050310       ?_FindAndUnlinkFrame@@YAXPAUFrameInfo@@@Z 10051310 f   LIBCD:trnsctrl.obj
 0001:00050358       __global_unwind2           10051358 f   LIBCD:exsup.obj
 0001:0005039a       __local_unwind2            1005139a f   LIBCD:exsup.obj
 0001:000503f2       __NLG_Return2              100513f2     LIBCD:exsup.obj
 0001:00050402       __abnormal_termination     10051402 f   LIBCD:exsup.obj
 0001:00050425       __NLG_Notify1              10051425 f   LIBCD:exsup.obj
 0001:0005042e       __NLG_Notify               1005142e f   LIBCD:exsup.obj
 0001:00050441       __NLG_Dispatch             10051441     LIBCD:exsup.obj
 0001:00050450       __fpmath                   10051450 f   LIBCD:fpinit.obj
 0001:00050480       __fpclear                  10051480 f   LIBCD:fpinit.obj
 0001:00050490       __cfltcvt_init             10051490 f   LIBCD:fpinit.obj
 0001:000504e0       ___setfflag                100514e0 f   LIBCD:fpinit.obj
 0001:00050500       ??3@YAXPAX@Z               10051500 f   LIBCD:dbgdel.obj
 0001:00050580       _memcpy                    10051580 f   LIBCD:memcpy.obj
 0001:000508c0       _strlen                    100518c0 f   LIBCD:strlen.obj
 0001:00050950       _sprintf                   10051950 f   LIBCD:sprintf.obj
 0001:00050a40       __scprintf                 10051a40 f   LIBCD:sprintf.obj
 0001:00050ac0       _sscanf                    10051ac0 f   LIBCD:sscanf.obj
 0001:00050b70       ??_V@YAXPAX@Z              10051b70 f   LIBCD:delete2.obj
 0001:00050b90       _strcmp                    10051b90 f   LIBCD:strcmp.obj
 0001:00050c20       _strcpy                    10051c20 f   LIBCD:strcat.obj
 0001:00050c30       _strcat                    10051c30 f   LIBCD:strcat.obj
 0001:00050d20       __CxxThrowException@8      10051d20 f   LIBCD:throw.obj
 0001:00050d70       ??0exception@@QAE@XZ       10051d70 f   LIBCD:stdexcpt.obj
 0001:00050da0       ??_Eexception@@UAEPAXI@Z   10051da0 f i LIBCD:stdexcpt.obj
 0001:00050da0       ??_Gexception@@UAEPAXI@Z   10051da0 f i LIBCD:stdexcpt.obj
 0001:00050dd0       ??0exception@@QAE@ABQBD@Z  10051dd0 f   LIBCD:stdexcpt.obj
 0001:00050e40       ??0exception@@QAE@ABV0@@Z  10051e40 f   LIBCD:stdexcpt.obj
 0001:00050ec0       ??4exception@@QAEAAV0@ABV0@@Z 10051ec0 f   LIBCD:stdexcpt.obj
 0001:00050ef0       ??1exception@@UAE@XZ       10051ef0 f   LIBCD:stdexcpt.obj
 0001:00050f20       ?what@exception@@UBEPBDXZ  10051f20 f   LIBCD:stdexcpt.obj
 0001:00050f50       ??0bad_cast@@QAE@PBD@Z     10051f50 f   LIBCD:stdexcpt.obj
 0001:00050f80       ??_Ebad_cast@@UAEPAXI@Z    10051f80 f i LIBCD:stdexcpt.obj
 0001:00050f80       ??_Gbad_cast@@UAEPAXI@Z    10051f80 f i LIBCD:stdexcpt.obj
 0001:00050fb0       ??0bad_cast@@QAE@ABV0@@Z   10051fb0 f   LIBCD:stdexcpt.obj
 0001:00050fe0       ??1bad_cast@@UAE@XZ        10051fe0 f   LIBCD:stdexcpt.obj
 0001:00051000       ??0bad_typeid@@QAE@PBD@Z   10052000 f   LIBCD:stdexcpt.obj
 0001:00051030       ??_Gbad_typeid@@UAEPAXI@Z  10052030 f i LIBCD:stdexcpt.obj
 0001:00051030       ??_Ebad_typeid@@UAEPAXI@Z  10052030 f i LIBCD:stdexcpt.obj
 0001:00051060       ??0bad_typeid@@QAE@ABV0@@Z 10052060 f   LIBCD:stdexcpt.obj
 0001:00051090       ??1bad_typeid@@UAE@XZ      10052090 f   LIBCD:stdexcpt.obj
 0001:000510b0       ??0__non_rtti_object@@QAE@PBD@Z 100520b0 f   LIBCD:stdexcpt.obj
 0001:000510e0       ??_E__non_rtti_object@@UAEPAXI@Z 100520e0 f i LIBCD:stdexcpt.obj
 0001:000510e0       ??_G__non_rtti_object@@UAEPAXI@Z 100520e0 f i LIBCD:stdexcpt.obj
 0001:00051110       ??0__non_rtti_object@@QAE@ABV0@@Z 10052110 f   LIBCD:stdexcpt.obj
 0001:00051140       ??1__non_rtti_object@@UAE@XZ 10052140 f   LIBCD:stdexcpt.obj
 0001:00051160       ??1type_info@@UAE@XZ       10052160 f   LIBCD:typinfo.obj
 0001:00051190       ??_Etype_info@@UAEPAXI@Z   10052190 f i LIBCD:typinfo.obj
 0001:00051190       ??_Gtype_info@@UAEPAXI@Z   10052190 f i LIBCD:typinfo.obj
 0001:000511c0       ??8type_info@@QBEHABV0@@Z  100521c0 f   LIBCD:typinfo.obj
 0001:000511f0       ??9type_info@@QBEHABV0@@Z  100521f0 f   LIBCD:typinfo.obj
 0001:00051220       ?before@type_info@@QBEHABV1@@Z 10052220 f   LIBCD:typinfo.obj
 0001:00051250       ?raw_name@type_info@@QBEPBDXZ 10052250 f   LIBCD:typinfo.obj
 0001:00051270       ??0type_info@@AAE@ABV0@@Z  10052270 f   LIBCD:typinfo.obj
 0001:00051290       ??4type_info@@AAEAAV0@ABV0@@Z 10052290 f   LIBCD:typinfo.obj
 0001:000512a0       _memmove                   100522a0 f   LIBCD:memmove.obj
 0001:000515e0       __strlwr                   100525e0 f   LIBCD:strlwr.obj
 0001:00051780       _strtok                    10052780 f   LIBCD:strtok.obj
 0001:000518c0       _memset                    100528c0 f   LIBCD:memset.obj
 0001:00051920       __fsopen                   10052920 f   LIBCD:fopen.obj
 0001:00051a00       _fopen                     10052a00 f   LIBCD:fopen.obj
 0001:00051a20       _fclose                    10052a20 f   LIBCD:fclose.obj
 0001:00051af0       _fread                     10052af0 f   LIBCD:fread.obj
 0001:00051cc0       _ftell                     10052cc0 f   LIBCD:ftell.obj
 0001:00051f30       _fseek                     10052f30 f   LIBCD:fseek.obj
 0001:00052040       __CRT_INIT@12              10053040 f   LIBCD:dllcrt0.obj
 0001:000521d0       __DllMainCRTStartup@12     100531d0 f   LIBCD:dllcrt0.obj
 0001:00052350       __amsg_exit                10053350 f   LIBCD:dllcrt0.obj
 0001:00052390       __EH_prolog                10053390 f   LIBCD:ehprolog.obj
 0001:000523b0       ??_M@YGXPAXIHP6EX0@Z@Z     100533b0 f   LIBCD:ehvecdtr.obj
 0001:00052450       ?__ArrayUnwind@@YGXPAXIHP6EX0@Z@Z 10053450 f   LIBCD:ehvecdtr.obj
 0001:00052500       ??_L@YGXPAXIHP6EX0@Z1@Z    10053500 f   LIBCD:ehvecctr.obj
 0001:000525a0       _longjmp                   100535a0 f   LIBCD:longjmp.obj
 0001:0005261c       __setjmp3                  1005361c f   LIBCD:setjmp3.obj
 0001:000526a0       _isalpha                   100536a0 f   LIBCD:_ctype.obj
 0001:000526e0       _isupper                   100536e0 f   LIBCD:_ctype.obj
 0001:00052720       _islower                   10053720 f   LIBCD:_ctype.obj
 0001:00052760       _isdigit                   10053760 f   LIBCD:_ctype.obj
 0001:000527a0       _isxdigit                  100537a0 f   LIBCD:_ctype.obj
 0001:000527e0       _isspace                   100537e0 f   LIBCD:_ctype.obj
 0001:00052820       _ispunct                   10053820 f   LIBCD:_ctype.obj
 0001:00052860       _isalnum                   10053860 f   LIBCD:_ctype.obj
 0001:000528a0       _isprint                   100538a0 f   LIBCD:_ctype.obj
 0001:000528e0       _isgraph                   100538e0 f   LIBCD:_ctype.obj
 0001:00052920       _iscntrl                   10053920 f   LIBCD:_ctype.obj
 0001:00052960       ___isascii                 10053960 f   LIBCD:_ctype.obj
 0001:00052970       ___toascii                 10053970 f   LIBCD:_ctype.obj
 0001:00052980       ___iscsymf                 10053980 f   LIBCD:_ctype.obj
 0001:000529e0       ___iscsym                  100539e0 f   LIBCD:_ctype.obj
 0001:00052a3c       __ftol                     10053a3c f   LIBCD:ftol.obj
 0001:00052a70       _pow                       10053a70 f   LIBCD:pow.obj
 0001:00052ab0       __CIpow                    10053ab0 f   LIBCD:pow.obj
 0001:00052aeb       __CIpow_default            10053aeb f   LIBCD:pow.obj
 0001:00052b04       __pow_default              10053b04     LIBCD:pow.obj
 0001:00052d00       _floor                     10053d00 f   LIBCD:floor_pentium4.obj
 0001:00052d40       __floor_pentium4           10053d40 f   LIBCD:floor_pentium4.obj
 0001:00052e30       __aullshr                  10053e30 f   LIBCD:ullshr.obj
 0001:00052e50       __CIacos                   10053e50 f   LIBCD:acos.obj
 0001:00052e64       _acos                      10053e64     LIBCD:acos.obj
 0001:00052f20       __copysign                 10053f20 f   LIBCD:ieeemisc.obj
 0001:00052f50       __chgsign                  10053f50 f   LIBCD:ieeemisc.obj
 0001:00052f80       __scalb                    10053f80 f   LIBCD:ieeemisc.obj
 0001:00052fa0       __logb                     10053fa0 f   LIBCD:ieeemisc.obj
 0001:000530d0       __nextafter                100540d0 f   LIBCD:ieeemisc.obj
 0001:00053400       __finite                   10054400 f   LIBCD:ieeemisc.obj
 0001:00053420       __isnan                    10054420 f   LIBCD:ieeemisc.obj
 0001:00053460       __fpclass                  10054460 f   LIBCD:ieeemisc.obj
 0001:00053530       __chkstk                   10054530 f   LIBCD:chkstk.obj
 0001:00053530       __alloca_probe             10054530     LIBCD:chkstk.obj
 0001:00053570       __cinit                    10054570 f   LIBCD:crt0dat.obj
 0001:000535d0       _exit                      100545d0 f   LIBCD:crt0dat.obj
 0001:000535f0       __exit                     100545f0 f   LIBCD:crt0dat.obj
 0001:00053610       __cexit                    10054610 f   LIBCD:crt0dat.obj
 0001:00053630       __c_exit                   10054630 f   LIBCD:crt0dat.obj
 0001:00053730       ___crtExitProcess          10054730 f   LIBCD:crt0dat.obj
 0001:000537f0       _malloc                    100547f0 f   LIBCD:dbgheap.obj
 0001:00053820       __malloc_dbg               10054820 f   LIBCD:dbgheap.obj
 0001:00053850       __nh_malloc                10054850 f   LIBCD:dbgheap.obj
 0001:00053870       __nh_malloc_dbg            10054870 f   LIBCD:dbgheap.obj
 0001:000538c0       __heap_alloc               100548c0 f   LIBCD:dbgheap.obj
 0001:000538e0       __heap_alloc_dbg           100548e0 f   LIBCD:dbgheap.obj
 0001:00053c00       _calloc                    10054c00 f   LIBCD:dbgheap.obj
 0001:00053c30       __calloc_dbg               10054c30 f   LIBCD:dbgheap.obj
 0001:00053c90       _realloc                   10054c90 f   LIBCD:dbgheap.obj
 0001:00053cc0       __realloc_dbg              10054cc0 f   LIBCD:dbgheap.obj
 0001:00054200       __expand                   10055200 f   LIBCD:dbgheap.obj
 0001:00054230       __expand_dbg               10055230 f   LIBCD:dbgheap.obj
 0001:00054260       _free                      10055260 f   LIBCD:dbgheap.obj
 0001:00054280       __free_dbg                 10055280 f   LIBCD:dbgheap.obj
 0001:00054690       __msize                    10055690 f   LIBCD:dbgheap.obj
 0001:000546b0       __msize_dbg                100556b0 f   LIBCD:dbgheap.obj
 0001:000547d0       __CrtSetBreakAlloc         100557d0 f   LIBCD:dbgheap.obj
 0001:000547f0       __CrtSetDbgBlockType       100557f0 f   LIBCD:dbgheap.obj
 0001:00054870       __CrtSetAllocHook          10055870 f   LIBCD:dbgheap.obj
 0001:000548e0       __CrtCheckMemory           100558e0 f   LIBCD:dbgheap.obj
 0001:00054c00       __CrtSetDbgFlag            10055c00 f   LIBCD:dbgheap.obj
 0001:00054c60       __CrtDoForAllClientObjects 10055c60 f   LIBCD:dbgheap.obj
 0001:00054cc0       __CrtIsValidPointer        10055cc0 f   LIBCD:dbgheap.obj
 0001:00054d10       __CrtIsValidHeapPointer    10055d10 f   LIBCD:dbgheap.obj
 0001:00054dc0       __CrtIsMemoryBlock         10055dc0 f   LIBCD:dbgheap.obj
 0001:00054ea0       __CrtReportBlockType       10055ea0 f   LIBCD:dbgheap.obj
 0001:00054ed0       __CrtSetDumpClient         10055ed0 f   LIBCD:dbgheap.obj
 0001:00054ef0       __CrtMemCheckpoint         10055ef0 f   LIBCD:dbgheap.obj
 0001:00055040       __CrtMemDifference         10056040 f   LIBCD:dbgheap.obj
 0001:00055160       __CrtMemDumpAllObjectsSince 10056160 f   LIBCD:dbgheap.obj
 0001:000554e0       __CrtDumpMemoryLeaks       100564e0 f   LIBCD:dbgheap.obj
 0001:00055550       __CrtMemDumpStatistics     10056550 f   LIBCD:dbgheap.obj
 0001:00055600       __aligned_malloc           10056600 f   LIBCD:dbgheap.obj
 0001:00055620       __aligned_malloc_dbg       10056620 f   LIBCD:dbgheap.obj
 0001:00055640       __aligned_realloc          10056640 f   LIBCD:dbgheap.obj
 0001:00055660       __aligned_realloc_dbg      10056660 f   LIBCD:dbgheap.obj
 0001:00055690       __aligned_offset_malloc    10056690 f   LIBCD:dbgheap.obj
 0001:000556b0       __aligned_offset_malloc_dbg 100566b0 f   LIBCD:dbgheap.obj
 0001:000557f0       __aligned_offset_realloc   100567f0 f   LIBCD:dbgheap.obj
 0001:00055820       __aligned_offset_realloc_dbg 10056820 f   LIBCD:dbgheap.obj
 0001:00055a80       __aligned_free             10056a80 f   LIBCD:dbgheap.obj
 0001:00055aa0       __aligned_free_dbg         10056aa0 f   LIBCD:dbgheap.obj
 0001:00055b50       __vsnprintf                10056b50 f   LIBCD:vsnprint.obj
 0001:00055c20       __CIsqrt                   10056c20 f   LIBCD:sqrt.obj
 0001:00055c34       _sqrt                      10056c34     LIBCD:sqrt.obj
 0001:00055ce0       __CIcos                    10056ce0 f   LIBCD:cos.obj
 0001:00055cf4       _cos                       10056cf4     LIBCD:cos.obj
 0001:00055d90       __CIsin                    10056d90 f   LIBCD:sin.obj
 0001:00055da4       _sin                       10056da4     LIBCD:sin.obj
 0001:00055e40       ?_RTC_Failure@@YAXPAXH@Z   10056e40 f   LIBCD:error.obj
 0001:000560a0       ?_RTC_MemFailure@@YAXPAXHPBX@Z 100570a0 f   LIBCD:error.obj
 0001:000562f0       ?_RTC_StackFailure@@YAXPAXPBD@Z 100572f0 f   LIBCD:error.obj
 0001:000563b0       __RTC_UninitUse            100573b0 f   LIBCD:error.obj
 0001:00056570       ?_set_new_handler@@YAP6AHI@ZP6AHI@Z@Z 10057570 f   LIBCD:handler.obj
 0001:00056590       ?_query_new_handler@@YAP6AHI@ZXZ 10057590 f   LIBCD:handler.obj
 0001:000565a0       __callnewh                 100575a0 f   LIBCD:handler.obj
 0001:000565d0       __RTC_NumErrors            100575d0 f   LIBCD:userapi.obj
 0001:000565e0       __RTC_GetErrDesc           100575e0 f   LIBCD:userapi.obj
 0001:00056600       __RTC_SetErrorType         10057600 f   LIBCD:userapi.obj
 0001:00056630       __RTC_SetErrorFunc         10057630 f   LIBCD:userapi.obj
 0001:00056650       ?_RTC_GetErrorFunc@@YAP6AHHPBDH00ZZPBX@Z 10057650 f   LIBCD:userapi.obj
 0001:00056660       __chkesp                   10057660 f   LIBCD:chkesp.obj
 0001:000566a0       __CRT_RTC_INIT             100576a0 f   LIBCD:chkesp.obj
 0001:000566b0       ___InternalCxxFrameHandler 100576b0 f   LIBCD:frame.obj
 0001:00056c10       ___FrameUnwindToState      10057c10 f   LIBCD:frame.obj
 0001:00057340       ___DestructExceptionObject 10058340 f   LIBCD:frame.obj
 0001:00057420       ?__uncaught_exception@@YA_NXZ 10058420 f   LIBCD:frame.obj
 0001:00057440       ___CxxExceptionFilter      10058440 f   LIBCD:frame.obj
 0001:000575d0       ___CxxRegisterExceptionObject 100585d0 f   LIBCD:frame.obj
 0001:000576c0       ___CxxDetectRethrow        100586c0 f   LIBCD:frame.obj
 0001:00057720       ___CxxUnregisterExceptionObject 10058720 f   LIBCD:frame.obj
 0001:000577e0       ___CxxQueryExceptionSize   100587e0 f   LIBCD:frame.obj
 0001:000577f0       ___CxxCallUnwindDtor       100587f0 f   LIBCD:frame.obj
 0001:00057860       ___CxxCallUnwindVecDtor    10058860 f   LIBCD:frame.obj
 0001:000578e0       __CallSettingFrame@12      100588e0 f   LIBCD:lowhelpr.obj
 0001:00057907       __NLG_Return               10058907     LIBCD:lowhelpr.obj
 0001:00057930       ?terminate@@YAXXZ          10058930 f   LIBCD:hooks.obj
 0001:000579a0       ?unexpected@@YAXXZ         100589a0 f   LIBCD:hooks.obj
 0001:000579c0       ?_inconsistency@@YAXXZ     100589c0 f   LIBCD:hooks.obj
 0001:00057a30       __setdefaultprecision      10058a30 f   LIBCD:fp8.obj
 0001:00057a50       __ms_p5_test_fdiv          10058a50 f   LIBCD:testfdiv.obj
 0001:00057aa0       __ms_p5_mp_test_fdiv       10058aa0 f   LIBCD:testfdiv.obj
 0001:00057af0       __forcdecpt                10058af0 f   LIBCD:cvt.obj
 0001:00057ba0       __cropzeros                10058ba0 f   LIBCD:cvt.obj
 0001:00057c80       __positive                 10058c80 f   LIBCD:cvt.obj
 0001:00057cb0       __fassign                  10058cb0 f   LIBCD:cvt.obj
 0001:00057d00       __cftoe                    10058d00 f   LIBCD:cvt.obj
 0001:00057ed0       __cftof                    10058ed0 f   LIBCD:cvt.obj
 0001:00058060       __cftog                    10059060 f   LIBCD:cvt.obj
 0001:000581d0       __cfltcvt                  100591d0 f   LIBCD:cvt.obj
 0001:00058260       __CrtDbgBreak              10059260 f   LIBCD:dbgrpt.obj
 0001:00058270       __CrtSetReportMode         10059270 f   LIBCD:dbgrpt.obj
 0001:000582d0       __CrtSetReportFile         100592d0 f   LIBCD:dbgrpt.obj
 0001:00058350       __CrtSetReportHook         10059350 f   LIBCD:dbgrpt.obj
 0001:00058370       __CrtSetReportHook2        10059370 f   LIBCD:dbgrpt.obj
 0001:00058550       __CrtDbgReport             10059550 f   LIBCD:dbgrpt.obj
 0001:00058c40       __flsbuf                   10059c40 f   LIBCD:_flsbuf.obj
 0001:00058ea0       __output                   10059ea0 f   LIBCD:output.obj
 0001:00059e20       __input                    1005ae20 f   LIBCD:input.obj
 0001:0005b490       ?__CxxUnhandledExceptionFilter@@YGJPAU_EXCEPTION_POINTERS@@@Z 1005c490 f   LIBCD:unhandld.obj
 0001:0005b500       ?__CxxSetUnhandledExceptionFilter@@YAHXZ 1005c500 f   LIBCD:unhandld.obj
 0001:0005b520       ?__CxxRestoreUnhandledExceptionFilter@@YAXXZ 1005c520 f   LIBCD:unhandld.obj
 0001:0005b540       __free_base                1005c540 f   LIBCD:free.obj
 0001:0005b5b0       __resetstkoflw             1005c5b0 f   LIBCD:resetstk.obj
 0001:0005b700       ___crtLCMapStringA         1005c700 f   LIBCD:a_map.obj
 0001:0005bcbc       __except_handler3          1005ccbc f   LIBCD:exsup3.obj
 0001:0005bda2       __seh_longjmp_unwind@4     1005cda2 f   LIBCD:exsup3.obj
 0001:0005bdc0       @__security_check_cookie@4 1005cdc0 f   LIBCD:secchk.obj
 0001:0005be40       __openfile                 1005ce40 f   LIBCD:_open.obj
 0001:0005c1d0       __getstream                1005d1d0 f   LIBCD:stream.obj
 0001:0005c2c0       __close                    1005d2c0 f   LIBCD:close.obj
 0001:0005c3b0       __freebuf                  1005d3b0 f   LIBCD:_freebuf.obj
 0001:0005c440       _fflush                    1005d440 f   LIBCD:fflush.obj
 0001:0005c4a0       __flush                    1005d4a0 f   LIBCD:fflush.obj
 0001:0005c560       __flushall                 1005d560 f   LIBCD:fflush.obj
 0001:0005c650       __filbuf                   1005d650 f   LIBCD:_filbuf.obj
 0001:0005c830       __read                     1005d830 f   LIBCD:read.obj
 0001:0005cc80       __ioinit                   1005dc80 f   LIBCD:ioinit.obj
 0001:0005cf90       __ioterm                   1005df90 f   LIBCD:ioinit.obj
 0001:0005cff0       __lseek                    1005dff0 f   LIBCD:lseek.obj
 0001:0005d0e0       __setenvp                  1005e0e0 f   LIBCD:stdenvp.obj
 0001:0005d260       __setargv                  1005e260 f   LIBCD:stdargv.obj
 0001:0005d6c0       ___heap_select             1005e6c0 f   LIBCD:heapinit.obj
 0001:0005d6f0       __heap_init                1005e6f0 f   LIBCD:heapinit.obj
 0001:0005d760       __heap_term                1005e760 f   LIBCD:heapinit.obj
 0001:0005d810       __get_heap_handle          1005e810 f   LIBCD:heapinit.obj
 0001:0005d820       ___crtGetEnvironmentStringsA 1005e820 f   LIBCD:a_env.obj
 0001:0005da40       __RTC_Initialize           1005ea40 f   LIBCD:initsect.obj
 0001:0005dac0       __RTC_Terminate            1005eac0 f   LIBCD:initsect.obj
 0001:0005db40       ___CppXcptFilter           1005eb40 f   LIBCD:winxfltr.obj
 0001:0005db70       __XcptFilter               1005eb70 f   LIBCD:winxfltr.obj
 0001:0005dd80       _DllMain@12                1005ed80 f   LIBCD:dllmain.obj
 0001:0005ddb0       __FF_MSGBANNER             1005edb0 f   LIBCD:crt0msg.obj
 0001:0005de00       __NMSG_WRITE               1005ee00 f   LIBCD:crt0msg.obj
 0001:0005e010       __GET_RTERRMSG             1005f010 f   LIBCD:crt0msg.obj
 0001:0005e060       __rt_probe_read4@4         1005f060 f   LIBCD:sehsupp.obj
 0001:0005e0f0       __chvalidator              1005f0f0 f   LIBCD:isctype.obj
 0001:0005e130       __isctype                  1005f130 f   LIBCD:isctype.obj
 0001:0005e1f0       ___sse2_available_init     1005f1f0 f   LIBCD:cpu_disp.obj
 0001:0005e380       __set_SSE2_enable          1005f380 f   LIBCD:cpu_disp.obj
 0001:0005e3a0       __CIpow_pentium4           1005f3a0 f   LIBCD:pow_pentium4.obj
 0001:0005e3b9       __pow_pentium4             1005f3b9     LIBCD:pow_pentium4.obj
 0001:0005ef01       __fFEXP                    1005ff01     LIBCD:87tran.obj
 0001:0005ef68       __rtinfpopse               1005ff68     LIBCD:87tran.obj
 0001:0005ef6a       __rtinfnpopse              1005ff6a     LIBCD:87tran.obj
 0001:0005ef7a       __fFLN                     1005ff7a     LIBCD:87tran.obj
 0001:0005f02f       __rtinfpop                 1006002f     LIBCD:87tran.obj
 0001:0005f031       __rtinfnpop                10060031     LIBCD:87tran.obj
 0001:0005f04e       __ffexpm1                  1006004e     LIBCD:87tran.obj
 0001:0005f100       __trandisp1                10060100 f   LIBCD:87disp.obj
 0001:0005f167       __trandisp2                10060167 f   LIBCD:87disp.obj
 0001:0005f1f3       __rttospopde               100601f3     LIBCD:87disp.obj
 0001:0005f1f8       __rttospop                 100601f8     LIBCD:87disp.obj
 0001:0005f1fa       __rtnospop                 100601fa     LIBCD:87disp.obj
 0001:0005f1fc       __rttosnpop                100601fc     LIBCD:87disp.obj
 0001:0005f1fd       __rtnospopde               100601fd     LIBCD:87disp.obj
 0001:0005f204       __rtzeropop                10060204     LIBCD:87disp.obj
 0001:0005f206       __rtzeronpop               10060206     LIBCD:87disp.obj
 0001:0005f20b       __rtonepop                 1006020b     LIBCD:87disp.obj
 0001:0005f20d       __rtonenpop                1006020d     LIBCD:87disp.obj
 0001:0005f212       __tosnan1                  10060212     LIBCD:87disp.obj
 0001:0005f23d       __nosnan2                  1006023d     LIBCD:87disp.obj
 0001:0005f23f       __tosnan2                  1006023f     LIBCD:87disp.obj
 0001:0005f267       __nan2                     10060267     LIBCD:87disp.obj
 0001:0005f2a6       __rtindfpop                100602a6     LIBCD:87disp.obj
 0001:0005f2a8       __rtindfnpop               100602a8     LIBCD:87disp.obj
 0001:0005f2b9       __rttosnpopde              100602b9     LIBCD:87disp.obj
 0001:0005f2c3       __rtchsifneg               100602c3     LIBCD:87disp.obj
 0001:0005f2d0       __startTwoArgErrorHandling 100602d0 f   LIBCD:genexcep.obj
 0001:0005f2e7       __startOneArgErrorHandling 100602e7 f   LIBCD:genexcep.obj
 0001:0005f330       __twoToTOS                 10060330 f   LIBCD:common.obj
 0001:0005f345       __load_CW                  10060345 f   LIBCD:common.obj
 0001:0005f35c       __convertTOStoQNaN         1006035c f   LIBCD:common.obj
 0001:0005f375       __fload_withFB             10060375 f   LIBCD:common.obj
 0001:0005f3b8       __checkTOS_withFB          100603b8 f   LIBCD:common.obj
 0001:0005f3ce       __fast_exit                100603ce f   LIBCD:common.obj
 0001:0005f3db       __math_exit                100603db f   LIBCD:common.obj
 0001:0005f405       __check_overflow_exit      10060405 f   LIBCD:common.obj
 0001:0005f419       __check_range_exit         10060419 f   LIBCD:common.obj
 0001:0005f4c0       __powhlp                   100604c0 f   LIBCD:powhlp.obj
 0001:0005f6c0       __d_inttype                100606c0 f   LIBCD:powhlp.obj
 0001:0005f750       ___libm_error_support      10060750 f   LIBCD:libm_error.obj
 0001:00060140       __floor_default            10061140 f   LIBCD:floor.obj
 0001:00060280       _ldexp                     10061280 f   LIBCD:ldexp.obj
 0001:00060550       __set_exp                  10061550 f   LIBCD:util.obj
 0001:00060590       __get_exp                  10061590 f   LIBCD:util.obj
 0001:000605c0       __add_exp                  100615c0 f   LIBCD:util.obj
 0001:000605f0       __set_bexp                 100615f0 f   LIBCD:util.obj
 0001:00060620       __sptype                   10061620 f   LIBCD:util.obj
 0001:000606a0       __decomp                   100616a0 f   LIBCD:util.obj
 0001:000607d0       __handle_qnan1             100617d0 f   LIBCD:fpexcept.obj
 0001:00060830       __handle_qnan2             10061830 f   LIBCD:fpexcept.obj
 0001:000608a0       __except1                  100618a0 f   LIBCD:fpexcept.obj
 0001:000609a0       __except2                  100619a0 f   LIBCD:fpexcept.obj
 0001:00060ab0       __raise_exc                10061ab0 f   LIBCD:fpexcept.obj
 0001:00060f60       __handle_exc               10061f60 f   LIBCD:fpexcept.obj
 0001:00061280       __umatherr                 10062280 f   LIBCD:fpexcept.obj
 0001:00061320       __set_errno                10062320 f   LIBCD:fpexcept.obj
 0001:000613a0       __errcode                  100623a0 f   LIBCD:fpexcept.obj
 0001:00061410       __statfp                   10062410 f   LIBCD:fpctrl.obj
 0001:00061420       __clrfp                    10062420 f   LIBCD:fpctrl.obj
 0001:00061440       __ctrlfp                   10062440 f   LIBCD:fpctrl.obj
 0001:00061470       __set_statfp               10062470 f   LIBCD:fpctrl.obj
 0001:000614e0       __malloc_base              100624e0 f   LIBCD:malloc.obj
 0001:00061500       __nh_malloc_base           10062500 f   LIBCD:malloc.obj
 0001:00061560       __heap_alloc_base          10062560 f   LIBCD:malloc.obj
 0001:000615d0       __CrtDefaultAllocHook      100625d0 f   LIBCD:dbghook.obj
 0001:000615e0       __expand_base              100625e0 f   LIBCD:expand.obj
 0001:000616b0       __realloc_base             100626b0 f   LIBCD:realloc.obj
 0001:00061910       __heapchk                  10062910 f   LIBCD:heapchk.obj
 0001:00061980       __heapset                  10062980 f   LIBCD:heapchk.obj
 0001:00061990       __get_sbh_threshold        10062990 f   LIBCD:sbheap.obj
 0001:000619b0       __set_sbh_threshold        100629b0 f   LIBCD:sbheap.obj
 0001:00061a20       ___sbh_heap_init           10062a20 f   LIBCD:sbheap.obj
 0001:00061a90       ___sbh_find_block          10062a90 f   LIBCD:sbheap.obj
 0001:00061af0       ___sbh_verify_block        10062af0 f   LIBCD:sbheap.obj
 0001:00061b50       ___sbh_free_block          10062b50 f   LIBCD:sbheap.obj
 0001:00062110       ___sbh_alloc_block         10063110 f   LIBCD:sbheap.obj
 0001:00062630       ___sbh_alloc_new_region    10063630 f   LIBCD:sbheap.obj
 0001:00062740       ___sbh_alloc_new_group     10063740 f   LIBCD:sbheap.obj
 0001:00062930       ___sbh_resize_block        10063930 f   LIBCD:sbheap.obj
 0001:00062f00       ___sbh_heapmin             10063f00 f   LIBCD:sbheap.obj
 0001:00063030       ___sbh_heap_check          10064030 f   LIBCD:sbheap.obj
 0001:00063540       ?_RTC_GetSrcLine@@YAHKPADHPAHPAPAD@Z 10064540 f   LIBCD:pdblkup.obj
 0001:00063de0       ?_ValidateRead@@YAHPBXI@Z  10064de0 f   LIBCD:validate.obj
 0001:00063e10       ?_ValidateWrite@@YAHPAXI@Z 10064e10 f   LIBCD:validate.obj
 0001:00063e40       ?_ValidateExecute@@YAHP6GHXZ@Z 10064e40 f   LIBCD:validate.obj
 0001:00063e70       _abort                     10064e70 f   LIBCD:abort.obj
 0001:00063e90       __statusfp                 10064e90 f   LIBCD:ieee87.obj
 0001:00063eb0       __clearfp                  10064eb0 f   LIBCD:ieee87.obj
 0001:00063ed0       __control87                10064ed0 f   LIBCD:ieee87.obj
 0001:00063f20       __controlfp                10064f20 f   LIBCD:ieee87.obj
 0001:00063f40       __fpreset                  10064f40 f   LIBCD:ieee87.obj
 0001:000642d0       __tolower                  100652d0 f   LIBCD:tolower.obj
 0001:000642e0       _tolower                   100652e0 f   LIBCD:tolower.obj
 0001:00064410       __ZeroTail                 10065410 f   LIBCD:intrncvt.obj
 0001:000644a0       __IncMan                   100654a0 f   LIBCD:intrncvt.obj
 0001:00064550       __RoundMan                 10065550 f   LIBCD:intrncvt.obj
 0001:00064630       __CopyMan                  10065630 f   LIBCD:intrncvt.obj
 0001:00064680       __FillZeroMan              10065680 f   LIBCD:intrncvt.obj
 0001:000646b0       __IsZeroMan                100656b0 f   LIBCD:intrncvt.obj
 0001:000646f0       __ShrMan                   100656f0 f   LIBCD:intrncvt.obj
 0001:000647e0       __ld12cvt                  100657e0 f   LIBCD:intrncvt.obj
 0001:00064a20       __ld12tod                  10065a20 f   LIBCD:intrncvt.obj
 0001:00064a40       __ld12tof                  10065a40 f   LIBCD:intrncvt.obj
 0001:00064a60       __ld12told                 10065a60 f   LIBCD:intrncvt.obj
 0001:00064b10       __atodbl                   10065b10 f   LIBCD:intrncvt.obj
 0001:00064b60       __atoldbl                  10065b60 f   LIBCD:intrncvt.obj
 0001:00064bb0       __atoflt                   10065bb0 f   LIBCD:intrncvt.obj
 0001:00064c00       __fptostr                  10065c00 f   LIBCD:_fptostr.obj
 0001:00064d00       __fltout                   10065d00 f   LIBCD:cfout.obj
 0001:00064d90       ___dtold                   10065d90 f   LIBCD:cfout.obj
 0001:00064ee0       __fptrap                   10065ee0 f   LIBCD:crt0fp.obj
 0001:00064ef0       __itoa                     10065ef0 f   LIBCD:xtoa.obj
 0001:00065010       __ltoa                     10066010 f   LIBCD:xtoa.obj
 0001:00065050       __ultoa                    10066050 f   LIBCD:xtoa.obj
 0001:00065070       __i64toa                   10066070 f   LIBCD:xtoa.obj
 0001:000651c0       __ui64toa                  100661c0 f   LIBCD:xtoa.obj
 0001:000651e0       __snprintf                 100661e0 f   LIBCD:snprintf.obj
 0001:000652d0       _signal                    100662d0 f   LIBCD:winsig.obj
 0001:000654e0       _raise                     100664e0 f   LIBCD:winsig.obj
 0001:000656f0       ___crtMessageBoxA          100666f0 f   LIBCD:crtmbox.obj
 0001:00065860       _strncpy                   10066860 f   LIBCD:strncpy.obj
 0001:00065990       __write                    10066990 f   LIBCD:write.obj
 0001:00065cb0       __getbuf                   10066cb0 f   LIBCD:_getbuf.obj
 0001:00065d70       __isatty                   10066d70 f   LIBCD:isatty.obj
 0001:00065da0       ___iob_func                10066da0 f   LIBCD:_file.obj
 0001:00065db0       ___initstdio               10066db0 f   LIBCD:_file.obj
 0001:00065ee0       ___endstdio                10066ee0 f   LIBCD:_file.obj
 0001:00065f00       _wctomb                    10066f00 f   LIBCD:wctomb.obj
 0001:00065fa0       ___pwctype_func            10066fa0 f   LIBCD:ctype.obj
 0001:00065fb0       ___pctype_func             10066fb0 f   LIBCD:ctype.obj
 0001:00065fc0       __aulldiv                  10066fc0 f   LIBCD:ulldiv.obj
 0001:00066030       __aullrem                  10067030 f   LIBCD:ullrem.obj
 0001:000660b0       _mbtowc                    100670b0 f   LIBCD:mbtowc.obj
 0001:00066200       __allshl                   10067200 f   LIBCD:llshl.obj
 0001:00066220       _ungetc                    10067220 f   LIBCD:ungetc.obj
 0001:00066350       ___ansicp                  10067350 f   LIBCD:convrtcp.obj
 0001:000663b0       ___convertcp               100673b0 f   LIBCD:convrtcp.obj
 0001:00066650       __ValidateEH3RN            10067650 f   LIBCD:eh3valid.obj
 0001:00066a40       ___security_init_cookie    10067a40 f   LIBCD:seccinit.obj
 0001:00066ae0       ___security_error_handler  10067ae0 f   LIBCD:secfail.obj
 0001:00066d10       __set_security_error_handler 10067d10 f   LIBCD:secfail.obj
 0001:00066d30       ___buffer_overrun          10067d30 f   LIBCD:secfail.obj
 0001:00066d50       ___set_buffer_overrun_handler 10067d50 f   LIBCD:secfail.obj
 0001:00066d70       __open                     10067d70 f   LIBCD:open.obj
 0001:00066db0       __sopen                    10067db0 f   LIBCD:open.obj
 0001:000672a0       __dosmaperr                100682a0 f   LIBCD:dosmap.obj
 0001:00067330       __alloc_osfhnd             10068330 f   LIBCD:osfinfo.obj
 0001:00067460       __set_osfhnd               10068460 f   LIBCD:osfinfo.obj
 0001:00067510       __free_osfhnd              10068510 f   LIBCD:osfinfo.obj
 0001:000675e0       __get_osfhandle            100685e0 f   LIBCD:osfinfo.obj
 0001:00067640       __open_osfhandle           10068640 f   LIBCD:osfinfo.obj
 0001:00067740       __commit                   10068740 f   LIBCD:commit.obj
 0001:000677d0       __setmbcp                  100687d0 f   LIBCD:mbctype.obj
 0001:00067f60       __getmbcp                  10068f60 f   LIBCD:mbctype.obj
 0001:00067f80       ___initmbctable            10068f80 f   LIBCD:mbctype.obj
 0001:00067fb0       ___crtGetStringTypeA       10068fb0 f   LIBCD:a_str.obj
 0001:00068250       _strncmp                   10069250 f   LIBCD:strncmp.obj
 0001:00068290       _fdiv_main_routine         10069290 f   LIBCD:adj_fdiv.obj
 0001:000683a7       __adj_fdiv_r               100693a7 f   LIBCD:adj_fdiv.obj
 0001:00068846       __fdivp_sti_st             10069846 f   LIBCD:adj_fdiv.obj
 0001:00068859       __fdivrp_sti_st            10069859 f   LIBCD:adj_fdiv.obj
 0001:0006886c       __adj_fdiv_m32             1006986c f   LIBCD:adj_fdiv.obj
 0001:000688b8       __adj_fdiv_m64             100698b8 f   LIBCD:adj_fdiv.obj
 0001:00068904       __adj_fdiv_m16i            10069904 f   LIBCD:adj_fdiv.obj
 0001:00068938       __adj_fdiv_m32i            10069938 f   LIBCD:adj_fdiv.obj
 0001:0006896c       __adj_fdivr_m32            1006996c f   LIBCD:adj_fdiv.obj
 0001:000689b8       __adj_fdivr_m64            100699b8 f   LIBCD:adj_fdiv.obj
 0001:00068a04       __adj_fdivr_m16i           10069a04 f   LIBCD:adj_fdiv.obj
 0001:00068a38       __adj_fdivr_m32i           10069a38 f   LIBCD:adj_fdiv.obj
 0001:00068a6c       __safe_fdiv                10069a6c f   LIBCD:adj_fdiv.obj
 0001:00068a81       __safe_fdivr               10069a81 f   LIBCD:adj_fdiv.obj
 0001:00068a96       __fprem_common             10069a96 f   LIBCD:adj_fdiv.obj
 0001:00068c9c       __adj_fprem                10069c9c f   LIBCD:adj_fdiv.obj
 0001:00068d4e       __fprem1_common            10069d4e f   LIBCD:adj_fdiv.obj
 0001:00068f54       __adj_fprem1               10069f54 f   LIBCD:adj_fdiv.obj
 0001:00069009       __safe_fprem               1006a009 f   LIBCD:adj_fdiv.obj
 0001:0006900f       __safe_fprem1              1006a00f f   LIBCD:adj_fdiv.obj
 0001:00069015       __adj_fpatan               1006a015 f   LIBCD:adj_fdiv.obj
 0001:00069018       __adj_fptan                1006a018 f   LIBCD:adj_fdiv.obj
 0001:00069020       __87except                 1006a020 f   LIBCD:87except.obj
 0001:000691d0       __frnd                     1006a1d0 f   LIBCD:frnd.obj
 0001:000691f0       __matherr                  1006a1f0 f   LIBCD:matherr.obj
 0001:00069200       ___addl                    1006a200 f   LIBCD:mantold.obj
 0001:00069240       ___add_12                  1006a240 f   LIBCD:mantold.obj
 0001:000692f0       ___shl_12                  1006a2f0 f   LIBCD:mantold.obj
 0001:00069350       ___shr_12                  1006a350 f   LIBCD:mantold.obj
 0001:000693c0       ___mtold12                 1006a3c0 f   LIBCD:mantold.obj
 0001:00069510       ___strgtold12              1006a510 f   LIBCD:strgtold.obj
 0001:00069ff0       ___STRINGTOLD              1006aff0 f   LIBCD:strgtold.obj
 0001:0006a050       _$I10_OUTPUT               1006b050 f   LIBCD:x10fout.obj
 0001:0006a530       __lseeki64                 1006b530 f   LIBCD:lseeki64.obj
 0001:0006a630       __fcloseall                1006b630 f   LIBCD:closeall.obj
 0001:0006a6e0       _atol                      1006b6e0 f   LIBCD:atox.obj
 0001:0006a7a0       _atoi                      1006b7a0 f   LIBCD:atox.obj
 0001:0006a7c0       __atoi64                   1006b7c0 f   LIBCD:atox.obj
 0001:0006a8b0       __chsize                   1006b8b0 f   LIBCD:chsize.obj
 0001:0006aac0       ___ld12mul                 1006bac0 f   LIBCD:tenpow.obj
 0001:0006aeb0       ___multtenpow12            1006beb0 f   LIBCD:tenpow.obj
 0001:0006af80       __ismbcspace               1006bf80 f   LIBCD:ismbspc.obj
 0001:0006b050       __allmul                   1006c050 f   LIBCD:llmul.obj
 0001:0006b090       __setmode                  1006c090 f   LIBCD:setmode.obj
 0001:0006b192       _QueryPerformanceCounter@4 1006c192 f   kernel32:KERNEL32.dll
 0001:0006b198       _LoadLibraryA@4            1006c198 f   kernel32:KERNEL32.dll
 0001:0006b19e       _GetProcAddress@8          1006c19e f   kernel32:KERNEL32.dll
 0001:0006b1a4       _GetModuleHandleA@4        1006c1a4 f   kernel32:KERNEL32.dll
 0001:0006b1aa       _WriteFile@20              1006c1aa f   kernel32:KERNEL32.dll
 0001:0006b1b0       _GetLastError@0            1006c1b0 f   kernel32:KERNEL32.dll
 0001:0006b1b6       _GetFileSize@8             1006c1b6 f   kernel32:KERNEL32.dll
 0001:0006b1bc       _MapViewOfFile@20          1006c1bc f   kernel32:KERNEL32.dll
 0001:0006b1c2       _CreateFileMappingA@24     1006c1c2 f   kernel32:KERNEL32.dll
 0001:0006b1c8       _CreateFileA@28            1006c1c8 f   kernel32:KERNEL32.dll
 0001:0006b1ce       _CreateFileW@28            1006c1ce f   kernel32:KERNEL32.dll
 0001:0006b1d4       _WideCharToMultiByte@32    1006c1d4 f   kernel32:KERNEL32.dll
 0001:0006b1da       _GetVersionExA@4           1006c1da f   kernel32:KERNEL32.dll
 0001:0006b1e0       _CloseHandle@4             1006c1e0 f   kernel32:KERNEL32.dll
 0001:0006b1e6       _UnmapViewOfFile@4         1006c1e6 f   kernel32:KERNEL32.dll
 0001:0006b1ec       _LockResource@4            1006c1ec f   kernel32:KERNEL32.dll
 0001:0006b1f2       _LoadResource@8            1006c1f2 f   kernel32:KERNEL32.dll
 0001:0006b1f8       _SizeofResource@8          1006c1f8 f   kernel32:KERNEL32.dll
 0001:0006b1fe       _FindResourceA@12          1006c1fe f   kernel32:KERNEL32.dll
 0001:0006b204       _FindResourceW@12          1006c204 f   kernel32:KERNEL32.dll
 0001:0006b20a       _IsProcessorFeaturePresent@4 1006c20a f   kernel32:KERNEL32.dll
 0001:0006b210       _RtlUnwind@16              1006c210 f   kernel32:KERNEL32.dll
 0001:0006b216       _RaiseException@16         1006c216 f   kernel32:KERNEL32.dll
 0001:0006b21c       _GetCommandLineA@0         1006c21c f   kernel32:KERNEL32.dll
 0001:0006b222       _TerminateProcess@8        1006c222 f   kernel32:KERNEL32.dll
 0001:0006b228       _GetCurrentProcess@0       1006c228 f   kernel32:KERNEL32.dll
 0001:0006b22e       _ExitProcess@4             1006c22e f   kernel32:KERNEL32.dll
 0001:0006b234       _IsBadWritePtr@8           1006c234 f   kernel32:KERNEL32.dll
 0001:0006b23a       _IsBadReadPtr@8            1006c23a f   kernel32:KERNEL32.dll
 0001:0006b240       _HeapValidate@12           1006c240 f   kernel32:KERNEL32.dll
 0001:0006b246       _DebugBreak@0              1006c246 f   kernel32:KERNEL32.dll
 0001:0006b24c       _GetStdHandle@4            1006c24c f   kernel32:KERNEL32.dll
 0001:0006b252       _InterlockedDecrement@4    1006c252 f   kernel32:KERNEL32.dll
 0001:0006b258       _OutputDebugStringA@4      1006c258 f   kernel32:KERNEL32.dll
 0001:0006b25e       _InterlockedIncrement@4    1006c25e f   kernel32:KERNEL32.dll
 0001:0006b264       _GetModuleFileNameA@12     1006c264 f   kernel32:KERNEL32.dll
 0001:0006b26a       _SetUnhandledExceptionFilter@4 1006c26a f   kernel32:KERNEL32.dll
 0001:0006b270       _HeapFree@12               1006c270 f   kernel32:KERNEL32.dll
 0001:0006b276       _VirtualProtect@16         1006c276 f   kernel32:KERNEL32.dll
 0001:0006b27c       _VirtualAlloc@16           1006c27c f   kernel32:KERNEL32.dll
 0001:0006b282       _GetSystemInfo@4           1006c282 f   kernel32:KERNEL32.dll
 0001:0006b288       _VirtualQuery@12           1006c288 f   kernel32:KERNEL32.dll
 0001:0006b28e       _MultiByteToWideChar@24    1006c28e f   kernel32:KERNEL32.dll
 0001:0006b294       _LCMapStringA@24           1006c294 f   kernel32:KERNEL32.dll
 0001:0006b29a       _LCMapStringW@24           1006c29a f   kernel32:KERNEL32.dll
 0001:0006b2a0       _ReadFile@20               1006c2a0 f   kernel32:KERNEL32.dll
 0001:0006b2a6       _SetHandleCount@4          1006c2a6 f   kernel32:KERNEL32.dll
 0001:0006b2ac       _GetFileType@4             1006c2ac f   kernel32:KERNEL32.dll
 0001:0006b2b2       _GetStartupInfoA@4         1006c2b2 f   kernel32:KERNEL32.dll
 0001:0006b2b8       _SetFilePointer@16         1006c2b8 f   kernel32:KERNEL32.dll
 0001:0006b2be       _HeapDestroy@4             1006c2be f   kernel32:KERNEL32.dll
 0001:0006b2c4       _HeapCreate@12             1006c2c4 f   kernel32:KERNEL32.dll
 0001:0006b2ca       _VirtualFree@12            1006c2ca f   kernel32:KERNEL32.dll
 0001:0006b2d0       _FreeEnvironmentStringsA@4 1006c2d0 f   kernel32:KERNEL32.dll
 0001:0006b2d6       _GetEnvironmentStrings@0   1006c2d6 f   kernel32:KERNEL32.dll
 0001:0006b2dc       _FreeEnvironmentStringsW@4 1006c2dc f   kernel32:KERNEL32.dll
 0001:0006b2e2       _GetEnvironmentStringsW@0  1006c2e2 f   kernel32:KERNEL32.dll
 0001:0006b2e8       _UnhandledExceptionFilter@4 1006c2e8 f   kernel32:KERNEL32.dll
 0001:0006b2ee       _DisableThreadLibraryCalls@4 1006c2ee f   kernel32:KERNEL32.dll
 0001:0006b2f4       _HeapAlloc@12              1006c2f4 f   kernel32:KERNEL32.dll
 0001:0006b2fa       _HeapReAlloc@16            1006c2fa f   kernel32:KERNEL32.dll
 0001:0006b300       _GetProcessHeap@0          1006c300 f   kernel32:KERNEL32.dll
 0001:0006b306       _FreeLibrary@4             1006c306 f   kernel32:KERNEL32.dll
 0001:0006b30c       _IsBadCodePtr@4            1006c30c f   kernel32:KERNEL32.dll
 0001:0006b312       _SetConsoleCtrlHandler@8   1006c312 f   kernel32:KERNEL32.dll
 0001:0006b318       _GetLocaleInfoA@16         1006c318 f   kernel32:KERNEL32.dll
 0001:0006b31e       _GetCPInfo@8               1006c31e f   kernel32:KERNEL32.dll
 0001:0006b324       _InterlockedExchange@8     1006c324 f   kernel32:KERNEL32.dll
 0001:0006b32a       _GetTickCount@0            1006c32a f   kernel32:KERNEL32.dll
 0001:0006b330       _GetCurrentThreadId@0      1006c330 f   kernel32:KERNEL32.dll
 0001:0006b336       _GetCurrentProcessId@0     1006c336 f   kernel32:KERNEL32.dll
 0001:0006b33c       _GetSystemTimeAsFileTime@4 1006c33c f   kernel32:KERNEL32.dll
 0001:0006b342       _SetStdHandle@8            1006c342 f   kernel32:KERNEL32.dll
 0001:0006b348       _FlushFileBuffers@4        1006c348 f   kernel32:KERNEL32.dll
 0001:0006b34e       _GetACP@0                  1006c34e f   kernel32:KERNEL32.dll
 0001:0006b354       _GetOEMCP@0                1006c354 f   kernel32:KERNEL32.dll
 0001:0006b35a       _GetStringTypeA@20         1006c35a f   kernel32:KERNEL32.dll
 0001:0006b360       _GetStringTypeW@16         1006c360 f   kernel32:KERNEL32.dll
 0001:0006b366       _SetEndOfFile@4            1006c366 f   kernel32:KERNEL32.dll
 0001:0006b36c       _MessageBoxA@16            1006c36c f   user32:USER32.dll
 0002:00000000       __imp__RegOpenKeyA@12      1006f000     Advapi32:ADVAPI32.dll
 0002:00000004       __imp__RegCloseKey@4       1006f004     Advapi32:ADVAPI32.dll
 0002:00000008       __imp__RegQueryValueExA@24 1006f008     Advapi32:ADVAPI32.dll
 0002:0000000c       \177ADVAPI32_NULL_THUNK_DATA 1006f00c     Advapi32:ADVAPI32.dll
 0002:00000010       __imp__DeleteObject@4      1006f010     gdi32:GDI32.dll
 0002:00000014       \177GDI32_NULL_THUNK_DATA  1006f014     gdi32:GDI32.dll
 0002:00000018       __imp__QueryPerformanceCounter@4 1006f018     kernel32:KERNEL32.dll
 0002:0000001c       __imp__LoadLibraryA@4      1006f01c     kernel32:KERNEL32.dll
 0002:00000020       __imp__GetProcAddress@8    1006f020     kernel32:KERNEL32.dll
 0002:00000024       __imp__GetModuleHandleA@4  1006f024     kernel32:KERNEL32.dll
 0002:00000028       __imp__WriteFile@20        1006f028     kernel32:KERNEL32.dll
 0002:0000002c       __imp__GetLastError@0      1006f02c     kernel32:KERNEL32.dll
 0002:00000030       __imp__GetFileSize@8       1006f030     kernel32:KERNEL32.dll
 0002:00000034       __imp__MapViewOfFile@20    1006f034     kernel32:KERNEL32.dll
 0002:00000038       __imp__CreateFileMappingA@24 1006f038     kernel32:KERNEL32.dll
 0002:0000003c       __imp__CreateFileA@28      1006f03c     kernel32:KERNEL32.dll
 0002:00000040       __imp__CreateFileW@28      1006f040     kernel32:KERNEL32.dll
 0002:00000044       __imp__WideCharToMultiByte@32 1006f044     kernel32:KERNEL32.dll
 0002:00000048       __imp__GetVersionExA@4     1006f048     kernel32:KERNEL32.dll
 0002:0000004c       __imp__CloseHandle@4       1006f04c     kernel32:KERNEL32.dll
 0002:00000050       __imp__UnmapViewOfFile@4   1006f050     kernel32:KERNEL32.dll
 0002:00000054       __imp__LockResource@4      1006f054     kernel32:KERNEL32.dll
 0002:00000058       __imp__LoadResource@8      1006f058     kernel32:KERNEL32.dll
 0002:0000005c       __imp__SizeofResource@8    1006f05c     kernel32:KERNEL32.dll
 0002:00000060       __imp__FindResourceA@12    1006f060     kernel32:KERNEL32.dll
 0002:00000064       __imp__FindResourceW@12    1006f064     kernel32:KERNEL32.dll
 0002:00000068       __imp__IsProcessorFeaturePresent@4 1006f068     kernel32:KERNEL32.dll
 0002:0000006c       __imp__RtlUnwind@16        1006f06c     kernel32:KERNEL32.dll
 0002:00000070       __imp__RaiseException@16   1006f070     kernel32:KERNEL32.dll
 0002:00000074       __imp__GetCommandLineA@0   1006f074     kernel32:KERNEL32.dll
 0002:00000078       __imp__TerminateProcess@8  1006f078     kernel32:KERNEL32.dll
 0002:0000007c       __imp__GetCurrentProcess@0 1006f07c     kernel32:KERNEL32.dll
 0002:00000080       __imp__ExitProcess@4       1006f080     kernel32:KERNEL32.dll
 0002:00000084       __imp__IsBadWritePtr@8     1006f084     kernel32:KERNEL32.dll
 0002:00000088       __imp__IsBadReadPtr@8      1006f088     kernel32:KERNEL32.dll
 0002:0000008c       __imp__HeapValidate@12     1006f08c     kernel32:KERNEL32.dll
 0002:00000090       __imp__DebugBreak@0        1006f090     kernel32:KERNEL32.dll
 0002:00000094       __imp__GetStdHandle@4      1006f094     kernel32:KERNEL32.dll
 0002:00000098       __imp__InterlockedDecrement@4 1006f098     kernel32:KERNEL32.dll
 0002:0000009c       __imp__OutputDebugStringA@4 1006f09c     kernel32:KERNEL32.dll
 0002:000000a0       __imp__InterlockedIncrement@4 1006f0a0     kernel32:KERNEL32.dll
 0002:000000a4       __imp__GetModuleFileNameA@12 1006f0a4     kernel32:KERNEL32.dll
 0002:000000a8       __imp__SetUnhandledExceptionFilter@4 1006f0a8     kernel32:KERNEL32.dll
 0002:000000ac       __imp__HeapFree@12         1006f0ac     kernel32:KERNEL32.dll
 0002:000000b0       __imp__VirtualProtect@16   1006f0b0     kernel32:KERNEL32.dll
 0002:000000b4       __imp__VirtualAlloc@16     1006f0b4     kernel32:KERNEL32.dll
 0002:000000b8       __imp__GetSystemInfo@4     1006f0b8     kernel32:KERNEL32.dll
 0002:000000bc       __imp__VirtualQuery@12     1006f0bc     kernel32:KERNEL32.dll
 0002:000000c0       __imp__MultiByteToWideChar@24 1006f0c0     kernel32:KERNEL32.dll
 0002:000000c4       __imp__LCMapStringA@24     1006f0c4     kernel32:KERNEL32.dll
 0002:000000c8       __imp__LCMapStringW@24     1006f0c8     kernel32:KERNEL32.dll
 0002:000000cc       __imp__ReadFile@20         1006f0cc     kernel32:KERNEL32.dll
 0002:000000d0       __imp__SetHandleCount@4    1006f0d0     kernel32:KERNEL32.dll
 0002:000000d4       __imp__GetFileType@4       1006f0d4     kernel32:KERNEL32.dll
 0002:000000d8       __imp__GetStartupInfoA@4   1006f0d8     kernel32:KERNEL32.dll
 0002:000000dc       __imp__SetFilePointer@16   1006f0dc     kernel32:KERNEL32.dll
 0002:000000e0       __imp__HeapDestroy@4       1006f0e0     kernel32:KERNEL32.dll
 0002:000000e4       __imp__HeapCreate@12       1006f0e4     kernel32:KERNEL32.dll
 0002:000000e8       __imp__VirtualFree@12      1006f0e8     kernel32:KERNEL32.dll
 0002:000000ec       __imp__FreeEnvironmentStringsA@4 1006f0ec     kernel32:KERNEL32.dll
 0002:000000f0       __imp__GetEnvironmentStrings@0 1006f0f0     kernel32:KERNEL32.dll
 0002:000000f4       __imp__FreeEnvironmentStringsW@4 1006f0f4     kernel32:KERNEL32.dll
 0002:000000f8       __imp__GetEnvironmentStringsW@0 1006f0f8     kernel32:KERNEL32.dll
 0002:000000fc       __imp__UnhandledExceptionFilter@4 1006f0fc     kernel32:KERNEL32.dll
 0002:00000100       __imp__DisableThreadLibraryCalls@4 1006f100     kernel32:KERNEL32.dll
 0002:00000104       __imp__HeapAlloc@12        1006f104     kernel32:KERNEL32.dll
 0002:00000108       __imp__HeapReAlloc@16      1006f108     kernel32:KERNEL32.dll
 0002:0000010c       __imp__GetProcessHeap@0    1006f10c     kernel32:KERNEL32.dll
 0002:00000110       __imp__FreeLibrary@4       1006f110     kernel32:KERNEL32.dll
 0002:00000114       __imp__IsBadCodePtr@4      1006f114     kernel32:KERNEL32.dll
 0002:00000118       __imp__SetConsoleCtrlHandler@8 1006f118     kernel32:KERNEL32.dll
 0002:0000011c       __imp__GetLocaleInfoA@16   1006f11c     kernel32:KERNEL32.dll
 0002:00000120       __imp__GetCPInfo@8         1006f120     kernel32:KERNEL32.dll
 0002:00000124       __imp__InterlockedExchange@8 1006f124     kernel32:KERNEL32.dll
 0002:00000128       __imp__GetTickCount@0      1006f128     kernel32:KERNEL32.dll
 0002:0000012c       __imp__GetCurrentThreadId@0 1006f12c     kernel32:KERNEL32.dll
 0002:00000130       __imp__GetCurrentProcessId@0 1006f130     kernel32:KERNEL32.dll
 0002:00000134       __imp__GetSystemTimeAsFileTime@4 1006f134     kernel32:KERNEL32.dll
 0002:00000138       __imp__SetStdHandle@8      1006f138     kernel32:KERNEL32.dll
 0002:0000013c       __imp__FlushFileBuffers@4  1006f13c     kernel32:KERNEL32.dll
 0002:00000140       __imp__GetACP@0            1006f140     kernel32:KERNEL32.dll
 0002:00000144       __imp__GetOEMCP@0          1006f144     kernel32:KERNEL32.dll
 0002:00000148       __imp__GetStringTypeA@20   1006f148     kernel32:KERNEL32.dll
 0002:0000014c       __imp__GetStringTypeW@16   1006f14c     kernel32:KERNEL32.dll
 0002:00000150       __imp__SetEndOfFile@4      1006f150     kernel32:KERNEL32.dll
 0002:00000154       \177KERNEL32_NULL_THUNK_DATA 1006f154     kernel32:KERNEL32.dll
 0002:00000158       __imp__MessageBoxA@16      1006f158     user32:USER32.dll
 0002:0000015c       \177USER32_NULL_THUNK_DATA 1006f15c     user32:USER32.dll
 0002:0000017c       ?end@?$_Iosb@H@std@@2W4_Seekdir@12@B 1006f17c     aMaterial.obj
 0002:00000180       ?cur@?$_Iosb@H@std@@2W4_Seekdir@12@B 1006f180     aMaterial.obj
 0002:00000184       ?beg@?$_Iosb@H@std@@2W4_Seekdir@12@B 1006f184     aMaterial.obj
 0002:00000188       ?binary@?$_Iosb@H@std@@2W4_Openmode@12@B 1006f188     aMaterial.obj
 0002:0000018c       ?_Noreplace@?$_Iosb@H@std@@2W4_Openmode@12@B 1006f18c     aMaterial.obj
 0002:00000190       ?_Nocreate@?$_Iosb@H@std@@2W4_Openmode@12@B 1006f190     aMaterial.obj
 0002:00000194       ?trunc@?$_Iosb@H@std@@2W4_Openmode@12@B 1006f194     aMaterial.obj
 0002:00000198       ?app@?$_Iosb@H@std@@2W4_Openmode@12@B 1006f198     aMaterial.obj
 0002:0000019c       ?ate@?$_Iosb@H@std@@2W4_Openmode@12@B 1006f19c     aMaterial.obj
 0002:000001a0       ?out@?$_Iosb@H@std@@2W4_Openmode@12@B 1006f1a0     aMaterial.obj
 0002:000001a4       ?in@?$_Iosb@H@std@@2W4_Openmode@12@B 1006f1a4     aMaterial.obj
 0002:000001a8       ?_Hardfail@?$_Iosb@H@std@@2W4_Iostate@12@B 1006f1a8     aMaterial.obj
 0002:000001ac       ?badbit@?$_Iosb@H@std@@2W4_Iostate@12@B 1006f1ac     aMaterial.obj
 0002:000001b0       ?failbit@?$_Iosb@H@std@@2W4_Iostate@12@B 1006f1b0     aMaterial.obj
 0002:000001b4       ?eofbit@?$_Iosb@H@std@@2W4_Iostate@12@B 1006f1b4     aMaterial.obj
 0002:000001b8       ?goodbit@?$_Iosb@H@std@@2W4_Iostate@12@B 1006f1b8     aMaterial.obj
 0002:000001bc       ?floatfield@?$_Iosb@H@std@@2W4_Fmtflags@12@B 1006f1bc     aMaterial.obj
 0002:000001c0       ?basefield@?$_Iosb@H@std@@2W4_Fmtflags@12@B 1006f1c0     aMaterial.obj
 0002:000001c4       ?adjustfield@?$_Iosb@H@std@@2W4_Fmtflags@12@B 1006f1c4     aMaterial.obj
 0002:000001c8       ?_Stdio@?$_Iosb@H@std@@2W4_Fmtflags@12@B 1006f1c8     aMaterial.obj
 0002:000001cc       ?boolalpha@?$_Iosb@H@std@@2W4_Fmtflags@12@B 1006f1cc     aMaterial.obj
 0002:000001d0       ?fixed@?$_Iosb@H@std@@2W4_Fmtflags@12@B 1006f1d0     aMaterial.obj
 0002:000001d4       ?scientific@?$_Iosb@H@std@@2W4_Fmtflags@12@B 1006f1d4     aMaterial.obj
 0002:000001d8       ?hex@?$_Iosb@H@std@@2W4_Fmtflags@12@B 1006f1d8     aMaterial.obj
 0002:000001dc       ?oct@?$_Iosb@H@std@@2W4_Fmtflags@12@B 1006f1dc     aMaterial.obj
 0002:000001e0       ?dec@?$_Iosb@H@std@@2W4_Fmtflags@12@B 1006f1e0     aMaterial.obj
 0002:000001e4       ?internal@?$_Iosb@H@std@@2W4_Fmtflags@12@B 1006f1e4     aMaterial.obj
 0002:000001e8       ?right@?$_Iosb@H@std@@2W4_Fmtflags@12@B 1006f1e8     aMaterial.obj
 0002:000001ec       ?left@?$_Iosb@H@std@@2W4_Fmtflags@12@B 1006f1ec     aMaterial.obj
 0002:000001f0       ?showpos@?$_Iosb@H@std@@2W4_Fmtflags@12@B 1006f1f0     aMaterial.obj
 0002:000001f4       ?showpoint@?$_Iosb@H@std@@2W4_Fmtflags@12@B 1006f1f4     aMaterial.obj
 0002:000001f8       ?showbase@?$_Iosb@H@std@@2W4_Fmtflags@12@B 1006f1f8     aMaterial.obj
 0002:000001fc       ?uppercase@?$_Iosb@H@std@@2W4_Fmtflags@12@B 1006f1fc     aMaterial.obj
 0002:00000200       ?unitbuf@?$_Iosb@H@std@@2W4_Fmtflags@12@B 1006f200     aMaterial.obj
 0002:00000204       ?skipws@?$_Iosb@H@std@@2W4_Fmtflags@12@B 1006f204     aMaterial.obj
 0002:00000208       ?none@?$_Locbase@H@std@@2HB 1006f208     aMaterial.obj
 0002:0000020c       ?all@?$_Locbase@H@std@@2HB 1006f20c     aMaterial.obj
 0002:00000210       ?messages@?$_Locbase@H@std@@2HB 1006f210     aMaterial.obj
 0002:00000214       ?time@?$_Locbase@H@std@@2HB 1006f214     aMaterial.obj
 0002:00000218       ?numeric@?$_Locbase@H@std@@2HB 1006f218     aMaterial.obj
 0002:0000021c       ?monetary@?$_Locbase@H@std@@2HB 1006f21c     aMaterial.obj
 0002:00000220       ?ctype@?$_Locbase@H@std@@2HB 1006f220     aMaterial.obj
 0002:00000224       ?collate@?$_Locbase@H@std@@2HB 1006f224     aMaterial.obj
 0002:00000228       ??_C@_0BE@IIPPOMIF@SetMaterialEmissive?$AA@ 1006f228     aMaterial.obj
 0002:0000023c       ??_C@_0BE@NAJJKPJK@SetMaterialSpecular?$AA@ 1006f23c     aMaterial.obj
 0002:00000250       ??_C@_0BD@POOIEAEN@SetMaterialDiffuse?$AA@ 1006f250     aMaterial.obj
 0002:00000264       ??_C@_0BD@EMLIPLFB@SetMaterialAmbient?$AA@ 1006f264     aMaterial.obj
 0002:00000278       ??_C@_0O@HLCAPOCM@SetProperties?$AA@ 1006f278     aMaterial.obj
 0002:00000288       ??_C@_0O@JDFAPKMG@RemoveTexture?$AA@ 1006f288     aMaterial.obj
 0002:00000298       ??_C@_0L@KKOCNIDB@AddTexture?$AA@ 1006f298     aMaterial.obj
 0002:000002a4       ??_C@_0M@EOJDEDPJ@FindTexture?$AA@ 1006f2a4     aMaterial.obj
 0002:000002b0       ??_C@_0O@FIPICNBI@UnloadTexture?$AA@ 1006f2b0     aMaterial.obj
 0002:000002c0       ??_C@_0M@LNBKDKFG@LoadTexture?$AA@ 1006f2c0     aMaterial.obj
 0002:000002cc       ??_C@_0BB@KLBMPCIO@LoadFontMaterial?$AA@ 1006f2cc     aMaterial.obj
 0002:000002e0       ??_C@_0M@CHANAOMK@SetMaterial?$AA@ 1006f2e0     aMaterial.obj
 0002:000002ec       ??_C@_0N@LEFFBIJI@FindMaterial?$AA@ 1006f2ec     aMaterial.obj
 0002:000002fc       ??_C@_0P@COOPGBM@RemoveMaterial?$AA@ 1006f2fc     aMaterial.obj
 0002:0000030c       ??_C@_0P@BHFGJNKF@CreateMaterial?$AA@ 1006f30c     aMaterial.obj
 0002:0000031c       ??_C@_0BA@BHNFFOE@SetRenderDevice?$AA@ 1006f31c     aMaterial.obj
 0002:0000032c       ??_C@_0L@JFGCFPAI@SetAPIMode?$AA@ 1006f32c     aMaterial.obj
 0002:00000338       ??_C@_04NIFFMPNM@Kill?$AA@ 1006f338     aMaterial.obj
 0002:00000340       ??_C@_04LLJCPOLH@Init?$AA@ 1006f340     aMaterial.obj
 0002:00000348       ??_C@_0BJ@FPLKFBGI@Material?5Init?5Complete?5?6?$AA@ 1006f348     aMaterial.obj
 0002:00000364       ??_C@_04EJMIGEJP@This?$AA@ 1006f364     aMaterial.obj
 0002:0000036c       ??_C@_08JDGDAJBI@Zeus?4Log?$AA@ 1006f36c     aMaterial.obj
 0002:00000378       ??_C@_08CPBFELGP@Material?$AA@ 1006f378     aMaterial.obj
 0002:00000384       ??_C@_0BH@GKDEBPEB@Render?4GetRenderDevice?$AA@ 1006f384     aMaterial.obj
 0002:0000039c       ??_C@_0CJ@CMJDCAKP@materials?4find?$CImatno?$CJ?5?$DN?$DN?5materia@ 1006f39c     aMaterial.obj
 0002:000003c8       ??_C@_0BE@IPHFACEJ@Invalid?5Material?5ID?$AA@ 1006f3c8     aMaterial.obj
 0002:000003e0       ??_C@_0EC@PINIDBIG@d?3?2develop?2misc?2deity2_backup?2co@ 1006f3e0     aMaterial.obj
 0002:00000424       ??_C@_0CK@BOBMPOHL@materials?4find?$CIhandle?$CJ?5?$DN?$DN?5materi@ 1006f424     aMaterial.obj
 0002:00000450       ??_C@_0BJ@KIAFNANN@Material?4SetRenderDevice?$AA@ 1006f450     aMaterial.obj
 0002:0000046c       ??_C@_0CJ@NKBBDDEB@materials?4find?$CImatid?$CJ?5?$DN?$DN?5materia@ 1006f46c     aMaterial.obj
 0002:00000498       ??_C@_0CI@FJMECIGI@textures?4find?$CIhandle?$CJ?5?$DN?$DN?5texture@ 1006f498     aMaterial.obj
 0002:000004c0       ??_C@_0BD@JBAEKILB@Invalid?5Texture?5ID?$AA@ 1006f4c0     aMaterial.obj
 0002:000004d4       ??_C@_0BO@JCKLOIJL@error?$CB?$DN?$CI?$CIHRESULT?$CJ0x00000000L?$CJ?$AA@ 1006f4d4     aMaterial.obj
 0002:000004f4       ??_C@_0BF@ILLBDPNB@Ahhh?5for?5fuks?5sake?4?4?$AA@ 1006f4f4     aMaterial.obj
 0002:0000050c       ??_C@_0N@NIKBKHNN@?$CFs?6?$CFd?5?$CFd?6?$CFd?6?$AA@ 1006f50c     aMaterial.obj
 0002:0000051c       ??_C@_0CE@OKNOKNHJ@OGL?5Bmp?5Textures?5not?5supported?5y@ 1006f51c     aMaterial.obj
 0002:00000540       ??_C@_01EEMJAFIK@?6?$AA@   1006f540     aMaterial.obj
 0002:00000544       ??_C@_0BE@IOFAHEC@Material?5Load?5Fail?3?$AA@ 1006f544     aMaterial.obj
 0002:00000558       ??_C@_0BD@BKMBNLBD@Texture?5extension?3?$AA@ 1006f558     aMaterial.obj
 0002:0000056c       ??_C@_0BA@LICPHMGJ@Texture?5Loaded?3?$AA@ 1006f56c     aMaterial.obj
 0002:0000057c       ??_C@_0N@GGGNIMJI@Loading?4?4?5?$CFs?$AA@ 1006f57c     aMaterial.obj
 0002:0000058c       ??_C@_0BD@ECLFBALN@?$CIftex?4handle?5?$DM?$DN?50?$CJ?$AA@ 1006f58c     aMaterial.obj
 0002:000005a0       ??_C@_0BH@DCKHFAHJ@aMaterial?3?3LoadTexture?$AA@ 1006f5a0     aMaterial.obj
 0002:000005b8       ??_C@_0CH@OFFNKGHC@textures?4find?$CItexid?$CJ?5?$DN?$DN?5textures@ 1006f5b8     aMaterial.obj
 0002:000005e0       ??_C@_02MDDDDAID@0x?$AA@   1006f5e0     aMaterial.obj
 0002:000005e4       ??_C@_0BD@OLBABOEK@vector?$DMT?$DO?5too?5long?$AA@ 1006f5e4     aMaterial.obj
 0002:000005f8       ?npos@?$basic_string@DU?$char_traits@D@std@@V?$allocator@D@2@@std@@2IB 1006f5f8     aMaterial.obj
 0002:000005fc       ??_C@_0BE@JONHPENG@map?1set?$DMT?$DO?5too?5long?$AA@ 1006f5fc     aMaterial.obj
 0002:00000610       ??_C@_01LFCBOECM@?4?$AA@   1006f610     aMaterial.obj
 0002:00000614       ??_C@_0O@BOIMJCNC@dataSize?5?$DM?$DN?50?$AA@ 1006f614     aMaterial.obj
 0002:00000624       ??_C@_0BB@JEHEICAP@Invalid?5DataSize?$AA@ 1006f624     aMaterial.obj
 0002:00000638       ??_C@_0DP@GMDNMPOG@d?3?2develop?2misc?2deity2_backup?2co@ 1006f638     aMaterial.obj
 0002:00000678       ??_C@_0BP@ILENAFA@?$CIoffset?5?$DO?5max?$CJ?5?$HM?$HM?5?$CIoffset?5?$DM?50?$CJ?$AA@ 1006f678     aMaterial.obj
 0002:00000698       ??_C@_0L@BFGENLGA@Bad?5offset?$AA@ 1006f698     aMaterial.obj
 0002:000006a4       ??_C@_0M@MGCIJLNN@method?5?$DN?$DN?50?$AA@ 1006f6a4     aMaterial.obj
 0002:000006b0       ??_C@_0L@IBBIEMAK@fname?5?$DN?$DN?50?$AA@ 1006f6b0     aMaterial.obj
 0002:000006bc       ??_C@_0L@ICHJAFL@File?3?3Open?$AA@ 1006f6bc     aMaterial.obj
 0002:000006c8       ??_C@_0DN@MENIKAOJ@d?3?2develop?2misc?2deity2_backup?2co@ 1006f6c8     aMaterial.obj
 0002:00000708       ??_C@_0M@BABCHBCN@handle?5?$DN?$DN?50?$AA@ 1006f708     aMaterial.obj
 0002:00000714       ??_C@_0BA@FALKFDBB@File?3?3CloseFile?$AA@ 1006f714     aMaterial.obj
 0002:00000724       ??_C@_09JDOCHACJ@size?5?$DM?$DN?50?$AA@ 1006f724     aMaterial.obj
 0002:00000730       ??_C@_0BB@CHOMHGCC@Zero?5sized?5file?$CB?$AA@ 1006f730     aMaterial.obj
 0002:00000744       ??_C@_0BC@NEIAMEMA@File?3?3ReadBinFile?$AA@ 1006f744     aMaterial.obj
 0002:00000758       ??_C@_01OJONOECF@b?$AA@    1006f758     aMaterial.obj
 0002:0000075c       ??_C@_01NOFIACDB@w?$AA@    1006f75c     aMaterial.obj
 0002:00000760       ??_C@_01KDCPPGHE@r?$AA@    1006f760     aMaterial.obj
 0002:00000764       ??_C@_01MIFGBAGJ@?$CL?$AA@ 1006f764     aMaterial.obj
 0002:00000768       ??_C@_0BH@JCPBNIPA@dataSize?5?$CL?5size?5?$DO?50x80?$AA@ 1006f768     aMaterial.obj
 0002:00000780       ??_C@_0CH@NEFKEIKL@Packet?3?3BaseClass?5Packet?5size?5ex@ 1006f780     aMaterial.obj
 0002:000007a8       ??_C@_07CGOILIOA@data?$DN?$DN0?$AA@ 1006f7a8     aMaterial.obj
 0002:000007b0       ??_C@_0CG@NKFEJDCG@Packet?3?3BaseClass?5data?5is?5null?5i@ 1006f7b0     aMaterial.obj
 0002:000007d8       ??_C@_0BG@PCBNFCGO@params?4numParams?5?$DO?516?$AA@ 1006f7d8     aMaterial.obj
 0002:000007f0       ??_C@_0IK@FCNEICMB@Packet?3?3BaseClass?5?9?5You?5are?5a?5fu@ 1006f7f0     aMaterial.obj
 0002:0000087c       ??_C@_0DP@GMKICNOJ@d?3?2develop?2misc?2deity2_backup?2co@ 1006f87c     aMaterial.obj
 0002:000008bc       ??_C@_0BM@PAPJHAGI@invalid?5map?1set?$DMT?$DO?5iterator?$AA@ 1006f8bc     aMaterial.obj
 0002:00000f74       __real@3f000000            1006ff74     D3dx8:d3dx8tex.obj
 0002:00000f78       __real@3f800000            1006ff78     D3dx8:d3dx8tex.obj
 0002:00000f7c       __real@4f800000            1006ff7c     D3dx8:d3dx8tex.obj
 0002:00000f80       __real@3e59999a            1006ff80     D3dx8:d3dx8tex.obj
 0002:00000f84       __real@3f372474            1006ff84     D3dx8:d3dx8tex.obj
 0002:00000f88       __real@3d93a92a            1006ff88     D3dx8:d3dx8tex.obj
 0002:00000f8c       __real@00000000            1006ff8c     D3dx8:d3dx8tex.obj
 0002:00000f90       __real@3e000000            1006ff90     D3dx8:d3dx8tex.obj
 0002:00000f94       __real@bf800000            1006ff94     D3dx8:d3dx8tex.obj
 0002:00000f98       ??_C@_09MNLNCAHC@d3d8d?4dll?$AA@ 1006ff98     D3dx8:d3dx8dbg.obj
 0002:00000fa4       ??_C@_0N@DIPAJPJI@DebugSetMute?$AA@ 1006ffa4     D3dx8:d3dx8dbg.obj
 0002:00000fb4       ??_C@_08MGNLGFIP@d3d8?4dll?$AA@ 1006ffb4     D3dx8:d3dx8dbg.obj
 0002:00000fc0       ??_C@_0L@JBGDLKBH@read?5error?$AA@ 1006ffc0     D3dx8:cd3dximage.obj
 0002:00000fd0       __real@3fe0000000000000    1006ffd0     D3dx8:cd3dximage.obj
 0002:00000fd8       __real@406fe00000000000    1006ffd8     D3dx8:cd3dximage.obj
 0002:00000fe0       __real@3f70101010101010    1006ffe0     D3dx8:cd3dximage.obj
 0002:00000fe8       __real@3ff0000000000000    1006ffe8     D3dx8:cd3dximage.obj
 0002:00000ff0       __real@3eb0c6f7a0b5ed8d    1006fff0     D3dx8:cd3dximage.obj
 0002:00000ff8       __real@400199999999999a    1006fff8     D3dx8:cd3dximage.obj
 0002:00001000       ??_C@_05JPCDEKMM@1?40?45?$AA@ 10070000     D3dx8:cd3dximage.obj
 0002:00001008       __real@3727c5ac            10070008     D3dx8:cd3dxblt.obj
 0002:0000100c       __real@3e800000            1007000c     D3dx8:cd3dxblt.obj
 0002:00001010       ??_7CD3DXCodec@@6B@        10070010     D3dx8:cd3dxcodec.obj
 0002:00001020       __real@40000000            10070020     D3dx8:cd3dxcodec.obj
 0002:00001024       __real@3b808081            10070024     D3dx8:cd3dxcodec.obj
 0002:00001028       ??_7CD3DXCodecDXT@@6B@     10070028     D3dx8:cd3dxcodec.obj
 0002:00001038       __real@437f0000            10070038     D3dx8:cd3dxcodec.obj
 0002:0000103c       __real@427c0000            1007003c     D3dx8:cd3dxcodec.obj
 0002:00001040       __real@41f80000            10070040     D3dx8:cd3dxcodec.obj
 0002:00001044       __real@41700000            10070044     D3dx8:cd3dxcodec.obj
 0002:00001048       __real@40400000            10070048     D3dx8:cd3dxcodec.obj
 0002:0000104c       __real@40e00000            1007004c     D3dx8:cd3dxcodec.obj
 0002:00001050       __real@447fc000            10070050     D3dx8:cd3dxcodec.obj
 0002:00001054       __real@477fff00            10070054     D3dx8:cd3dxcodec.obj
 0002:00001058       __real@7f7fffff            10070058     D3dx8:cd3dxcodec.obj
 0002:0000105c       __real@43000000            1007005c     D3dx8:cd3dxcodec.obj
 0002:00001060       __real@41800000            10070060     D3dx8:cd3dxcodec.obj
 0002:00001064       __real@47000000            10070064     D3dx8:cd3dxcodec.obj
 0002:00001068       __real@44800000            10070068     D3dx8:cd3dxcodec.obj
 0002:0000106c       __real@44000000            1007006c     D3dx8:cd3dxcodec.obj
 0002:00001070       __real@3c820821            10070070     D3dx8:cd3dxcodec.obj
 0002:00001074       __real@3d042108            10070074     D3dx8:cd3dxcodec.obj
 0002:00001078       __real@3d888889            10070078     D3dx8:cd3dxcodec.obj
 0002:0000107c       __real@3eaaaaab            1007007c     D3dx8:cd3dxcodec.obj
 0002:00001080       __real@3a802008            10070080     D3dx8:cd3dxcodec.obj
 0002:00001084       __real@37800080            10070084     D3dx8:cd3dxcodec.obj
 0002:00001088       __real@3e124925            10070088     D3dx8:cd3dxcodec.obj
 0002:0000108c       __real@3c000000            1007008c     D3dx8:cd3dxcodec.obj
 0002:00001090       __real@3d800000            10070090     D3dx8:cd3dxcodec.obj
 0002:00001094       __real@38000000            10070094     D3dx8:cd3dxcodec.obj
 0002:00001098       __real@3b000000            10070098     D3dx8:cd3dxcodec.obj
 0002:0000109c       __real@3a800000            1007009c     D3dx8:cd3dxcodec.obj
 0002:000010a0       ??_7CD3DXCodec_R8G8B8@@6B@ 100700a0     D3dx8:cd3dxcodec.obj
 0002:000010b0       ??_7CD3DXCodecYUV@@6B@     100700b0     D3dx8:cd3dxcodec.obj
 0002:000010c0       ??_7CD3DXCodec_A8R8G8B8@@6B@ 100700c0     D3dx8:cd3dxcodec.obj
 0002:000010d0       ??_7CD3DXCodec_X8R8G8B8@@6B@ 100700d0     D3dx8:cd3dxcodec.obj
 0002:000010e0       ??_7CD3DXCodec_R5G6B5@@6B@ 100700e0     D3dx8:cd3dxcodec.obj
 0002:000010f0       __real@4191b646            100700f0     D3dx8:cd3dxcodec.obj
 0002:000010f4       __real@42bb926f            100700f4     D3dx8:cd3dxcodec.obj
 0002:000010f8       __real@42173021            100700f8     D3dx8:cd3dxcodec.obj
 0002:000010fc       __real@429467f0            100700fc     D3dx8:cd3dxcodec.obj
 0002:00001100       __real@42e00000            10070100     D3dx8:cd3dxcodec.obj
 0002:00001104       __real@43008d91            10070104     D3dx8:cd3dxcodec.obj
 0002:00001108       __real@41c7ba5e            10070108     D3dx8:cd3dxcodec.obj
 0002:0000110c       __real@4282f646            1007010c     D3dx8:cd3dxcodec.obj
 0002:00001110       ??_7CD3DXCodec_X1R5G5B5@@6B@ 10070110     D3dx8:cd3dxcodec.obj
 0002:00001120       ??_7CD3DXCodec_A1R5G5B5@@6B@ 10070120     D3dx8:cd3dxcodec.obj
 0002:00001130       __real@3c019bec            10070130     D3dx8:cd3dxcodec.obj
 0002:00001134       __real@3b50ef9c            10070134     D3dx8:cd3dxcodec.obj
 0002:00001138       __real@3ac95e58            10070138     D3dx8:cd3dxcodec.obj
 0002:0000113c       __real@3b95a025            1007013c     D3dx8:cd3dxcodec.obj
 0002:00001140       __real@3bcd17b6            10070140     D3dx8:cd3dxcodec.obj
 0002:00001144       ??_7CD3DXCodec_A4R4G4B4@@6B@ 10070144     D3dx8:cd3dxcodec.obj
 0002:00001154       ??_7CD3DXCodec_R3G3B2@@6B@ 10070154     D3dx8:cd3dxcodec.obj
 0002:00001164       ??_7CD3DXCodec_A8@@6B@     10070164     D3dx8:cd3dxcodec.obj
 0002:00001174       ??_7CD3DXCodec_A8R3G3B2@@6B@ 10070174     D3dx8:cd3dxcodec.obj
 0002:00001184       ??_7CD3DXCodec_X4R4G4B4@@6B@ 10070184     D3dx8:cd3dxcodec.obj
 0002:00001194       ??_7CD3DXCodec_A2B10G10R10@@6B@ 10070194     D3dx8:cd3dxcodec.obj
 0002:000011a4       ??_7CD3DXCodec_G16R16@@6B@ 100701a4     D3dx8:cd3dxcodec.obj
 0002:000011b4       ??_7CD3DXCodec_A8P8@@6B@   100701b4     D3dx8:cd3dxcodec.obj
 0002:000011c4       ??_7CD3DXCodec_P8@@6B@     100701c4     D3dx8:cd3dxcodec.obj
 0002:000011d4       ??_7CD3DXCodec_L8@@6B@     100701d4     D3dx8:cd3dxcodec.obj
 0002:000011e4       ??_7CD3DXCodec_A8L8@@6B@   100701e4     D3dx8:cd3dxcodec.obj
 0002:000011f4       ??_7CD3DXCodec_A4L4@@6B@   100701f4     D3dx8:cd3dxcodec.obj
 0002:00001204       ??_7CD3DXCodec_V8U8@@6B@   10070204     D3dx8:cd3dxcodec.obj
 0002:00001214       ??_7CD3DXCodec_L6V5U5@@6B@ 10070214     D3dx8:cd3dxcodec.obj
 0002:00001224       ??_7CD3DXCodec_X8L8V8U8@@6B@ 10070224     D3dx8:cd3dxcodec.obj
 0002:00001234       ??_7CD3DXCodec_Q8W8V8U8@@6B@ 10070234     D3dx8:cd3dxcodec.obj
 0002:00001244       ??_7CD3DXCodec_V16U16@@6B@ 10070244     D3dx8:cd3dxcodec.obj
 0002:00001254       ??_7CD3DXCodec_W11V11U10@@6B@ 10070254     D3dx8:cd3dxcodec.obj
 0002:00001264       ??_7CD3DXCodec_A2W10V10U10@@6B@ 10070264     D3dx8:cd3dxcodec.obj
 0002:00001274       ??_7CD3DXCodec_D16_LOCKABLE@@6B@ 10070274     D3dx8:cd3dxcodec.obj
 0002:00001284       ??_7CD3DXCodec_D3DX_L16@@6B@ 10070284     D3dx8:cd3dxcodec.obj
 0002:00001294       ??_7CD3DXCodec_D3DX_A16L16@@6B@ 10070294     D3dx8:cd3dxcodec.obj
 0002:000012a4       ??_7CD3DXCodec_D3DX_R16G16B16@@6B@ 100702a4     D3dx8:cd3dxcodec.obj
 0002:000012b4       ??_7CD3DXCodec_D3DX_A16R16G16B16@@6B@ 100702b4     D3dx8:cd3dxcodec.obj
 0002:000012c4       ??_7CD3DXCodec_DXT1@@6B@   100702c4     D3dx8:cd3dxcodec.obj
 0002:000012d4       ??_7CD3DXCodec_DXT2@@6B@   100702d4     D3dx8:cd3dxcodec.obj
 0002:000012e4       ??_7CD3DXCodec_DXT3@@6B@   100702e4     D3dx8:cd3dxcodec.obj
 0002:000012f4       ??_7CD3DXCodec_DXT4@@6B@   100702f4     D3dx8:cd3dxcodec.obj
 0002:00001304       ??_7CD3DXCodec_DXT5@@6B@   10070304     D3dx8:cd3dxcodec.obj
 0002:00001314       ??_7CD3DXCodec_UYVY@@6B@   10070314     D3dx8:cd3dxcodec.obj
 0002:00001324       ??_7CD3DXCodec_YUY2@@6B@   10070324     D3dx8:cd3dxcodec.obj
 0002:00001334       __real@34000000            10070334     D3dx8:d3dxmath.obj
 0002:00001338       __real@b4000000            10070338     D3dx8:d3dxmath.obj
 0002:0000133c       __real@40800000            1007033c     D3dx8:d3dxmath.obj
 0002:00001340       __real@40a00000            10070340     D3dx8:d3dxmath.obj
 0002:00001344       __real@00800000            10070344     D3dx8:d3dxmath.obj
 0002:00001348       __real@20000000            10070348     D3dx8:d3dxmath.obj
 0002:0000134c       __real@c0000000            1007034c     D3dx8:d3dxmath.obj
 0002:00001350       __real@be800000            10070350     D3dx8:d3dxmath.obj
 0002:00001354       ??_C@_0BM@IHHDGEAJ@Software?2Microsoft?2Direct3D?$AA@ 10070354     D3dx8:cpudetect.obj
 0002:00001370       ??_C@_0L@FLOHHHAO@DisableMMX?$AA@ 10070370     D3dx8:cpudetect.obj
 0002:0000137c       ??_C@_0N@BDDFKIGD@GenuineIntel?$AA@ 1007037c     D3dx8:cpudetect.obj
 0002:0000138c       ??_C@_0BA@MHCFIELB@DisableD3DXPSGP?$AA@ 1007038c     D3dx8:cpudetect.obj
 0002:00001584       ??_C@_0CL@OCGBAKPF@Application?5transferred?5too?5many@ 10070584     D3dx8:jerror.obj
 0002:000015b0       ??_C@_0CL@BAKCGOKJ@Invalid?5SOS?5parameters?5for?5seque@ 100705b0     D3dx8:jerror.obj
 0002:000015dc       ??_C@_0DI@NFMBADOH@Corrupt?5JPEG?5data?3?5found?5marker?5@ 100705dc     D3dx8:jerror.obj
 0002:00001614       ??_C@_0BL@DPFPFMLM@Premature?5end?5of?5JPEG?5file?$AA@ 10070614     D3dx8:jerror.obj
 0002:00001630       ??_C@_0CO@ODCCEDLN@Warning?3?5unknown?5JFIF?5revision?5n@ 10070630     D3dx8:jerror.obj
 0002:00001660       ??_C@_0CE@PBLDOPKB@Corrupt?5JPEG?5data?3?5bad?5Huffman?5c@ 10070660     D3dx8:jerror.obj
 0002:00001684       ??_C@_0DB@PGMEPGHN@Corrupt?5JPEG?5data?3?5premature?5end@ 10070684     D3dx8:jerror.obj
 0002:000016b8       ??_C@_0DM@PCOGCKJB@Corrupt?5JPEG?5data?3?5?$CFu?5extraneous@ 100706b8     D3dx8:jerror.obj
 0002:000016f8       ??_C@_0EC@CBCJOINE@Inconsistent?5progression?5sequenc@ 100706f8     D3dx8:jerror.obj
 0002:0000173c       ??_C@_0CG@KEGHCDOM@Unknown?5Adobe?5color?5transform?5co@ 1007073c     D3dx8:jerror.obj
 0002:00001764       ??_C@_0BH@LJLGPEFF@Obtained?5XMS?5handle?5?$CFu?$AA@ 10070764     D3dx8:jerror.obj
 0002:0000177c       ??_C@_0BE@FOGGKKAO@Freed?5XMS?5handle?5?$CFu?$AA@ 1007077c     D3dx8:jerror.obj
 0002:00001790       ??_C@_0DE@EEJCDLOO@Unrecognized?5component?5IDs?5?$CFd?5?$CFd@ 10070790     D3dx8:jerror.obj
 0002:000017c4       ??_C@_0BJ@GOCABEP@Opened?5temporary?5file?5?$CFs?$AA@ 100707c4     D3dx8:jerror.obj
 0002:000017e0       ??_C@_0BJ@KDCGAOJB@Closed?5temporary?5file?5?$CFs?$AA@ 100707e0     D3dx8:jerror.obj
 0002:000017fc       ??_C@_0BN@GAMIJLDC@?5?5Ss?$DN?$CFd?0?5Se?$DN?$CFd?0?5Ah?$DN?$CFd?0?5Al?$DN?$CFd?$AA@ 100707fc     D3dx8:jerror.obj
 0002:0000181c       ??_C@_0BO@CDEKFGLC@?5?5?5?5Component?5?$CFd?3?5dc?$DN?$CFd?5ac?$DN?$CFd?$AA@ 1007081c     D3dx8:jerror.obj
 0002:0000183c       ??_C@_0BN@BLOOHNC@Start?5Of?5Scan?3?5?$CFd?5components?$AA@ 1007083c     D3dx8:jerror.obj
 0002:0000185c       ??_C@_0P@JLCHJELA@Start?5of?5Image?$AA@ 1007085c     D3dx8:jerror.obj
 0002:0000186c       ??_C@_0BP@EDCAMHHE@?5?5?5?5Component?5?$CFd?3?5?$CFdhx?$CFdv?5q?$DN?$CFd?$AA@ 1007086c     D3dx8:jerror.obj
 0002:0000188c       ??_C@_0DK@DMINKOGN@Start?5Of?5Frame?50x?$CF02x?3?5width?$DN?$CFu?0@ 1007088c     D3dx8:jerror.obj
 0002:000018c8       ??_C@_0DJ@PCBCLFML@Smoothing?5not?5supported?5with?5non@ 100708c8     D3dx8:jerror.obj
 0002:00001904       ??_C@_05LLAPAOG@RST?$CFd?$AA@ 10070904     D3dx8:jerror.obj
 0002:0000190c       ??_C@_0CF@NIMOLBCP@At?5marker?50x?$CF02x?0?5recovery?5actio@ 1007090c     D3dx8:jerror.obj
 0002:00001934       ??_C@_0CE@FDPBEAOO@Selected?5?$CFd?5colors?5for?5quantizat@ 10070934     D3dx8:jerror.obj
 0002:00001958       ??_C@_0BI@NEIBNACE@Quantizing?5to?5?$CFd?5colors?$AA@ 10070958     D3dx8:jerror.obj
 0002:00001970       ??_C@_0CD@CNNAOOFA@Quantizing?5to?5?$CFd?5?$DN?5?$CFd?$CK?$CFd?$CK?$CFd?5colo@ 10070970     D3dx8:jerror.obj
 0002:00001994       ??_C@_0CI@GHPOCOCL@?5?5?5?5?5?5?5?5?$CF4u?5?$CF4u?5?$CF4u?5?$CF4u?5?$CF4u?5?$CF4u?5@ 10070994     D3dx8:jerror.obj
 0002:000019bc       ??_C@_0BJ@COPODLDN@Unexpected?5marker?50x?$CF02x?$AA@ 100709bc     D3dx8:jerror.obj
 0002:000019d8       ??_C@_0CC@KHCAAFMC@Skipping?5marker?50x?$CF02x?0?5length?5?$CF@ 100709d8     D3dx8:jerror.obj
 0002:000019fc       ??_C@_0CB@BADBMAAB@?5?5?5?5with?5?$CFd?5x?5?$CFd?5thumbnail?5image@ 100709fc     D3dx8:jerror.obj
 0002:00001a20       ??_C@_0CL@BJMGIDLN@Unknown?5JFIF?5minor?5revision?5numb@ 10070a20     D3dx8:jerror.obj
 0002:00001a4c       ??_C@_0DM@JLHNPIBE@Warning?3?5thumbnail?5image?5size?5do@ 10070a4c     D3dx8:jerror.obj
 0002:00001a88       ??_C@_0CE@MKDBBMLI@JFIF?5APP0?5marker?0?5density?5?$CFdx?$CFd?5@ 10070a88     D3dx8:jerror.obj
 0002:00001aac       ??_C@_0CI@FKGPAJC@?5?5?5?5?5?5?5?5?$CF3d?5?$CF3d?5?$CF3d?5?$CF3d?5?$CF3d?5?$CF3d?5@ 10070aac     D3dx8:jerror.obj
 0002:00001ad4       ??_C@_0N@HJHFKELG@End?5Of?5Image?$AA@ 10070ad4     D3dx8:jerror.obj
 0002:00001ae4       ??_C@_0BH@GIPOLIGC@Obtained?5EMS?5handle?5?$CFu?$AA@ 10070ae4     D3dx8:jerror.obj
 0002:00001afc       ??_C@_0BE@IPCOOGDJ@Freed?5EMS?5handle?5?$CFu?$AA@ 10070afc     D3dx8:jerror.obj
 0002:00001b10       ??_C@_0BL@EMFIKBEK@Define?5Restart?5Interval?5?$CFu?$AA@ 10070b10     D3dx8:jerror.obj
 0002:00001b2c       ??_C@_0CL@KLDOJIKN@Define?5Quantization?5Table?5?$CFd?5?5pr@ 10070b2c     D3dx8:jerror.obj
 0002:00001b58       ??_C@_0BM@MDIEILCE@Define?5Huffman?5Table?50x?$CF02x?$AA@ 10070b58     D3dx8:jerror.obj
 0002:00001b74       ??_C@_0CH@KIJGKPAA@Define?5Arithmetic?5Table?50x?$CF02x?3?5@ 10070b74     D3dx8:jerror.obj
 0002:00001b9c       ??_C@_0CM@CAEPHFAA@Unknown?5APP14?5marker?5?$CInot?5Adobe?$CJ@ 10070b9c     D3dx8:jerror.obj
 0002:00001bc8       ??_C@_0CK@HCPFFNKJ@Unknown?5APP0?5marker?5?$CInot?5JFIF?$CJ?0?5@ 10070bc8     D3dx8:jerror.obj
 0002:00001bf8       ??_C@_0EC@EHPKAOHA@Adobe?5APP14?5marker?3?5version?5?$CFd?0?5@ 10070bf8     D3dx8:jerror.obj
 0002:00001c3c       ??_C@_0DO@EGLODMBB@Caution?3?5quantization?5tables?5are@ 10070c3c     D3dx8:jerror.obj
 0002:00001c7c       ??_C@_0N@GJOMDPHN@6a?5?57?9Feb?996?$AA@ 10070c7c     D3dx8:jerror.obj
 0002:00001c8c       ??_C@_0CD@JFDHJBKK@Copyright?5?$CIC?$CJ?51996?0?5Thomas?5G?4?5La@ 10070c8c     D3dx8:jerror.obj
 0002:00001cb0       ??_C@_0BE@FDPDCBIN@Write?5to?5XMS?5failed?$AA@ 10070cb0     D3dx8:jerror.obj
 0002:00001cc4       ??_C@_0BF@EKLGFGNM@Read?5from?5XMS?5failed?$AA@ 10070cc4     D3dx8:jerror.obj
 0002:00001cdc       ??_C@_0CH@LJLHCCHC@Image?5too?5wide?5for?5this?5implemen@ 10070cdc     D3dx8:jerror.obj
 0002:00001d04       ??_C@_0CD@GCLFJCHC@Virtual?5array?5controller?5messed?5@ 10070d04     D3dx8:jerror.obj
 0002:00001d28       ??_C@_0BP@BPKOBOIP@Unsupported?5marker?5type?50x?$CF02x?$AA@ 10070d28     D3dx8:jerror.obj
 0002:00001d48       ??_C@_0CK@EPADOAKC@Application?5transferred?5too?5few?5@ 10070d48     D3dx8:jerror.obj
 0002:00001d74       ??_C@_0DG@KALDLIJB@Write?5failed?5on?5temporary?5file?5?9@ 10070d74     D3dx8:jerror.obj
 0002:00001dac       ??_C@_0BO@GOBJOAAI@Seek?5failed?5on?5temporary?5file?$AA@ 10070dac     D3dx8:jerror.obj
 0002:00001dcc       ??_C@_0BO@EEPJGHHI@Read?5failed?5on?5temporary?5file?$AA@ 10070dcc     D3dx8:jerror.obj
 0002:00001dec       ??_C@_0CD@POKNOPOF@Failed?5to?5create?5temporary?5file?5@ 10070dec     D3dx8:jerror.obj
 0002:00001e10       ??_C@_0CM@HONLBDPH@Invalid?5JPEG?5file?5structure?3?5SOS@ 10070e10     D3dx8:jerror.obj
 0002:00001e3c       ??_C@_0CN@HGJCMLNE@Invalid?5JPEG?5file?5structure?3?5two@ 10070e3c     D3dx8:jerror.obj
 0002:00001e6c       ??_C@_0CK@HMKECJK@Unsupported?5JPEG?5process?3?5SOF?5ty@ 10070e6c     D3dx8:jerror.obj
 0002:00001e98       ??_C@_0DA@GJIJGINK@Invalid?5JPEG?5file?5structure?3?5mis@ 10070e98     D3dx8:jerror.obj
 0002:00001ec8       ??_C@_0CN@IHJJJAFJ@Invalid?5JPEG?5file?5structure?3?5two@ 10070ec8     D3dx8:jerror.obj
 0002:00001ef8       ??_C@_0CH@NHMNHHIB@Cannot?5quantize?5to?5more?5than?5?$CFd?5@ 10070ef8     D3dx8:jerror.obj
 0002:00001f20       ??_C@_0CI@PLMPLCNO@Cannot?5quantize?5to?5fewer?5than?5?$CFd@ 10070f20     D3dx8:jerror.obj
 0002:00001f48       ??_C@_0CO@HPDBAEEA@Cannot?5quantize?5more?5than?5?$CFd?5col@ 10070f48     D3dx8:jerror.obj
 0002:00001f78       ??_C@_0BO@DJPLELIB@Insufficient?5memory?5?$CIcase?5?$CFd?$CJ?$AA@ 10070f78     D3dx8:jerror.obj
 0002:00001f98       ??_C@_0CL@GNLFDFCL@Not?5a?5JPEG?5file?3?5starts?5with?50x?$CF@ 10070f98     D3dx8:jerror.obj
 0002:00001fc4       ??_C@_0CK@CCHKIENB@Quantization?5table?50x?$CF02x?5was?5no@ 10070fc4     D3dx8:jerror.obj
 0002:00001ff0       ??_C@_0CC@BKPLBDLJ@JPEG?5datastream?5contains?5no?5imag@ 10070ff0     D3dx8:jerror.obj
 0002:00002014       ??_C@_0CF@BKANFCCL@Huffman?5table?50x?$CF02x?5was?5not?5def@ 10071014     D3dx8:jerror.obj
 0002:0000203c       ??_C@_0BM@HJHFKLAF@Backing?5store?5not?5supported?$AA@ 1007103c     D3dx8:jerror.obj
 0002:00002058       ??_C@_0CO@BEHINNOI@Requested?5feature?5was?5omitted?5at@ 10071058     D3dx8:jerror.obj
 0002:00002088       ??_C@_0BE@EOAAHHJ@Not?5implemented?5yet?$AA@ 10071088     D3dx8:jerror.obj
 0002:0000209c       ??_C@_0CH@EFBBPPCK@Invalid?5color?5quantization?5mode?5@ 1007109c     D3dx8:jerror.obj
 0002:000020c4       ??_C@_0CH@NIBDNILP@Scan?5script?5does?5not?5transmit?5al@ 100710c4     D3dx8:jerror.obj
 0002:000020ec       ??_C@_0DO@OPNPKGO@Cannot?5transcode?5due?5to?5multiple@ 100710ec     D3dx8:jerror.obj
 0002:0000212c       ??_C@_0BM@KEKMMNGA@Premature?5end?5of?5input?5file?$AA@ 1007112c     D3dx8:jerror.obj
 0002:00002148       ??_C@_0BB@JJAIKFBB@Empty?5input?5file?$AA@ 10071148     D3dx8:jerror.obj
 0002:0000215c       ??_C@_0CP@EKFPGPNP@Maximum?5supported?5image?5dimensio@ 1007115c     D3dx8:jerror.obj
 0002:0000218c       ??_C@_0CB@LFBMFPHI@Missing?5Huffman?5code?5table?5entry@ 1007118c     D3dx8:jerror.obj
 0002:000021b0       ??_C@_0CB@LLDOGNPJ@Huffman?5code?5size?5table?5overflow@ 100711b0     D3dx8:jerror.obj
 0002:000021d4       ??_C@_0CI@EKDDDHFF@Fractional?5sampling?5not?5implemen@ 100711d4     D3dx8:jerror.obj
 0002:000021fc       ??_C@_0CP@IDOBLGGD@Output?5file?5write?5error?5?9?9?9?5out?5@ 100711fc     D3dx8:jerror.obj
 0002:0000222c       ??_C@_0BG@BALCKDNL@Input?5file?5read?5error?$AA@ 1007122c     D3dx8:jerror.obj
 0002:00002244       ??_C@_0CB@DMGINPNE@Didn?8t?5expect?5more?5than?5one?5scan@ 10071244     D3dx8:jerror.obj
 0002:00002268       ??_C@_0BE@DGJBKIEB@Write?5to?5EMS?5failed?$AA@ 10071268     D3dx8:jerror.obj
 0002:0000227c       ??_C@_0BF@CPNENPBA@Read?5from?5EMS?5failed?$AA@ 1007127c     D3dx8:jerror.obj
 0002:00002294       ??_C@_0CF@DAGGEAPM@Empty?5JPEG?5image?5?$CIDNL?5not?5suppor@ 10071294     D3dx8:jerror.obj
 0002:000022bc       ??_C@_0BD@DIMECAOP@Bogus?5DQT?5index?5?$CFd?$AA@ 100712bc     D3dx8:jerror.obj
 0002:000022d0       ??_C@_0BD@KJHFPHIC@Bogus?5DHT?5index?5?$CFd?$AA@ 100712d0     D3dx8:jerror.obj
 0002:000022e4       ??_C@_0BB@GDNEPMHL@Bogus?5DHT?5counts?$AA@ 100712e4     D3dx8:jerror.obj
 0002:000022f8       ??_C@_0BF@CLIOOJFM@Bogus?5DAC?5value?50x?$CFx?$AA@ 100712f8     D3dx8:jerror.obj
 0002:00002310       ??_C@_0BD@LDBBBMFL@Bogus?5DAC?5index?5?$CFd?$AA@ 10071310     D3dx8:jerror.obj
 0002:00002324       ??_C@_0CF@JDLOPNGO@Unsupported?5color?5conversion?5req@ 10071324     D3dx8:jerror.obj
 0002:0000234c       ??_C@_0CG@BEBDNOCG@Too?5many?5color?5components?3?5?$CFd?0?5m@ 1007134c     D3dx8:jerror.obj
 0002:00002374       ??_C@_0CF@LAEFHNAH@CCIR601?5sampling?5not?5implemented@ 10071374     D3dx8:jerror.obj
 0002:0000239c       ??_C@_0BM@PKHCPJDH@Suspension?5not?5allowed?5here?$AA@ 1007139c     D3dx8:jerror.obj
 0002:000023b8       ??_C@_0CL@JKHIPJLJ@Buffer?5passed?5to?5JPEG?5library?5is@ 100713b8     D3dx8:jerror.obj
 0002:000023e4       ??_C@_0BL@CBOEEPLK@Bogus?5virtual?5array?5access?$AA@ 100713e4     D3dx8:jerror.obj
 0002:00002400       ??_C@_0EN@DKAEGIBH@JPEG?5parameter?5struct?5mismatch?3?5@ 10071400     D3dx8:jerror.obj
 0002:00002450       ??_C@_0CK@BAMFIBMM@Improper?5call?5to?5JPEG?5library?5in@ 10071450     D3dx8:jerror.obj
 0002:0000247c       ??_C@_0CA@MJDDICLK@Invalid?5scan?5script?5at?5entry?5?$CFd?$AA@ 1007147c     D3dx8:jerror.obj
 0002:0000249c       ??_C@_0BH@HMMHPOPE@Bogus?5sampling?5factors?$AA@ 1007149c     D3dx8:jerror.obj
 0002:000024b4       ??_C@_0DH@HIKEGPKP@Invalid?5progressive?5parameters?5a@ 100714b4     D3dx8:jerror.obj
 0002:000024ec       ??_C@_0DH@LNGGEGOL@Invalid?5progressive?5parameters?5S@ 100714ec     D3dx8:jerror.obj
 0002:00002524       ??_C@_0CD@LDBDNLHK@Unsupported?5JPEG?5data?5precision?5@ 10071524     D3dx8:jerror.obj
 0002:00002548       ??_C@_0BM@OEMICEFD@Invalid?5memory?5pool?5code?5?$CFd?$AA@ 10071548     D3dx8:jerror.obj
 0002:00002564       ??_C@_0DA@HLEOHNPA@Sampling?5factors?5too?5large?5for?5i@ 10071564     D3dx8:jerror.obj
 0002:00002594       ??_C@_0DN@ELFKFKL@Wrong?5JPEG?5library?5version?3?5libr@ 10071594     D3dx8:jerror.obj
 0002:000025d4       ??_C@_0BE@OGLAEMOG@Bogus?5marker?5length?$AA@ 100715d4     D3dx8:jerror.obj
 0002:000025e8       ??_C@_0BG@NEGIHEMC@Bogus?5JPEG?5colorspace?$AA@ 100715e8     D3dx8:jerror.obj
 0002:00002600       ??_C@_0BH@BGDIGLHC@Bogus?5input?5colorspace?$AA@ 10071600     D3dx8:jerror.obj
 0002:00002618       ??_C@_0CI@MBJANLAP@IDCT?5output?5block?5size?5?$CFd?5not?5su@ 10071618     D3dx8:jerror.obj
 0002:00002640       ??_C@_0BP@ONFLCDHG@Invalid?5component?5ID?5?$CFd?5in?5SOS?$AA@ 10071640     D3dx8:jerror.obj
 0002:00002660       ??_C@_0BK@DKALDNKG@Bogus?5buffer?5control?5mode?$AA@ 10071660     D3dx8:jerror.obj
 0002:0000267c       ??_C@_0CF@DENLILGA@MAX_ALLOC_CHUNK?5is?5wrong?0?5please@ 1007167c     D3dx8:jerror.obj
 0002:000026a4       ??_C@_0CA@FDMPGPNI@ALIGN_TYPE?5is?5wrong?0?5please?5fix?$AA@ 100716a4     D3dx8:jerror.obj
 0002:000026c4       ??_C@_0DJ@KONAFFHE@Sorry?0?5there?5are?5legal?5restricti@ 100716c4     D3dx8:jerror.obj
 0002:00002700       ??_C@_0BG@MIBALFBH@Bogus?5message?5code?5?$CFd?$AA@ 10071700     D3dx8:jerror.obj
 0002:000027a4       ??_C@_0BD@LBMCPKOE@zlib?5version?5error?$AA@ 100717a4     D3dx8:pngread.obj
 0002:000027b8       ??_C@_0BC@MCPIPOGP@zlib?5memory?5error?$AA@ 100717b8     D3dx8:pngread.obj
 0002:000027cc       ??_C@_0BD@CPDHIJBA@Unknown?5zlib?5error?$AA@ 100717cc     D3dx8:pngread.obj
 0002:000027e0       ??_C@_05HBMFIKCP@1?41?43?$AA@ 100717e0     D3dx8:pngread.obj
 0002:000027e8       ??_C@_0DH@LDFDLODO@Incompatible?5libpng?5version?5in?5a@ 100717e8     D3dx8:pngread.obj
 0002:00002820       ??_C@_0N@JEPAMDDI@zlib?5version?$AA@ 10071820     D3dx8:pngread.obj
 0002:00002830       ??_C@_0M@KPLPCJNA@zlib?5memory?$AA@ 10071830     D3dx8:pngread.obj
 0002:0000283c       ??_C@_0BJ@LAKDHAPN@Missing?5PLTE?5before?5IDAT?$AA@ 1007183c     D3dx8:pngread.obj
 0002:00002858       ??_C@_0BJ@FFGICIDJ@Missing?5IHDR?5before?5IDAT?$AA@ 10071858     D3dx8:pngread.obj
 0002:00002874       ??_C@_0CH@NMANOLCN@PNG?5file?5corrupted?5by?5ASCII?5conv@ 10071874     D3dx8:pngread.obj
 0002:0000289c       ??_C@_0P@KIMIGLKH@Not?5a?5PNG?5file?$AA@ 1007189c     D3dx8:pngread.obj
 0002:000028ac       ??_C@_0BG@OKGHHCLP@Extra?5compressed?5data?$AA@ 100718ac     D3dx8:pngread.obj
 0002:000028c4       ??_C@_0BE@JMOGBNJB@Decompression?5error?$AA@ 100718c4     D3dx8:pngread.obj
 0002:000028d8       ??_C@_0BG@EIEOOJHA@Not?5enough?5image?5data?$AA@ 100718d8     D3dx8:pngread.obj
 0002:000028f0       ??_C@_0CB@KCPNIGFM@Invalid?5attempt?5to?5read?5row?5data@ 100718f0     D3dx8:pngread.obj
 0002:00002914       ??_C@_0BG@JAHFDNP@Too?5many?5IDAT?8s?5found?$AA@ 10071914     D3dx8:pngread.obj
 0002:0000292c       ??_C@_0DC@MHGEAIEM@Width?5too?5large?5for?5libpng?5to?5pr@ 1007192c     D3dx8:pngget.obj
 0002:00002960       ??_C@_0CK@BDBGBGO@Can?8t?5discard?5critical?5data?5on?5C@ 10071960     D3dx8:pngrtran.obj
 0002:00002990       __real@3fa999999999999a    10071990     D3dx8:pngrtran.obj
 0002:00002998       __real@40efffe000000000    10071998     D3dx8:pngrtran.obj
 0002:000029a0       __real@3ef0001000100010    100719a0     D3dx8:pngrtran.obj
 0002:000029a8       __real@3f70000000000000    100719a8     D3dx8:pngrtran.obj
 0002:000029b0       __real@41f0000000000000    100719b0     D3dx8:pngrtran.obj
 0002:000029b8       __real@0000000000000000    100719b8     D3dx8:pngrtran.obj
 0002:000029c0       ??_C@_0CC@JEAKIKEF@png_do_dither?5returned?5rowbytes?$DN@ 100719c0     D3dx8:pngrtran.obj
 0002:000029e4       ??_C@_0BA@DBGPKIA@NULL?5row?5buffer?$AA@ 100719e4     D3dx8:pngrtran.obj
 0002:000029f4       ??_C@_0DP@GHHOJINM@Width?5too?5large?5to?5process?5image@ 100719f4     D3dx8:pngset.obj
 0002:00002a38       __real@3fdd1758e0000000    10071a38     D3dx8:pngset.obj
 0002:00002a40       ??_C@_0BL@GPADEDKN@Call?5to?5NULL?5read?5function?$AA@ 10071a40     D3dx8:pngrio.obj
 0002:00002a5c       ??_C@_0DC@EOBOCMJO@same?5structure?4?5?5Resetting?5write@ 10071a5c     D3dx8:pngrio.obj
 0002:00002a90       ??_C@_0EB@NJKELLKM@It?8s?5an?5error?5to?5set?5both?5read_d@ 10071a90     D3dx8:pngrio.obj
 0002:00002adc       ??_C@_0DE@EGBLPLND@?6?5libpng?5version?51?40?45?5?9?5October@ 10071adc     D3dx8:png.obj
 0002:00002b10       ??_C@_0CC@CMIPDMOP@Too?5many?5bytes?5for?5PNG?5signature@ 10071b10     D3dx8:png.obj
 0002:00002b38       ??_C@_0MG@PPOOLDBG@?6?5libpng?5version?51?40?45?5?9?5October@ 10071b38     D3dx8:png.obj
 0002:00002c00       _IID_ID3DXEffect           10071c00     D3dx8:init.obj
 0002:00002c10       _IID_ID3DXSkinMesh         10071c10     D3dx8:init.obj
 0002:00002c20       _IID_ID3DXSPMesh           10071c20     D3dx8:init.obj
 0002:00002c30       _IID_ID3DXPMesh            10071c30     D3dx8:init.obj
 0002:00002c40       _IID_ID3DXMesh             10071c40     D3dx8:init.obj
 0002:00002c50       _IID_ID3DXBaseMesh         10071c50     D3dx8:init.obj
 0002:00002c60       _TID_DXFILEHeader          10071c60     D3dx8:init.obj
 0002:00002c70       _IID_IDirectXFileBinary    10071c70     D3dx8:init.obj
 0002:00002c80       _IID_IDirectXFileDataReference 10071c80     D3dx8:init.obj
 0002:00002c90       _IID_IDirectXFileData      10071c90     D3dx8:init.obj
 0002:00002ca0       _IID_IDirectXFileObject    10071ca0     D3dx8:init.obj
 0002:00002cb0       _IID_IDirectXFileSaveObject 10071cb0     D3dx8:init.obj
 0002:00002cc0       _IID_IDirectXFileEnumObject 10071cc0     D3dx8:init.obj
 0002:00002cd0       _IID_IDirectXFile          10071cd0     D3dx8:init.obj
 0002:00002ce0       _CLSID_CDirectXFile        10071ce0     D3dx8:init.obj
 0002:00002cf0       _IID_ID3DXRenderToEnvMap   10071cf0     D3dx8:init.obj
 0002:00002d00       _IID_ID3DXRenderToSurface  10071d00     D3dx8:init.obj
 0002:00002d10       _IID_ID3DXSprite           10071d10     D3dx8:init.obj
 0002:00002d20       _IID_ID3DXFont             10071d20     D3dx8:init.obj
 0002:00002d30       _IID_ID3DXBuffer           10071d30     D3dx8:init.obj
 0002:00002d40       _IID_ID3DXMatrixStack      10071d40     D3dx8:init.obj
 0002:00002d50       _IID_IDirect3DSwapChain8   10071d50     D3dx8:init.obj
 0002:00002d60       _IID_IDirect3DVolume8      10071d60     D3dx8:init.obj
 0002:00002d70       _IID_IDirect3DSurface8     10071d70     D3dx8:init.obj
 0002:00002d80       _IID_IDirect3DIndexBuffer8 10071d80     D3dx8:init.obj
 0002:00002d90       _IID_IDirect3DVertexBuffer8 10071d90     D3dx8:init.obj
 0002:00002da0       _IID_IDirect3DVolumeTexture8 10071da0     D3dx8:init.obj
 0002:00002db0       _IID_IDirect3DCubeTexture8 10071db0     D3dx8:init.obj
 0002:00002dc0       _IID_IDirect3DTexture8     10071dc0     D3dx8:init.obj
 0002:00002dd0       _IID_IDirect3DBaseTexture8 10071dd0     D3dx8:init.obj
 0002:00002de0       _IID_IDirect3DResource8    10071de0     D3dx8:init.obj
 0002:00002df0       _IID_IDirect3DDevice8      10071df0     D3dx8:init.obj
 0002:00002e00       _IID_IDirect3D8            10071e00     D3dx8:init.obj
 0002:00002e10       __real@3c800000            10071e10     D3dx8:dxtn.obj
 0002:00002e14       __real@3b800000            10071e14     D3dx8:dxtn.obj
 0002:00002e8c       __real@39800000            10071e8c     D3dx8:dxtn.obj
 0002:00002ec8       __real@3f2aaaab            10071ec8     D3dx8:dxtn.obj
 0002:00002ee8       __real@3ea00000            10071ee8     D3dx8:dxtn.obj
 0002:00002eec       __real@3e400000            10071eec     D3dx8:dxtn.obj
 0002:00002ef0       __real@3ee00000            10071ef0     D3dx8:dxtn.obj
 0002:00002ef4       __real@3e4ccccd            10071ef4     D3dx8:dxtn.obj
 0002:00002f30       ?jpeg_zigzag_order@D3DX@@3QBHB 10071f30     D3dx8:jutils.obj
 0002:00003030       ?jpeg_natural_order@D3DX@@3QBHB 10072030     D3dx8:jutils.obj
 0002:00003180       ?const3dn_0_1@@3T__m64@@B  10072180     D3dx8:d3dxmathx3d.obj
 0002:00003188       ?const3dn_1_0@@3T__m64@@B  10072188     D3dx8:d3dxmathx3d.obj
 0002:00003190       ?const3dn_1_N1@@3T__m64@@B 10072190     D3dx8:d3dxmathx3d.obj
 0002:00003198       ?const3dn_N1_1@@3T__m64@@B 10072198     D3dx8:d3dxmathx3d.obj
 0002:000031a0       ?const3dn_1_1@@3T__m64@@B  100721a0     D3dx8:d3dxmathx3d.obj
 0002:000031a8       ?const3dn_2_2@@3T__m64@@B  100721a8     D3dx8:d3dxmathx3d.obj
 0002:000031b0       ?const3dn_3_2@@3T__m64@@B  100721b0     D3dx8:d3dxmathx3d.obj
 0002:000031b8       ?const3dn_SignBitLo@@3T__m64@@B 100721b8     D3dx8:d3dxmathx3d.obj
 0002:000031c0       ?const3dn_SignBitHi@@3T__m64@@B 100721c0     D3dx8:d3dxmathx3d.obj
 0002:000031c8       ?const3dn_SignBits@@3T__m64@@B 100721c8     D3dx8:d3dxmathx3d.obj
 0002:000031d0       ?const3dn_SignMaskLo@@3T__m64@@B 100721d0     D3dx8:d3dxmathx3d.obj
 0002:000031d8       ?const3dn_SignMaskHi@@3T__m64@@B 100721d8     D3dx8:d3dxmathx3d.obj
 0002:000031e0       ?const3dn_SignMasks@@3T__m64@@B 100721e0     D3dx8:d3dxmathx3d.obj
 0002:000031e8       ?const3dn_epsilon@@3T__m64@@B 100721e8     D3dx8:d3dxmathx3d.obj
 0002:000031f0       ?const3dn_dwordLo@@3T__m64@@B 100721f0     D3dx8:d3dxmathx3d.obj
 0002:000031f8       ?const3dn_max@@3T__m64@@B  100721f8     D3dx8:d3dxmathx3d.obj
 0002:00003200       ?const3dn_min@@3T__m64@@B  10072200     D3dx8:d3dxmathx3d.obj
 0002:00003208       ?const3dn_halves@@3T__m64@@B 10072208     D3dx8:d3dxmathx3d.obj
 0002:00003210       ?const3dn_FltMin@@3T__m64@@B 10072210     D3dx8:d3dxmathx3d.obj
 0002:00003218       ?g_negate_low@@3T__m64@@B  10072218     D3dx8:d3dxmathx3d.obj
 0002:00003220       ?g_negate_high@@3T__m64@@B 10072220     D3dx8:d3dxmathx3d.obj
 0002:00003228       ?g_const_1@@3T__m64@@B     10072228     D3dx8:d3dxmathx3d.obj
 0002:00003230       ?g_const_half@@3T__m64@@B  10072230     D3dx8:d3dxmathx3d.obj
 0002:00003238       ?g_const_2@@3T__m64@@B     10072238     D3dx8:d3dxmathx3d.obj
 0002:00003240       ?g_const_3@@3T__m64@@B     10072240     D3dx8:d3dxmathx3d.obj
 0002:00003248       ?g_const_2_3@@3T__m64@@B   10072248     D3dx8:d3dxmathx3d.obj
 0002:00003250       ?g_const_3_2@@3T__m64@@B   10072250     D3dx8:d3dxmathx3d.obj
 0002:00003258       ?g_const_0@@3T__m64@@B     10072258     D3dx8:d3dxmathx3d.obj
 0002:00003260       ?g_const_0_1@@3T__m64@@B   10072260     D3dx8:d3dxmathx3d.obj
 0002:00003268       ?g_const_1_0@@3T__m64@@B   10072268     D3dx8:d3dxmathx3d.obj
 0002:00003270       ?g_const_nh_nl@@3T__m64@@B 10072270     D3dx8:d3dxmathx3d.obj
 0002:00003278       ?g_const_n2@@3T__m64@@B    10072278     D3dx8:d3dxmathx3d.obj
 0002:00003280       ?g_const_n2_1@@3T__m64@@B  10072280     D3dx8:d3dxmathx3d.obj
 0002:00003288       ?g_const_niner@@3T__m64@@B 10072288     D3dx8:d3dxmathx3d.obj
 0002:00003290       ?g_const_colRG@@3T__m64@@B 10072290     D3dx8:d3dxmathx3d.obj
 0002:00003298       ?g_const_colB0@@3T__m64@@B 10072298     D3dx8:d3dxmathx3d.obj
 0002:000032a0       ??_C@_0N@FFJGBINN@AuthenticAMD?$AA@ 100722a0     D3dx8:d3dxmathx3d.obj
 0002:000032b0       ??_C@_0N@GFHLKNJN@UnknownVendr?$AA@ 100722b0     D3dx8:d3dxmathx3d.obj
 0002:000032c0       ??_C@_0BA@MOKMMFOD@need?5dictionary?$AA@ 100722c0     D3dx8:inflate.obj
 0002:000032d0       ??_C@_0BF@MEIGEHBE@incorrect?5data?5check?$AA@ 100722d0     D3dx8:inflate.obj
 0002:000032e8       ??_C@_0BH@LIBMMIGA@incorrect?5header?5check?$AA@ 100722e8     D3dx8:inflate.obj
 0002:00003300       ??_C@_0BE@EMOGCLGO@invalid?5window?5size?$AA@ 10072300     D3dx8:inflate.obj
 0002:00003314       ??_C@_0BL@IHKGDAEE@unknown?5compression?5method?$AA@ 10072314     D3dx8:inflate.obj
 0002:00003334       ??_C@_0O@BPALFKAJ@Out?5of?5Memory?$AA@ 10072334     D3dx8:pngmem.obj
 0002:000033bc       ??_C@_0BD@GFBMLKLH@invalid?5chunk?5type?$AA@ 100723bc     D3dx8:pngrutil.obj
 0002:000033d0       ??_C@_0CC@FECADCN@Ignoring?5bad?5adaptive?5filter?5typ@ 100723d0     D3dx8:pngrutil.obj
 0002:000033f4       ??_C@_09BJGMGMHA@CRC?5error?$AA@ 100723f4     D3dx8:pngrutil.obj
 0002:00003400       ??_C@_0BO@KOOEGEDO@Unknown?5filter?5method?5in?5IHDR?$AA@ 10072400     D3dx8:pngrutil.obj
 0002:00003420       ??_C@_0CD@DDOOCEDP@Unknown?5compression?5method?5in?5IH@ 10072420     D3dx8:pngrutil.obj
 0002:00003444       ??_C@_0CB@EMHJMLOA@Unknown?5interlace?5method?5in?5IHDR@ 10072444     D3dx8:pngrutil.obj
 0002:00003468       ??_C@_0DB@FGMBGHOJ@Invalid?5color?5type?1bit?5depth?5com@ 10072468     D3dx8:pngrutil.obj
 0002:0000349c       ??_C@_0BL@KPIFPGMP@Invalid?5color?5type?5in?5IHDR?$AA@ 1007249c     D3dx8:pngrutil.obj
 0002:000034b8       ??_C@_0BK@OAKOLNFJ@Invalid?5bit?5depth?5in?5IHDR?$AA@ 100724b8     D3dx8:pngrutil.obj
 0002:000034d4       ??_C@_0BL@PKEOJJBA@Invalid?5image?5size?5in?5IHDR?$AA@ 100724d4     D3dx8:pngrutil.obj
 0002:000034f0       ??_C@_0BD@CLODLFAN@Invalid?5IHDR?5chunk?$AA@ 100724f0     D3dx8:pngrutil.obj
 0002:00003504       ??_C@_0BC@KBAKFAAH@Out?5of?5place?5IHDR?$AA@ 10072504     D3dx8:pngrutil.obj
 0002:00003518       ??_C@_0CH@GNNEJFAH@Truncating?5incorrect?5tRNS?5chunk?5@ 10072518     D3dx8:pngrutil.obj
 0002:00003540       ??_C@_0BG@HHEHMEJK@Invalid?5palette?5chunk?$AA@ 10072540     D3dx8:pngrutil.obj
 0002:00003558       ??_C@_0BF@PMKDIIMG@Duplicate?5PLTE?5chunk?$AA@ 10072558     D3dx8:pngrutil.obj
 0002:00003570       ??_C@_0BI@GEKPHPN@Invalid?5PLTE?5after?5IDAT?$AA@ 10072570     D3dx8:pngrutil.obj
 0002:00003588       ??_C@_0BJ@LEBILHKO@Missing?5IHDR?5before?5PLTE?$AA@ 10072588     D3dx8:pngrutil.obj
 0002:000035a4       ??_C@_0BM@PFCLLCBO@Incorrect?5IEND?5chunk?5length?$AA@ 100725a4     D3dx8:pngrutil.obj
 0002:000035c0       ??_C@_0BB@BLPFHNNN@No?5image?5in?5file?$AA@ 100725c0     D3dx8:pngrutil.obj
 0002:000035d4       ??_C@_0DI@KINMKNNO@Ignoring?5incorrect?5gAMA?5value?5wh@ 100725d4     D3dx8:pngrutil.obj
 0002:00003610       __real@407f400000000000    10072610     D3dx8:pngrutil.obj
 0002:00003618       __real@40e631e000000000    10072618     D3dx8:pngrutil.obj
 0002:00003620       ??_C@_0BF@IMCFKHDJ@Duplicate?5gAMA?5chunk?$AA@ 10072620     D3dx8:pngrutil.obj
 0002:00003638       ??_C@_0BI@JEEHFLME@Out?5of?5place?5gAMA?5chunk?$AA@ 10072638     D3dx8:pngrutil.obj
 0002:00003650       ??_C@_0BI@POPIJBNN@Invalid?5gAMA?5after?5IDAT?$AA@ 10072650     D3dx8:pngrutil.obj
 0002:00003668       ??_C@_0BM@NIAHDFBB@Incorrect?5gAMA?5chunk?5length?$AA@ 10072668     D3dx8:pngrutil.obj
 0002:00003684       ??_C@_0BJ@CCOIFGBO@Missing?5IHDR?5before?5gAMA?$AA@ 10072684     D3dx8:pngrutil.obj
 0002:000036a0       __real@47c35000            100726a0     D3dx8:pngrutil.obj
 0002:000036a4       ??_C@_0BE@CEGOJHBA@Unknown?5sRGB?5intent?$AA@ 100726a4     D3dx8:pngrutil.obj
 0002:000036b8       ??_C@_0BF@EFDCKHOG@Duplicate?5sRGB?5chunk?$AA@ 100726b8     D3dx8:pngrutil.obj
 0002:000036d0       ??_C@_0BI@FNFAFLBL@Out?5of?5place?5sRGB?5chunk?$AA@ 100726d0     D3dx8:pngrutil.obj
 0002:000036e8       ??_C@_0BI@PGAMKAKH@Invalid?5sRGB?5after?5IDAT?$AA@ 100726e8     D3dx8:pngrutil.obj
 0002:00003700       ??_C@_0BM@FMAJKMKD@Incorrect?5sRGB?5chunk?5length?$AA@ 10072700     D3dx8:pngrutil.obj
 0002:0000371c       ??_C@_0BJ@NDJOEJDI@Missing?5IHDR?5before?5sRGB?$AA@ 1007271c     D3dx8:pngrutil.obj
 0002:00003738       ??_C@_0CK@JMGMOHJA@tRNS?5chunk?5not?5allowed?5with?5alph@ 10072738     D3dx8:pngrutil.obj
 0002:00003764       ??_C@_0BM@JNMFOMLO@Incorrect?5tRNS?5chunk?5length?$AA@ 10072764     D3dx8:pngrutil.obj
 0002:00003780       ??_C@_0BF@HALLDFIL@Duplicate?5tRNS?5chunk?$AA@ 10072780     D3dx8:pngrutil.obj
 0002:00003798       ??_C@_0BI@MMDCNIMN@Invalid?5tRNS?5after?5IDAT?$AA@ 10072798     D3dx8:pngrutil.obj
 0002:000037b0       ??_C@_0BH@JJNMONHM@Zero?5length?5tRNS?5chunk?$AA@ 100727b0     D3dx8:pngrutil.obj
 0002:000037c8       ??_C@_0BJ@NIHNNFHD@Missing?5PLTE?5before?5tRNS?$AA@ 100727c8     D3dx8:pngrutil.obj
 0002:000037e4       ??_C@_0BJ@DNLGINLH@Missing?5IHDR?5before?5tRNS?$AA@ 100727e4     D3dx8:pngrutil.obj
 0002:00003800       ??_C@_0BH@OMJPKJPP@unknown?5critical?5chunk?$AA@ 10072800     D3dx8:pngrutil.obj
 0002:00003818       ??_C@_0BH@KJLLHDND@Extra?5compression?5data?$AA@ 10072818     D3dx8:pngrutil.obj
 0002:00003830       ??_C@_0BE@JLEKBIKH@Decompression?5Error?$AA@ 10072830     D3dx8:pngrutil.obj
 0002:00003fd4       ??_C@_0BK@BMMPFBBH@invalid?5bit?5length?5repeat?$AA@ 10072fd4     D3dx8:infblock.obj
 0002:00003ff0       ??_C@_0CE@GMIGFPBB@too?5many?5length?5or?5distance?5symb@ 10072ff0     D3dx8:infblock.obj
 0002:00004014       ??_C@_0BN@LGAADGOK@invalid?5stored?5block?5lengths?$AA@ 10073014     D3dx8:infblock.obj
 0002:00004034       ??_C@_0BD@PJCBIDD@invalid?5block?5type?$AA@ 10073034     D3dx8:infblock.obj
 0002:00004048       ??_C@_0BF@CJFPCCEG@incompatible?5version?$AA@ 10073048     D3dx8:zutil.obj
 0002:00004060       ??_C@_0N@DFPGLBGC@buffer?5error?$AA@ 10073060     D3dx8:zutil.obj
 0002:00004070       ??_C@_0BE@OGGJBMCE@insufficient?5memory?$AA@ 10073070     D3dx8:zutil.obj
 0002:00004084       ??_C@_0L@HAHMBNLP@data?5error?$AA@ 10073084     D3dx8:zutil.obj
 0002:00004090       ??_C@_0N@MKKNPMJD@stream?5error?$AA@ 10073090     D3dx8:zutil.obj
 0002:000040a0       ??_C@_0L@KIJFAKBJ@file?5error?$AA@ 100730a0     D3dx8:zutil.obj
 0002:000040ab       ??_C@_00CNPNBAHC@?$AA@     100730ab     D3dx8:zutil.obj
 0002:000040ac       ??_C@_0L@FNAOCBOG@stream?5end?$AA@ 100730ac     D3dx8:zutil.obj
 0002:000040b8       __real@3f8a8bd4            100730b8     D3dx8:jidctflt.obj
 0002:000040bc       __real@40273d75            100730bc     D3dx8:jidctflt.obj
 0002:000040c0       __real@3fec835e            100730c0     D3dx8:jidctflt.obj
 0002:000040c4       __real@3fb504f3            100730c4     D3dx8:jidctflt.obj
 0002:000040e0       ??_C@_0BG@LBKINIKP@invalid?5distance?5code?$AA@ 100730e0     D3dx8:infcodes.obj
 0002:000040f8       ??_C@_0BM@FFFLPBBC@invalid?5literal?1length?5code?$AA@ 100730f8     D3dx8:infcodes.obj
 0002:00004308       ??_C@_0CE@LOHAHEGK@incomplete?5dynamic?5bit?5lengths?5t@ 10073308     D3dx8:inftrees.obj
 0002:0000432c       ??_C@_0CI@CGMOPDPD@oversubscribed?5dynamic?5bit?5lengt@ 1007332c     D3dx8:inftrees.obj
 0002:00004354       ??_C@_0BP@NEEEJJNA@incomplete?5literal?1length?5tree?$AA@ 10073354     D3dx8:inftrees.obj
 0002:00004374       ??_C@_0CD@GJIDGCKE@oversubscribed?5literal?1length?5tr@ 10073374     D3dx8:inftrees.obj
 0002:00004398       ??_C@_0CB@KPKKKLFO@empty?5distance?5tree?5with?5lengths@ 10073398     D3dx8:inftrees.obj
 0002:000043bc       ??_C@_0BJ@CBCPDPJF@incomplete?5distance?5tree?$AA@ 100733bc     D3dx8:inftrees.obj
 0002:000043d8       ??_C@_0BN@KBLCDIAI@oversubscribed?5distance?5tree?$AA@ 100733d8     D3dx8:inftrees.obj
 0002:00004538       ??_C@_0O@GNPFIAKM@Error?3?3ASSERT?$AA@ 10073538     System:Error_types.obj
 0002:00004548       ??_C@_0CF@LAJDCDGA@expr?3?7?$CFs?6file?3?7?$CFs?6line?3?7?$CFd?6desc?3@ 10073548     System:Error_types.obj
 0002:00004570       ??_C@_0P@IFGCEG@Error?3?3WARNING?$AA@ 10073570     System:Error_types.obj
 0002:00004580       ??_C@_0BP@MBGHDOJI@file?3?7?$CFs?6line?3?7?$CFd?6message?3?7?$CFs?6?$AA@ 10073580     System:Error_types.obj
 0002:000045a0       ??_C@_06CICIPMFN@Printf?$AA@ 100735a0     System:Error_types.obj
 0002:000045a8       ??_C@_0BA@JFNIOLAK@string?5too?5long?$AA@ 100735a8     libcpd:string.obj
 0002:000045bc       ??_7length_error@std@@6B@  100735bc     libcpd:string.obj
 0002:000045c8       ??_7logic_error@std@@6B@   100735c8     libcpd:string.obj
 0002:000045d0       ??_C@_0BI@CFPLBAOH@invalid?5string?5position?$AA@ 100735d0     libcpd:string.obj
 0002:000045ec       ??_7out_of_range@std@@6B@  100735ec     libcpd:string.obj
 0002:000045f4       ??_C@_0P@GHFPNOJB@bad?5allocation?$AA@ 100735f4     libcpd:nomemory.obj
 0002:00004608       ??_7bad_alloc@std@@6B@     10073608     libcpd:nomemory.obj
 0002:00004610       ??_C@_08GNMOIKDK@onexit?4c?$AA@ 10073610     LIBCD:onexit.obj
 0002:0000461c       ??_C@_0L@EHNAEJIF@dbgdel?4cpp?$AA@ 1007361c     LIBCD:dbgdel.obj
 0002:00004628       ??_C@_0CH@IAGMNLOM@_BLOCK_TYPE_IS_VALID?$CIpHead?9?$DOnBlo@ 10073628     LIBCD:dbgdel.obj
 0002:00004650       ??_C@_0P@NFGNABCI@string?5?$CB?$DN?5NULL?$AA@ 10073650     LIBCD:sprintf.obj
 0002:00004660       ??_C@_09FNBBCGGI@sprintf?4c?$AA@ 10073660     LIBCD:sprintf.obj
 0002:0000466c       ??_C@_0P@NHGFNCDP@format?5?$CB?$DN?5NULL?$AA@ 1007366c     LIBCD:sprintf.obj
 0002:0000467c       ??_C@_08MPLNDKMI@sscanf?4c?$AA@ 1007367c     LIBCD:sscanf.obj
 0002:000046ac       ??_7exception@@6B@         100736ac     LIBCD:stdexcpt.obj
 0002:000046b4       ??_C@_0BC@EOODALEL@Unknown?5exception?$AA@ 100736b4     LIBCD:stdexcpt.obj
 0002:000046cc       ??_7bad_cast@@6B@          100736cc     LIBCD:stdexcpt.obj
 0002:000046d8       ??_7bad_typeid@@6B@        100736d8     LIBCD:stdexcpt.obj
 0002:000046e4       ??_7__non_rtti_object@@6B@ 100736e4     LIBCD:stdexcpt.obj
 0002:000046f0       ??_7type_info@@6B@         100736f0     LIBCD:typinfo.obj
 0002:000046f4       ??_C@_08KMEICEO@strlwr?4c?$AA@ 100736f4     LIBCD:strlwr.obj
 0002:0000470c       ??_C@_0BC@LDFCGPMK@?$CKmode?5?$CB?$DN?5_T?$CI?8?20?8?$CJ?$AA@ 1007370c     LIBCD:fopen.obj
 0002:00004720       ??_C@_0N@HDDIJGHA@mode?5?$CB?$DN?5NULL?$AA@ 10073720     LIBCD:fopen.obj
 0002:00004730       ??_C@_0BC@JKMANOLD@?$CKfile?5?$CB?$DN?5_T?$CI?8?20?8?$CJ?$AA@ 10073730     LIBCD:fopen.obj
 0002:00004744       ??_C@_07MKNJDOE@fopen?4c?$AA@ 10073744     LIBCD:fopen.obj
 0002:0000474c       ??_C@_0N@MBAPGNHG@file?5?$CB?$DN?5NULL?$AA@ 1007374c     LIBCD:fopen.obj
 0002:0000475c       ??_C@_08BDNGOBJJ@fclose?4c?$AA@ 1007375c     LIBCD:fclose.obj
 0002:00004768       ??_C@_0M@CMNAFCJK@str?5?$CB?$DN?5NULL?$AA@ 10073768     LIBCD:fclose.obj
 0002:00004774       ??_C@_07JNHGGCAC@ftell?4c?$AA@ 10073774     LIBCD:ftell.obj
 0002:0000477c       ??_C@_07MIBGAGEE@fseek?4c?$AA@ 1007377c     LIBCD:fseek.obj
 0002:00004820       ??_C@_0P@MIGLKIOC@CorExitProcess?$AA@ 10073820     LIBCD:crt0dat.obj
 0002:00004830       ??_C@_0M@MBOPBNBK@mscoree?4dll?$AA@ 10073830     LIBCD:crt0dat.obj
 0002:0000483c       ??_C@_06PJIGMIJB@Client?$AA@ 1007383c     LIBCD:dbgheap.obj
 0002:00004844       ??_C@_06KMEJCCGM@Ignore?$AA@ 10073844     LIBCD:dbgheap.obj
 0002:0000484c       ??_C@_03OGPFLFLO@CRT?$AA@  1007384c     LIBCD:dbgheap.obj
 0002:00004850       ??_C@_06EFAGIKOH@Normal?$AA@ 10073850     LIBCD:dbgheap.obj
 0002:00004858       ??_C@_04HJMOFLDF@Free?$AA@ 10073858     LIBCD:dbgheap.obj
 0002:00004860       ??_C@_0DC@JEMAGEKG@Error?3?5memory?5allocation?3?5bad?5me@ 10073860     LIBCD:dbgheap.obj
 0002:00004894       ??_C@_0CF@BICKFLAF@Invalid?5allocation?5size?3?5?$CFIu?5byt@ 10073894     LIBCD:dbgheap.obj
 0002:000048bc       ??_C@_02DKCKIIND@?$CFs?$AA@ 100738bc     LIBCD:dbgheap.obj
 0002:000048c0       ??_C@_0CB@CCLOLAHO@Client?5hook?5allocation?5failure?4?6@ 100738c0     LIBCD:dbgheap.obj
 0002:000048e4       ??_C@_0DF@BBEGIFEK@Client?5hook?5allocation?5failure?5a@ 100738e4     LIBCD:dbgheap.obj
 0002:0000491c       ??_C@_09DPMMACIH@dbgheap?4c?$AA@ 1007391c     LIBCD:dbgheap.obj
 0002:00004928       ??_C@_0BC@FKEPGOPH@_CrtCheckMemory?$CI?$CJ?$AA@ 10073928     LIBCD:dbgheap.obj
 0002:0000493c       ??_C@_0BK@DJDKJKNJ@_pFirstBlock?5?$DN?$DN?5pOldBlock?$AA@ 1007393c     LIBCD:dbgheap.obj
 0002:00004958       ??_C@_0BJ@PGMLBCKP@_pLastBlock?5?$DN?$DN?5pOldBlock?$AA@ 10073958     LIBCD:dbgheap.obj
 0002:00004974       ??_C@_0DC@LIEEBBFH@fRealloc?5?$HM?$HM?5?$CI?$CBfRealloc?5?$CG?$CG?5pNewBl@ 10073974     LIBCD:dbgheap.obj
 0002:000049a8       ??_C@_0EF@BKJNHFDP@pOldBlock?9?$DOnLine?5?$DN?$DN?5IGNORE_LINE?5@ 100739a8     LIBCD:dbgheap.obj
 0002:000049f0       ??_C@_0CC@MCCNOMLK@_CrtIsValidHeapPointer?$CIpUserData@ 100739f0     LIBCD:dbgheap.obj
 0002:00004a18       ??_C@_0EM@LGFLMAGJ@The?5Block?5at?50x?$CFp?5was?5allocated?5@ 10073a18     LIBCD:dbgheap.obj
 0002:00004a64       ??_C@_0CO@KPNFNEPA@Allocation?5too?5large?5or?5negative@ 10073a64     LIBCD:dbgheap.obj
 0002:00004a94       ??_C@_0CE@DOFMDOL@Client?5hook?5re?9allocation?5failur@ 10073a94     LIBCD:dbgheap.obj
 0002:00004ab8       ??_C@_0DI@KKJPDPGM@Client?5hook?5re?9allocation?5failur@ 10073ab8     LIBCD:dbgheap.obj
 0002:00004af0       ??_C@_0BG@JDINNDDC@_pFirstBlock?5?$DN?$DN?5pHead?$AA@ 10073af0     LIBCD:dbgheap.obj
 0002:00004b08       ??_C@_0BF@LMGMGAEG@_pLastBlock?5?$DN?$DN?5pHead?$AA@ 10073b08     LIBCD:dbgheap.obj
 0002:00004b20       ??_C@_0BO@LGCGBMOH@pHead?9?$DOnBlockUse?5?$DN?$DN?5nBlockUse?$AA@ 10073b20     LIBCD:dbgheap.obj
 0002:00004b40       ??_C@_0DN@GKKPDMLN@pHead?9?$DOnLine?5?$DN?$DN?5IGNORE_LINE?5?$CG?$CG?5p@ 10073b40     LIBCD:dbgheap.obj
 0002:00004b80       ??_C@_0CI@CMGHMNIC@DAMAGE?3?5after?5?$CFhs?5block?5?$CI?$CD?$CFd?$CJ?5at@ 10073b80     LIBCD:dbgheap.obj
 0002:00004ba8       ??_C@_0CJ@OHOOBLKI@DAMAGE?3?5before?5?$CFhs?5block?5?$CI?$CD?$CFd?$CJ?5a@ 10073ba8     LIBCD:dbgheap.obj
 0002:00004bd4       ??_C@_0BL@KEIPLFAC@Client?5hook?5free?5failure?4?6?$AA@ 10073bd4     LIBCD:dbgheap.obj
 0002:00004bf0       ??_C@_0EJ@HEIBCIMJ@The?5Block?5at?50x?$CFp?5was?5allocated?5@ 10073bf0     LIBCD:dbgheap.obj
 0002:00004c3c       ??_C@_0CI@JMLBEDHJ@?$CFhs?5located?5at?50x?$CFp?5is?5?$CFIu?5bytes@ 10073c3c     LIBCD:dbgheap.obj
 0002:00004c64       ??_C@_0CA@FGFAGAOM@?$CFhs?5allocated?5at?5file?5?$CFhs?$CI?$CFd?$CJ?4?6?$AA@ 10073c64     LIBCD:dbgheap.obj
 0002:00004c84       ??_C@_0CH@JKKAOBEK@DAMAGE?3?5on?5top?5of?5Free?5block?5at?5@ 10073c84     LIBCD:dbgheap.obj
 0002:00004cac       ??_C@_07OHKEFPKJ@DAMAGED?$AA@ 10073cac     LIBCD:dbgheap.obj
 0002:00004cb4       ??_C@_0CL@HNNNMKMJ@_heapchk?5fails?5with?5unknown?5retu@ 10073cb4     LIBCD:dbgheap.obj
 0002:00004ce0       ??_C@_0CC@MFFCHFHO@_heapchk?5fails?5with?5_HEAPBADPTR?4@ 10073ce0     LIBCD:dbgheap.obj
 0002:00004d04       ??_C@_0CC@MJGLGBDG@_heapchk?5fails?5with?5_HEAPBADEND?4@ 10073d04     LIBCD:dbgheap.obj
 0002:00004d28       ??_C@_0CD@CPKEAPBD@_heapchk?5fails?5with?5_HEAPBADNODE@ 10073d28     LIBCD:dbgheap.obj
 0002:00004d4c       ??_C@_0CE@MKKHMBMK@_heapchk?5fails?5with?5_HEAPBADBEGI@ 10073d4c     LIBCD:dbgheap.obj
 0002:00004d70       ??_C@_0CB@EAAIGELO@Bad?5memory?5block?5found?5at?50x?$CFp?4?6@ 10073d70     LIBCD:dbgheap.obj
 0002:00004d94       ??_C@_0CI@KDKEAJEJ@_CrtMemCheckPoint?3?5NULL?5state?5po@ 10073d94     LIBCD:dbgheap.obj
 0002:00004dbc       ??_C@_0CI@ENCLCMLG@_CrtMemDifference?3?5NULL?5state?5po@ 10073dbc     LIBCD:dbgheap.obj
 0002:00004de4       ??_C@_0BH@GFGKJDCO@Object?5dump?5complete?4?6?$AA@ 10073de4     LIBCD:dbgheap.obj
 0002:00004dfc       ??_C@_0DA@MDLBNIBM@crt?5block?5at?50x?$CFp?0?5subtype?5?$CFx?0?5?$CF@ 10073dfc     LIBCD:dbgheap.obj
 0002:00004e2c       ??_C@_0CH@FAGDDGPN@normal?5block?5at?50x?$CFp?0?5?$CFIu?5bytes?5@ 10073e2c     LIBCD:dbgheap.obj
 0002:00004e54       ??_C@_0DD@GHNAAKBB@client?5block?5at?50x?$CFp?0?5subtype?5?$CFx@ 10073e54     LIBCD:dbgheap.obj
 0002:00004e88       ??_C@_06PKLGBFGM@?$HL?$CFld?$HN?5?$AA@ 10073e88     LIBCD:dbgheap.obj
 0002:00004e90       ??_C@_0L@JMEFFCCJ@?$CFhs?$CI?$CFd?$CJ?5?3?5?$AA@ 10073e90     LIBCD:dbgheap.obj
 0002:00004e9c       ??_C@_0BE@OIEFNFL@?$CDFile?5Error?$CD?$CI?$CFd?$CJ?5?3?5?$AA@ 10073e9c     LIBCD:dbgheap.obj
 0002:00004eb0       ??_C@_0BE@KCIPKCIA@Dumping?5objects?5?9?$DO?6?$AA@ 10073eb0     LIBCD:dbgheap.obj
 0002:00004ec4       ??_C@_0BA@HJBKCELP@?5Data?3?5?$DM?$CFs?$DO?5?$CFs?6?$AA@ 10073ec4     LIBCD:dbgheap.obj
 0002:00004ed4       ??_C@_05MKKEDADM@?$CF?42X?5?$AA@ 10073ed4     LIBCD:dbgheap.obj
 0002:00004edc       ??_C@_0BI@JBFPOEJA@Detected?5memory?5leaks?$CB?6?$AA@ 10073edc     LIBCD:dbgheap.obj
 0002:00004ef4       ??_C@_0BP@DEDHGGGI@Total?5allocations?3?5?$CFId?5bytes?4?6?$AA@ 10073ef4     LIBCD:dbgheap.obj
 0002:00004f14       ??_C@_0CB@BLHDAFNE@Largest?5number?5used?3?5?$CFId?5bytes?4?6@ 10073f14     LIBCD:dbgheap.obj
 0002:00004f38       ??_C@_0BO@DACNIABB@?$CFId?5bytes?5in?5?$CFId?5?$CFhs?5Blocks?4?6?$AA@ 10073f38     LIBCD:dbgheap.obj
 0002:00004f58       ??_C@_0CC@GFBJAAAH@?$CI?$CCoffset?5must?5be?5within?5size?$CC?0?50@ 10073f58     LIBCD:dbgheap.obj
 0002:00004f7c       ??_C@_0CF@PGBEDOC@?$CI?$CCalignment?5must?5be?5a?5power?5of?52@ 10073f7c     LIBCD:dbgheap.obj
 0002:00004fa4       ??_C@_0DL@PGHMMKNE@Damage?5before?50x?$CFp?5which?5was?5all@ 10073fa4     LIBCD:dbgheap.obj
 0002:00004fe0       ??_C@_0EI@NDNJMAJK@The?5block?5at?50x?$CFp?5was?5not?5alloca@ 10073fe0     LIBCD:dbgheap.obj
 0002:00005028       ??_C@_0EF@PGELACII@The?5block?5at?50x?$CFp?5was?5not?5alloca@ 10074028     LIBCD:dbgheap.obj
 0002:00005070       ??_C@_0DA@KHEJFFIK@f?3?2vs70builds?23077?2vc?2crtbld?2crt@ 10074070     LIBCD:vsnprint.obj
 0002:000050b4       ??_C@_0BO@GNIAFIKK@Unknown?5Runtime?5Check?5Error?6?$AN?$AA@ 100740b4     LIBCD:error.obj
 0002:000050d4       ??_C@_0DG@HKJMLLLP@A?5local?5variable?5was?5used?5before@ 100740d4     LIBCD:error.obj
 0002:0000510c       ??_C@_0BN@FFOINMNJ@Stack?5memory?5was?5corrupted?6?$AN?$AA@ 1007410c     LIBCD:error.obj
 0002:00005130       ??_C@_0BBN@GPMLNJCF@A?5cast?5to?5a?5smaller?5data?5type?5ha@ 10074130     LIBCD:error.obj
 0002:00005250       ??_C@_0NN@NGPKDKPD@The?5value?5of?5ESP?5was?5not?5properl@ 10074250     LIBCD:error.obj
 0002:00005330       ??_C@_0CA@IODNCDPG@Run?9Time?5Check?5Failure?5?$CD?$CFd?5?9?5?$CFs?$AA@ 10074330     LIBCD:error.obj
 0002:0000536c       ??_C@_0L@CJCNHJJG@?6?$ANModule?3?7?$AA@ 1007436c     LIBCD:error.obj
 0002:00005378       ??_C@_08GJEJCAJD@?6?$ANLine?3?7?$AA@ 10074378     LIBCD:error.obj
 0002:00005384       ??_C@_0CI@INCLAPNB@Invalid?5pointer?5was?5assigned?5at?6@ 10074384     LIBCD:error.obj
 0002:000053ac       ??_C@_0BB@JEGFEAAM@?8?5was?5corrupted?4?$AA@ 100743ac     LIBCD:error.obj
 0002:000053c0       ??_C@_0BM@FGFAMDLF@Stack?5around?5the?5variable?5?8?$AA@ 100743c0     LIBCD:error.obj
 0002:000053dc       ??_C@_0DA@BEGFPCGG@A?5variable?5is?5being?5used?5without@ 100743dc     LIBCD:error.obj
 0002:0000540c       ??_C@_0CH@LOIIHGKM@?8?5is?5being?5used?5without?5being?5de@ 1007440c     LIBCD:error.obj
 0002:00005434       ??_C@_0P@HLKMHJCG@The?5variable?5?8?$AA@ 10074434     LIBCD:error.obj
 0002:00005444       ??_C@_0BC@KNBMEBEO@IsDebuggerPresent?$AA@ 10074444     LIBCD:error.obj
 0002:00005458       ??_C@_0N@HAOHNMDE@Kernel32?4dll?$AA@ 10074458     LIBCD:error.obj
 0002:00005468       ??_C@_0CK@CNLNOEPB@Local?5variable?5used?5before?5initi@ 10074468     LIBCD:userapi.obj
 0002:00005494       ??_C@_0BI@CIGMDCBH@Stack?5memory?5corruption?$AA@ 10074494     LIBCD:userapi.obj
 0002:000054ac       ??_C@_0CK@FEGOIOPB@Cast?5to?5smaller?5type?5causing?5los@ 100744ac     LIBCD:userapi.obj
 0002:000054d8       ??_C@_0BJ@HEGAHDFO@Stack?5pointer?5corruption?$AA@ 100744d8     LIBCD:userapi.obj
 0002:000054f4       ??_C@_0O@NJIIDJEH@i386?2chkesp?4c?$AA@ 100744f4     LIBCD:chkesp.obj
 0002:00005508       ??_C@_0NM@DNEDKLDF@The?5value?5of?5ESP?5was?5not?5properl@ 10074508     LIBCD:chkesp.obj
 0002:00005678       __real@4150017ec0000000    10074678     LIBCD:testfdiv.obj
 0002:00005680       __real@4147ffff80000000    10074680     LIBCD:testfdiv.obj
 0002:00005688       ??_C@_0BK@NHEOCAHP@IsProcessorFeaturePresent?$AA@ 10074688     LIBCD:testfdiv.obj
 0002:000056a4       ??_C@_08CPNIBGIE@KERNEL32?$AA@ 100746a4     LIBCD:testfdiv.obj
 0002:000056b0       ??_C@_05KLBDPFGC@e?$CL000?$AA@ 100746b0     LIBCD:cvt.obj
 0002:000056b8       ??_C@_0BB@NAGLCMLI@Assertion?5Failed?$AA@ 100746b8     LIBCD:dbgrpt.obj
 0002:000056cc       ??_C@_05NAOIJFC@Error?$AA@ 100746cc     LIBCD:dbgrpt.obj
 0002:000056d4       ??_C@_07KGMMFLDN@Warning?$AA@ 100746d4     LIBCD:dbgrpt.obj
 0002:000056dc       ??_C@_08ODMAMGBE@dbgrpt?4c?$AA@ 100746dc     LIBCD:dbgrpt.obj
 0002:000056e8       ??_C@_0M@IPILFDFN@?$CFs?$CI?$CFd?$CJ?5?3?5?$CFs?$AA@ 100746e8     LIBCD:dbgrpt.obj
 0002:000056f4       ??_C@_01LIIJDEN@?$AN?$AA@  100746f4     LIBCD:dbgrpt.obj
 0002:000056f8       ??_C@_0BC@LAIDCHCH@Assertion?5failed?$CB?$AA@ 100746f8     LIBCD:dbgrpt.obj
 0002:0000570c       ??_C@_0BD@CAENFOHP@Assertion?5failed?3?5?$AA@ 1007470c     LIBCD:dbgrpt.obj
 0002:00005720       ??_C@_0CL@EACFGMNB@_CrtDbgReport?3?5String?5too?5long?5o@ 10074720     LIBCD:dbgrpt.obj
 0002:0000574c       ??_C@_0DC@HLHDIIKH@Second?5Chance?5Assertion?5Failed?3?5@ 1007474c     LIBCD:dbgrpt.obj
 0002:00005780       ??_C@_09FOPFMPEJ@wsprintfA?$AA@ 10074780     LIBCD:dbgrpt.obj
 0002:0000578c       ??_C@_0L@GMPLCCII@user32?4dll?$AA@ 1007478c     LIBCD:dbgrpt.obj
 0002:00005798       ??_C@_0CD@EBCGLDDL@Microsoft?5Visual?5C?$CL?$CL?5Debug?5Libra@ 10074798     LIBCD:dbgrpt.obj
 0002:000057c0       ??_C@_0FD@IIKNDPHJ@Debug?5?$CFs?$CB?6?6Program?3?5?$CFs?$CFs?$CFs?$CFs?$CFs?$CFs@ 100747c0     LIBCD:dbgrpt.obj
 0002:00005814       ??_C@_09OFBFHMBK@?6Module?3?5?$AA@ 10074814     LIBCD:dbgrpt.obj
 0002:00005820       ??_C@_07OPHPPLBG@?6File?3?5?$AA@ 10074820     LIBCD:dbgrpt.obj
 0002:00005828       ??_C@_07DBMPPHDI@?6Line?3?5?$AA@ 10074828     LIBCD:dbgrpt.obj
 0002:00005830       ??_C@_02PHMGELLB@?6?6?$AA@ 10074830     LIBCD:dbgrpt.obj
 0002:00005834       ??_C@_0N@MEECIJGN@Expression?3?5?$AA@ 10074834     LIBCD:dbgrpt.obj
 0002:00005848       ??_C@_0HD@GNBNFCCL@?6?6For?5information?5on?5how?5your?5pr@ 10074848     LIBCD:dbgrpt.obj
 0002:000058bc       ??_C@_03KHICJKCI@?4?4?4?$AA@ 100748bc     LIBCD:dbgrpt.obj
 0002:000058c0       ??_C@_0BH@DNAGHKFM@?$DMprogram?5name?5unknown?$DO?$AA@ 100748c0     LIBCD:dbgrpt.obj
 0002:000058d8       ??_C@_0BG@IHOEIIEJ@szUserMessage?5?$CB?$DN?5NULL?$AA@ 100748d8     LIBCD:dbgrpt.obj
 0002:000058f0       ??_C@_0DP@FICHPIPH@?$CI?$CCinconsistent?5IOB?5fields?$CC?0?5stre@ 100748f0     LIBCD:_flsbuf.obj
 0002:00005930       ??_C@_09DHJHPHJP@_flsbuf?4c?$AA@ 10074930     LIBCD:_flsbuf.obj
 0002:00005940       ___lookuptable             10074940     LIBCD:output.obj
 0002:0000599c       ??_C@_1O@CEDCILHN@?$AA?$CI?$AAn?$AAu?$AAl?$AAl?$AA?$CJ?$AA?$AA@ 1007499c     LIBCD:output.obj
 0002:000059ac       ??_C@_06OJHGLDPL@?$CInull?$CJ?$AA@ 100749ac     LIBCD:output.obj
 0002:000059b4       ??_C@_08MEPFMIND@output?4c?$AA@ 100749b4     LIBCD:output.obj
 0002:000059c0       ??_C@_0P@LGFCLPDP@ch?5?$CB?$DN?5_T?$CI?8?20?8?$CJ?$AA@ 100749c0     LIBCD:output.obj
 0002:000059d0       ??_C@_0P@FELNCIKG@stream?5?$CB?$DN?5NULL?$AA@ 100749d0     LIBCD:input.obj
 0002:000059e0       ??_C@_07CMLOKKIF@input?4c?$AA@ 100749e0     LIBCD:input.obj
 0002:000059f4       ??_C@_07FEAFKIIG@a_map?4c?$AA@ 100749f4     LIBCD:a_map.obj
 0002:000059fc       ??_C@_13NOLLCAOD@?$AA?$AA?$AA?$AA@ 100749fc     LIBCD:a_map.obj
 0002:00005a34       ??_C@_07JGCPNLLC@_open?4c?$AA@ 10074a34     LIBCD:_open.obj
 0002:00005a3c       ??_C@_0BB@KFELMOAG@filename?5?$CB?$DN?5NULL?$AA@ 10074a3c     LIBCD:_open.obj
 0002:00005a50       ??_C@_08MKBBPGGN@stream?4c?$AA@ 10074a50     LIBCD:stream.obj
 0002:00005a5c       ??_C@_0L@CKFHAPLH@_freebuf?4c?$AA@ 10074a5c     LIBCD:_freebuf.obj
 0002:00005a68       ??_C@_09OOOBBFNM@_filbuf?4c?$AA@ 10074a68     LIBCD:_filbuf.obj
 0002:00005a74       ??_C@_08MAFBHINM@ioinit?4c?$AA@ 10074a74     LIBCD:ioinit.obj
 0002:00005a80       ??_C@_09HCDLHOJP@stdenvp?4c?$AA@ 10074a80     LIBCD:stdenvp.obj
 0002:00005a8c       ??_C@_09IKILHJIC@stdargv?4c?$AA@ 10074a8c     LIBCD:stdargv.obj
 0002:00005a98       ??_C@_07BPGNOCOG@a_env?4c?$AA@ 10074a98     LIBCD:a_env.obj
 0002:00005abc       ??_C@_0P@GGKDKEEG@runtime?5error?5?$AA@ 10074abc     LIBCD:crt0msg.obj
 0002:00005acc       ??_C@_02PCIJFNDE@?$AN?6?$AA@ 10074acc     LIBCD:crt0msg.obj
 0002:00005ad0       ??_C@_0O@MJNIPGOH@TLOSS?5error?$AN?6?$AA@ 10074ad0     LIBCD:crt0msg.obj
 0002:00005ae0       ??_C@_0N@BONNPDHF@SING?5error?$AN?6?$AA@ 10074ae0     LIBCD:crt0msg.obj
 0002:00005af0       ??_C@_0P@MBDAJNE@DOMAIN?5error?$AN?6?$AA@ 10074af0     LIBCD:crt0msg.obj
 0002:00005b00       ??_C@_0KC@BDDGGBEJ@R6029?$AN?6?9?5This?5application?5cannot@ 10074b00     LIBCD:crt0msg.obj
 0002:00005ba4       ??_C@_0CF@KJDAIALP@R6028?$AN?6?9?5unable?5to?5initialize?5he@ 10074ba4     LIBCD:crt0msg.obj
 0002:00005bcc       ??_C@_0DF@GAKBPDFP@R6027?$AN?6?9?5not?5enough?5space?5for?5lo@ 10074bcc     LIBCD:crt0msg.obj
 0002:00005c04       ??_C@_0DF@IBLNNAIG@R6026?$AN?6?9?5not?5enough?5space?5for?5st@ 10074c04     LIBCD:crt0msg.obj
 0002:00005c3c       ??_C@_0CG@IOHKGFNJ@R6025?$AN?6?9?5pure?5virtual?5function?5c@ 10074c3c     LIBCD:crt0msg.obj
 0002:00005c64       ??_C@_0DF@JIJJFJDC@R6024?$AN?6?9?5not?5enough?5space?5for?5_o@ 10074c64     LIBCD:crt0msg.obj
 0002:00005c9c       ??_C@_0CJ@EGEJHFME@R6019?$AN?6?9?5unable?5to?5open?5console?5@ 10074c9c     LIBCD:crt0msg.obj
 0002:00005cc8       ??_C@_0CB@GNHNIELH@R6018?$AN?6?9?5unexpected?5heap?5error?$AN?6@ 10074cc8     LIBCD:crt0msg.obj
 0002:00005cec       ??_C@_0CN@FOLDKNG@R6017?$AN?6?9?5unexpected?5multithread?5@ 10074cec     LIBCD:crt0msg.obj
 0002:00005d1c       ??_C@_0CM@FAHFJNHO@R6016?$AN?6?9?5not?5enough?5space?5for?5th@ 10074d1c     LIBCD:crt0msg.obj
 0002:00005d48       ??_C@_0JG@LBKMGKLD@?$AN?6This?5application?5has?5requested@ 10074d48     LIBCD:crt0msg.obj
 0002:00005de0       ??_C@_0CM@FLCNIPKK@R6009?$AN?6?9?5not?5enough?5space?5for?5en@ 10074de0     LIBCD:crt0msg.obj
 0002:00005e0c       ??_C@_0CK@KMMJOAPP@R6008?$AN?6?9?5not?5enough?5space?5for?5ar@ 10074e0c     LIBCD:crt0msg.obj
 0002:00005e38       ??_C@_0CF@HOHMHDEK@R6002?$AN?6?9?5floating?5point?5not?5load@ 10074e38     LIBCD:crt0msg.obj
 0002:00005e60       ??_C@_0CF@GOGNBNAK@Microsoft?5Visual?5C?$CL?$CL?5Runtime?5Lib@ 10074e60     LIBCD:crt0msg.obj
 0002:00005e88       ??_C@_0BK@OFGJDLJJ@Runtime?5Error?$CB?6?6Program?3?5?$AA@ 10074e88     LIBCD:crt0msg.obj
 0002:00005eb4       ??_C@_09BLOOPMDK@isctype?4c?$AA@ 10074eb4     LIBCD:isctype.obj
 0002:00005ec0       ??_C@_0BJ@IAKBGELC@?$CIunsigned?$CJ?$CIc?5?$CL?51?$CJ?5?$DM?$DN?5256?$AA@ 10074ec0     LIBCD:isctype.obj
 0002:00009828       __DEFAULT_CW_in_mem        10078828     LIBCD:common.obj
 0002:0000982a       __pi_by_2_to_61            1007882a     LIBCD:common.obj
 0002:00009868       __real@4000000000000000    10078868     LIBCD:powhlp.obj
 0002:000098d8       ??_C@_04EHEDPDJG@modf?$AA@ 100788d8     LIBCD:libm_error.obj
 0002:000098e0       ??_C@_05PBJFFIGL@floor?$AA@ 100788e0     LIBCD:libm_error.obj
 0002:000098e8       ??_C@_04GFPJNGEK@ceil?$AA@ 100788e8     LIBCD:libm_error.obj
 0002:000098f0       ??_C@_04MLLJIGOK@atan?$AA@ 100788f0     LIBCD:libm_error.obj
 0002:000098f8       ??_C@_05EOHGHCHD@exp10?$AA@ 100788f8     LIBCD:libm_error.obj
 0002:00009900       ??_C@_04HPAFEEIN@exp2?$AA@ 10078900     LIBCD:libm_error.obj
 0002:00009908       ??_C@_04KGLCPMCP@log2?$AA@ 10078908     LIBCD:libm_error.obj
 0002:00009910       ??_C@_03JGHBODFD@pow?$AA@  10078910     LIBCD:libm_error.obj
 0002:00009914       ??_C@_03KHJOGHMM@exp?$AA@  10078914     LIBCD:libm_error.obj
 0002:00009918       ??_C@_05HGHHAHAP@log10?$AA@ 10078918     LIBCD:libm_error.obj
 0002:00009920       ??_C@_03MGHMBJCF@log?$AA@  10078920     LIBCD:libm_error.obj
 0002:00009924       ??_C@_0L@KDOEJCKC@_nextafter?$AA@ 10078924     LIBCD:fpexcept.obj
 0002:00009930       ??_C@_05JGDBENOH@_logb?$AA@ 10078930     LIBCD:fpexcept.obj
 0002:00009938       ??_C@_03ONILCKOB@_yn?$AA@  10078938     LIBCD:fpexcept.obj
 0002:0000993c       ??_C@_03NAKIGLHK@_y1?$AA@  1007893c     LIBCD:fpexcept.obj
 0002:00009940       ??_C@_03MJLDFKDL@_y0?$AA@  10078940     LIBCD:fpexcept.obj
 0002:00009944       ??_C@_05GKKHEGJL@frexp?$AA@ 10078944     LIBCD:fpexcept.obj
 0002:0000994c       ??_C@_04KEPJIHGP@fmod?$AA@ 1007894c     LIBCD:fpexcept.obj
 0002:00009954       ??_C@_06MEIMCGCF@_hypot?$AA@ 10078954     LIBCD:fpexcept.obj
 0002:0000995c       ??_C@_05KBKMEMPO@_cabs?$AA@ 1007895c     LIBCD:fpexcept.obj
 0002:00009964       ??_C@_05CEJMAHNP@ldexp?$AA@ 10078964     LIBCD:fpexcept.obj
 0002:0000996c       ??_C@_04ODHECPBC@fabs?$AA@ 1007896c     LIBCD:fpexcept.obj
 0002:00009974       ??_C@_03IIINPABG@tan?$AA@  10078974     LIBCD:fpexcept.obj
 0002:00009978       ??_C@_03LALBNOCG@cos?$AA@  10078978     LIBCD:fpexcept.obj
 0002:0000997c       ??_C@_03BLEJJJBH@sin?$AA@  1007897c     LIBCD:fpexcept.obj
 0002:00009980       ??_C@_04EIAKFFMI@sqrt?$AA@ 10078980     LIBCD:fpexcept.obj
 0002:00009988       ??_C@_05KNGEOGJB@atan2?$AA@ 10078988     LIBCD:fpexcept.obj
 0002:00009990       ??_C@_04PDIFKINK@acos?$AA@ 10078990     LIBCD:fpexcept.obj
 0002:00009998       ??_C@_04FIHNOPOL@asin?$AA@ 10078998     LIBCD:fpexcept.obj
 0002:000099a0       ??_C@_04FJHINJAO@tanh?$AA@ 100789a0     LIBCD:fpexcept.obj
 0002:000099a8       ??_C@_04HPJJNFIM@cosh?$AA@ 100789a8     LIBCD:fpexcept.obj
 0002:000099b0       ??_C@_04COOMCNPB@sinh?$AA@ 100789b0     LIBCD:fpexcept.obj
 0002:000099b8       ??_C@_0M@HHEBEAAO@MSPDB71?4DLL?$AA@ 100789b8     LIBCD:pdblkup.obj
 0002:000099c4       ??_C@_08ONJBEOFA@PDBClose?$AA@ 100789c4     LIBCD:pdblkup.obj
 0002:000099d0       ??_C@_08NINFAAFA@DBIClose?$AA@ 100789d0     LIBCD:pdblkup.obj
 0002:000099dc       ??_C@_08LIGPJJNA@ModClose?$AA@ 100789dc     LIBCD:pdblkup.obj
 0002:000099e8       ??_C@_0O@IPLOKOKN@ModQueryLines?$AA@ 100789e8     LIBCD:pdblkup.obj
 0002:000099f8       ??_C@_0BE@GDNPNLGH@DBIQueryModFromAddr?$AA@ 100789f8     LIBCD:pdblkup.obj
 0002:00009a0c       ??_C@_0L@KPMOCKEL@PDBOpenDBI?$AA@ 10078a0c     LIBCD:pdblkup.obj
 0002:00009a18       ??_C@_0BB@PENKIMFE@PDBOpenValidate3?$AA@ 10078a18     LIBCD:pdblkup.obj
 0002:00009a2c       ??_C@_0N@KIGOLBLC@Module32Next?$AA@ 10078a2c     LIBCD:pdblkup.obj
 0002:00009a3c       ??_C@_0O@CNMFJJGO@Module32First?$AA@ 10078a3c     LIBCD:pdblkup.obj
 0002:00009a4c       ??_C@_0BF@OCLFCNKN@GetModuleInformation?$AA@ 10078a4c     LIBCD:pdblkup.obj
 0002:00009a64       ??_C@_0BD@FIEJBLME@EnumProcessModules?$AA@ 10078a64     LIBCD:pdblkup.obj
 0002:00009a78       ??_C@_09EPMADGLA@PSAPI?4DLL?$AA@ 10078a78     LIBCD:pdblkup.obj
 0002:00009a84       ??_C@_0BJ@JEFKDHMD@CreateToolhelp32Snapshot?$AA@ 10078a84     LIBCD:pdblkup.obj
 0002:00009aa0       ??_C@_0O@CHDGJGFP@ImageNtHeader?$AA@ 10078aa0     LIBCD:pdblkup.obj
 0002:00009ab0       ??_C@_0N@KBGMOMJO@IMAGEHLP?4DLL?$AA@ 10078ab0     LIBCD:pdblkup.obj
 0002:00009ac0       ??_C@_0N@NHGLKGEC@KERNEL32?4DLL?$AA@ 10078ac0     LIBCD:pdblkup.obj
 0002:00009ad0       ??_C@_0BF@BMIHBHCA@EnvironmentDirectory?$AA@ 10078ad0     LIBCD:pdblkup.obj
 0002:00009ae8       ??_C@_0CN@KGLAKABH@SOFTWARE?2Microsoft?2VisualStudio?2@ 10078ae8     LIBCD:pdblkup.obj
 0002:00009b18       ??_C@_0M@HLOHPNFA@RegCloseKey?$AA@ 10078b18     LIBCD:pdblkup.obj
 0002:00009b24       ??_C@_0BB@HHEIPGME@RegQueryValueExA?$AA@ 10078b24     LIBCD:pdblkup.obj
 0002:00009b38       ??_C@_0O@DCOGKJGG@RegOpenKeyExA?$AA@ 10078b38     LIBCD:pdblkup.obj
 0002:00009b48       ??_C@_0N@JJPEKNFO@ADVAPI32?4DLL?$AA@ 10078b48     LIBCD:pdblkup.obj
 0002:00009b58       ??_C@_0CP@PEILCOHB@f?3?2vs70builds?23077?2vc?2crtbld?2crt@ 10078b58     LIBCD:snprintf.obj
 0002:00009b88       ??_C@_0BI@DFKBFLJE@GetProcessWindowStation?$AA@ 10078b88     LIBCD:crtmbox.obj
 0002:00009ba0       ??_C@_0BK@CIDNPOGP@GetUserObjectInformationA?$AA@ 10078ba0     LIBCD:crtmbox.obj
 0002:00009bbc       ??_C@_0BD@HHGDFDBJ@GetLastActivePopup?$AA@ 10078bbc     LIBCD:crtmbox.obj
 0002:00009bd0       ??_C@_0BA@HNOPNCHB@GetActiveWindow?$AA@ 10078bd0     LIBCD:crtmbox.obj
 0002:00009be0       ??_C@_0M@CHKKJDAI@MessageBoxA?$AA@ 10078be0     LIBCD:crtmbox.obj
 0002:00009bec       ??_C@_09PKAEMGHJ@_getbuf?4c?$AA@ 10078bec     LIBCD:_getbuf.obj
 0002:00009bf8       ??_C@_07PNHPCIEC@_file?4c?$AA@ 10078bf8     LIBCD:_file.obj
 0002:00009c00       ___newctype                10078c00     LIBCD:ctype.obj
 0002:00009f00       __wctype                   10078f00     LIBCD:ctype.obj
 0002:0000a104       ??_C@_08NJPDFEGP@mbtowc?4c?$AA@ 10079104     LIBCD:mbtowc.obj
 0002:0000a110       ??_C@_0CD@GKGBOFGL@MB_CUR_MAX?5?$DN?$DN?51?5?$HM?$HM?5MB_CUR_MAX?5?$DN?$DN@ 10079110     LIBCD:mbtowc.obj
 0002:0000a134       ??_C@_08CJEJHOKM@ungetc?4c?$AA@ 10079134     LIBCD:ungetc.obj
 0002:0000a140       ??_C@_0L@KBNGFDKM@convrtcp?4c?$AA@ 10079140     LIBCD:convrtcp.obj
 0002:0000a15c       ??_C@_09KLGCKDOD@Program?3?5?$AA@ 1007915c     LIBCD:secfail.obj
 0002:0000a168       ??_C@_0KA@JEHFIFGP@A?5buffer?5overrun?5has?5been?5detect@ 10079168     LIBCD:secfail.obj
 0002:0000a208       ??_C@_0BJ@MDEKIEOJ@Buffer?5overrun?5detected?$CB?$AA@ 10079208     LIBCD:secfail.obj
 0002:0000a228       ??_C@_0LB@BPLHHLFD@A?5security?5error?5of?5unknown?5caus@ 10079228     LIBCD:secfail.obj
 0002:0000a2dc       ??_C@_0CD@GMKACBEK@Unknown?5security?5failure?5detecte@ 100792dc     LIBCD:secfail.obj
 0002:0000a30c       ??_C@_09MGNHMPHC@osfinfo?4c?$AA@ 1007930c     LIBCD:osfinfo.obj
 0002:0000a318       ??_C@_07GPNABLBE@a_str?4c?$AA@ 10079318     LIBCD:a_str.obj
 0002:0000a32c       ??_C@_06IMKFLFPG@1?$CDQNAN?$AA@ 1007932c     LIBCD:x10fout.obj
 0002:0000a334       ??_C@_05DNEBIAHO@1?$CDINF?$AA@ 10079334     LIBCD:x10fout.obj
 0002:0000a33c       ??_C@_05PHHOCPM@1?$CDIND?$AA@ 1007933c     LIBCD:x10fout.obj
 0002:0000a344       ??_C@_06PGGFOGJG@1?$CDSNAN?$AA@ 10079344     LIBCD:x10fout.obj
 0002:0000a34c       ??_C@_08EOPENFML@chsize?4c?$AA@ 1007934c     LIBCD:chsize.obj
 0002:0000a358       ??_C@_09OJCCCDEJ@size?5?$DO?$DN?50?$AA@ 10079358     LIBCD:chsize.obj
 0002:0000a3c4       ??_R1A@?0A@A@exception@@8  100793c4     libcpd:string.obj
 0002:0000a3dc       ??_R1A@?0A@A@logic_error@std@@8 100793dc     libcpd:string.obj
 0002:0000a3f4       ??_R1A@?0A@A@length_error@std@@8 100793f4     libcpd:string.obj
 0002:0000a40c       ??_R2length_error@std@@8   1007940c     libcpd:string.obj
 0002:0000a41c       ??_R3length_error@std@@8   1007941c     libcpd:string.obj
 0002:0000a42c       ??_R4length_error@std@@6B@ 1007942c     libcpd:string.obj
 0002:0000a440       ??_R2logic_error@std@@8    10079440     libcpd:string.obj
 0002:0000a44c       ??_R3logic_error@std@@8    1007944c     libcpd:string.obj
 0002:0000a45c       ??_R4logic_error@std@@6B@  1007945c     libcpd:string.obj
 0002:0000a470       ??_R1A@?0A@A@out_of_range@std@@8 10079470     libcpd:string.obj
 0002:0000a488       ??_R2out_of_range@std@@8   10079488     libcpd:string.obj
 0002:0000a498       ??_R3out_of_range@std@@8   10079498     libcpd:string.obj
 0002:0000a4a8       ??_R4out_of_range@std@@6B@ 100794a8     libcpd:string.obj
 0002:0000a4bc       ??_R1A@?0A@A@bad_alloc@std@@8 100794bc     libcpd:nomemory.obj
 0002:0000a4d4       ??_R2bad_alloc@std@@8      100794d4     libcpd:nomemory.obj
 0002:0000a4e0       ??_R3bad_alloc@std@@8      100794e0     libcpd:nomemory.obj
 0002:0000a4f0       ??_R4bad_alloc@std@@6B@    100794f0     libcpd:nomemory.obj
 0002:0000a504       ??_R2exception@@8          10079504     LIBCD:stdexcpt.obj
 0002:0000a50c       ??_R3exception@@8          1007950c     LIBCD:stdexcpt.obj
 0002:0000a51c       ??_R4exception@@6B@        1007951c     LIBCD:stdexcpt.obj
 0002:0000a530       ??_R1A@?0A@A@bad_cast@@8   10079530     LIBCD:stdexcpt.obj
 0002:0000a548       ??_R2bad_cast@@8           10079548     LIBCD:stdexcpt.obj
 0002:0000a554       ??_R3bad_cast@@8           10079554     LIBCD:stdexcpt.obj
 0002:0000a564       ??_R4bad_cast@@6B@         10079564     LIBCD:stdexcpt.obj
 0002:0000a578       ??_R1A@?0A@A@bad_typeid@@8 10079578     LIBCD:stdexcpt.obj
 0002:0000a590       ??_R2bad_typeid@@8         10079590     LIBCD:stdexcpt.obj
 0002:0000a59c       ??_R3bad_typeid@@8         1007959c     LIBCD:stdexcpt.obj
 0002:0000a5ac       ??_R4bad_typeid@@6B@       100795ac     LIBCD:stdexcpt.obj
 0002:0000a5c0       ??_R1A@?0A@A@__non_rtti_object@@8 100795c0     LIBCD:stdexcpt.obj
 0002:0000a5d8       ??_R2__non_rtti_object@@8  100795d8     LIBCD:stdexcpt.obj
 0002:0000a5e8       ??_R3__non_rtti_object@@8  100795e8     LIBCD:stdexcpt.obj
 0002:0000a5f8       ??_R4__non_rtti_object@@6B@ 100795f8     LIBCD:stdexcpt.obj
 0002:0000a60c       ??_R1A@?0A@A@type_info@@8  1007960c     LIBCD:typinfo.obj
 0002:0000a624       ??_R2type_info@@8          10079624     LIBCD:typinfo.obj
 0002:0000a62c       ??_R3type_info@@8          1007962c     LIBCD:typinfo.obj
 0002:0000a63c       ??_R4type_info@@6B@        1007963c     LIBCD:typinfo.obj
 0002:0000a650       ___rtc_iaa                 10079650     LIBCD:initsect.obj
 0002:0000a664       ___rtc_izz                 10079664     LIBCD:initsect.obj
 0002:0000a668       ___rtc_taa                 10079668     LIBCD:initsect.obj
 0002:0000a67c       ___rtc_tzz                 1007967c     LIBCD:initsect.obj
 0002:0000a9e0       __CT??_R0?AVexception@@@8??0exception@@QAE@ABV0@@Z12 100799e0     aMaterial.obj
 0002:0000a9fc       __CT??_R0?AVlogic_error@std@@@8??0logic_error@std@@QAE@ABV01@@Z40 100799fc     aMaterial.obj
 0002:0000aa18       __CT??_R0?AVlength_error@std@@@8??0length_error@std@@QAE@ABV01@@Z40 10079a18     aMaterial.obj
 0002:0000aa34       __CTA3?AVlength_error@std@@ 10079a34     aMaterial.obj
 0002:0000aa44       __TI3?AVlength_error@std@@ 10079a44     aMaterial.obj
 0002:0000afc8       __CT??_R0?AVout_of_range@std@@@8??0out_of_range@std@@QAE@ABV01@@Z40 10079fc8     aMaterial.obj
 0002:0000afe4       __CTA3?AVout_of_range@std@@ 10079fe4     aMaterial.obj
 0002:0000aff4       __TI3?AVout_of_range@std@@ 10079ff4     aMaterial.obj
 0002:0000c270       __CT??_R0?AVbad_alloc@std@@@8??0bad_alloc@std@@QAE@ABV01@@Z12 1007b270     libcpd:nomemory.obj
 0002:0000c28c       __CTA2?AVbad_alloc@std@@   1007b28c     libcpd:nomemory.obj
 0002:0000c298       __TI2?AVbad_alloc@std@@    1007b298     libcpd:nomemory.obj
 0002:0000c2a8       __IMPORT_DESCRIPTOR_GDI32  1007b2a8     gdi32:GDI32.dll
 0002:0000c2bc       __IMPORT_DESCRIPTOR_ADVAPI32 1007b2bc     Advapi32:ADVAPI32.dll
 0002:0000c2d0       __IMPORT_DESCRIPTOR_KERNEL32 1007b2d0     kernel32:KERNEL32.dll
 0002:0000c2e4       __IMPORT_DESCRIPTOR_USER32 1007b2e4     user32:USER32.dll
 0002:0000c2f8       __NULL_IMPORT_DESCRIPTOR   1007b2f8     gdi32:GDI32.dll
 0003:00000000       ___xc_a                    1007c000     LIBCD:crt0init.obj
 0003:00000014       ___xc_z                    1007c014     LIBCD:crt0init.obj
 0003:00000018       ___xi_a                    1007c018     LIBCD:crt0init.obj
 0003:00000030       ___xi_z                    1007c030     LIBCD:crt0init.obj
 0003:00000034       ___xp_a                    1007c034     LIBCD:crt0init.obj
 0003:0000003c       ___xp_z                    1007c03c     LIBCD:crt0init.obj
 0003:00000040       ___xt_a                    1007c040     LIBCD:crt0init.obj
 0003:00000048       ___xt_z                    1007c048     LIBCD:crt0init.obj
 0003:00000080       ?__LINE__Var@?1??SetMaterialDX8@aMaterial@@YGXH@Z@4JA 1007c080     aMaterial.obj
 0003:00000084       ?__LINE__Var@?1??SetMaterialOGL@aMaterial@@YGXH@Z@4JA 1007c084     aMaterial.obj
 0003:00000088       ?__LINE__Var@?1??RemoveMaterial@aMaterial@@YGXH@Z@4JA 1007c088     aMaterial.obj
 0003:0000008c       ?__LINE__Var@?1??SetMaterialAmbient@aMaterial@@YGXPAVPackClass@Packet@@@Z@4JA 1007c08c     aMaterial.obj
 0003:00000090       ?__LINE__Var@?1??SetMaterialDiffuse@aMaterial@@YGXPAVPackClass@Packet@@@Z@4JA 1007c090     aMaterial.obj
 0003:00000094       ?__LINE__Var@?1??SetMaterialSpecular@aMaterial@@YGXPAVPackClass@Packet@@@Z@4JA 1007c094     aMaterial.obj
 0003:00000098       ?__LINE__Var@?1??SetMaterialEmissive@aMaterial@@YGXPAVPackClass@Packet@@@Z@4JA 1007c098     aMaterial.obj
 0003:0000009c       ?__LINE__Var@?1??RemoveTexture@aMaterial@@YGXH@Z@4JA 1007c09c     aMaterial.obj
 0003:000000a0       ?__LINE__Var@?1??AddRAWTexture@aMaterial@@YGHPBDAAVBinClass@Data@@HH@Z@4JA 1007c0a0     aMaterial.obj
 0003:000000a4       ?__LINE__Var@?1??AddPPMTexture@aMaterial@@YGHPBDAAVBinClass@Data@@@Z@4JA 1007c0a4     aMaterial.obj
 0003:000000a8       ?__LINE__Var@?1??AddTGATexture@aMaterial@@YGHPBDAAVBinClass@Data@@@Z@4JA 1007c0a8     aMaterial.obj
 0003:000000ac       ?__LINE__Var@?1??AddBMPTexture@aMaterial@@YGHPBDAAVBinClass@Data@@@Z@4JA 1007c0ac     aMaterial.obj
 0003:000000b0       ?__LINE__Var@?1??LoadTexture@aMaterial@@YGXPAVPackClass@Packet@@@Z@4JA 1007c0b0     aMaterial.obj
 0003:000000b4       ?__LINE__Var@?1??AddTexture@aMaterial@@YGXPAVPackClass@Packet@@@Z@4JA 1007c0b4     aMaterial.obj
 0003:000000b8       ??_R0?AVexception@@@8      1007c0b8     aMaterial.obj
 0003:000000d0       ??_R0?AVlogic_error@std@@@8 1007c0d0     aMaterial.obj
 0003:000000f0       ??_R0?AVlength_error@std@@@8 1007c0f0     aMaterial.obj
 0003:00000110       ??_R0?AVout_of_range@std@@@8 1007c110     aMaterial.obj
 0003:000006a0       ?g_pBoxFilter2D_A8R8G8B8@@3P6AJPAI0IIII@ZA 1007c6a0     D3dx8:cd3dxblt.obj
 0003:000006a4       ?g_pBoxFilter2D_X8R8G8B8@@3P6AJPAI0IIII@ZA 1007c6a4     D3dx8:cd3dxblt.obj
 0003:000007a8       ?g_D3DXFastTable@@3UD3DXFASTTABLE@@A 1007c7a8     D3dx8:d3dxmath.obj
 0003:00000890       ?g_D3DXFastTableC@@3UD3DXFASTTABLE@@A 1007c890     D3dx8:d3dxmath.obj
 0003:00000978       ?g_CpuOptimization@@3W4_D3DX_CPU_OPTIMIZATION@@A 1007c978     D3dx8:cpudetect.obj
 0003:000009bc       ?vfMMXMachine@D3DX@@3EA    1007c9bc     D3dx8:jutils.obj
 0003:00001d40       ?z_errmsg@D3DX@@3PAPBDA    1007dd40     D3dx8:zutil.obj
 0003:000034e0       ?inflate_mask@D3DX@@3PAIA  1007f4e0     D3dx8:infutil.obj
 0003:00003524       ??_R0?AVbad_alloc@std@@@8  1007f524     libcpd:nomemory.obj
 0003:00003540       __NLG_Destination          1007f540     LIBCD:exsup.obj
 0003:00003550       __fltused                  1007f550     LIBCD:fpinit.obj
 0003:00003554       __ldused                   1007f554     LIBCD:fpinit.obj
 0003:00003558       __FPinit                   1007f558     LIBCD:fpinit.obj
 0003:0000355c       __FPmtinit                 1007f55c     LIBCD:fpinit.obj
 0003:00003560       __FPmtterm                 1007f560     LIBCD:fpinit.obj
 0003:00003570       ?__pMyUnhandledExceptionFilter@@3PAXA 1007f570     LIBCD:throw.obj
 0003:00003574       ??_R0?AVbad_cast@@@8       1007f574     LIBCD:stdexcpt.obj
 0003:0000358c       ??_R0?AVbad_typeid@@@8     1007f58c     LIBCD:stdexcpt.obj
 0003:000035a8       ??_R0?AV__non_rtti_object@@@8 1007f5a8     LIBCD:stdexcpt.obj
 0003:000035c8       ??_R0?AVtype_info@@@8      1007f5c8     LIBCD:typinfo.obj
 0003:000035e0       __aexit_rtn                1007f5e0     LIBCD:dllcrt0.obj
 0003:000035f0       __half                     1007f5f0     LIBCD:pow.obj
 0003:00003610       __crtDbgFlag               1007f610     LIBCD:dbgheap.obj
 0003:00003618       __crtBreakAlloc            1007f618     LIBCD:dbgheap.obj
 0003:00003664       ?_RTC_ErrorLevels@@3PAHA   1007f664     LIBCD:error.obj
 0003:000036a0       ___security_cookie         1007f6a0     LIBCD:seccook.obj
 0003:000036a4       ?__pUnexpected@@3P6AXXZA   1007f6a4     LIBCD:hooks.obj
 0003:000036a8       ?__pInconsistency@@3P6AXXZA 1007f6a8     LIBCD:hooks.obj
 0003:000036ac       __cfltcvt_tab              1007f6ac     LIBCD:cmiscdat.obj
 0003:000036c4       __crtAssertBusy            1007f6c4     LIBCD:dbgrpt.obj
 0003:000036c8       __CrtDbgMode               1007f6c8     LIBCD:dbgrpt.obj
 0003:000036d4       __CrtDbgFile               1007f6d4     LIBCD:dbgrpt.obj
 0003:000036ec       ___nullstring              1007f6ec     LIBCD:output.obj
 0003:000036f0       ___wnullstring             1007f6f0     LIBCD:output.obj
 0003:000036f4       ___lc_clike                1007f6f4     LIBCD:nlsdata2.obj
 0003:000036f8       ___badioinfo               1007f6f8     LIBCD:ioinit.obj
 0003:00003700       __amblksiz                 1007f700     LIBCD:heapinit.obj
 0003:00003708       __XcptActTab               1007f708     LIBCD:winxfltr.obj
 0003:00003780       __First_FPE_Indx           1007f780     LIBCD:winxfltr.obj
 0003:00003784       __Num_FPE                  1007f784     LIBCD:winxfltr.obj
 0003:00003788       __XcptActTabCount          1007f788     LIBCD:winxfltr.obj
 0003:0000378c       __fpecode                  1007f78c     LIBCD:winxfltr.obj
 0003:00003828       ___mb_cur_max              1007f828     LIBCD:nlsdata1.obj
 0003:0000382c       ___decimal_point           1007f82c     LIBCD:nlsdata1.obj
 0003:00003830       ___decimal_point_length    1007f830     LIBCD:nlsdata1.obj
 0003:00003840       __infinity                 1007f840     LIBCD:87tran.obj
 0003:0000384a       __minfinity                1007f84a     LIBCD:87tran.obj
 0003:00003854       __logemax                  1007f854     LIBCD:87tran.obj
 0003:00003884       __OP_EXPjmptab             1007f884     LIBCD:87tran.obj
 0003:000038b0       __indefinite               1007f8b0     LIBCD:87disp.obj
 0003:000038ba       __piby2                    1007f8ba     LIBCD:87disp.obj
 0003:000038cc       __cpower                   1007f8cc     LIBCD:87disp.obj
 0003:000038e0       __pmatherr                 1007f8e0     LIBCD:libm_error.obj
 0003:000038e8       __d_inf                    1007f8e8     LIBCD:util.obj
 0003:000038f0       __d_ind                    1007f8f0     LIBCD:util.obj
 0003:000038f8       __d_max                    1007f8f8     LIBCD:util.obj
 0003:00003900       __d_min                    1007f900     LIBCD:util.obj
 0003:00003908       __d_mzero                  1007f908     LIBCD:util.obj
 0003:00003a10       __pfnAllocHook             1007fa10     LIBCD:dbghook.obj
 0003:00003a50       __iob                      1007fa50     LIBCD:_file.obj
 0003:00003cd0       __pctype                   1007fcd0     LIBCD:ctype.obj
 0003:00003cd4       __pwctype                  1007fcd4     LIBCD:ctype.obj
 0003:000040a0       __matherr_flag             100800a0     LIBCD:matherr.obj
 0003:000040b0       __pow10pos                 100800b0     LIBCD:constpow.obj
 0003:00004210       __pow10neg                 10080210     LIBCD:constpow.obj
 0003:00009850       ?g_oglDevice@aMaterial@@3PAUHGLRC__@@A 10085850     aMaterial.obj
 0003:00009854       ?g_pd3dDevice@aMaterial@@3PAUIDirect3DDevice8@@A 10085854     aMaterial.obj
 0003:00009858       ?g_rDevice@aMaterial@@3PAXA 10085858     aMaterial.obj
 0003:00009f70       ?mode@aMaterial@@3HA       10085f70     aMaterial.obj
 0003:00009f84       ?materials@aMaterial@@3V?$map@HPAUMaterialType@aMaterial@@U?$less@H@std@@V?$allocator@U?$pair@$$CBHPAUMaterialType@aMaterial@@@std@@@4@@std@@A 10085f84     aMaterial.obj
 0003:00009f90       ?apollo@@3VApolloClass@@A  10085f90     aMaterial.obj
 0003:0000a4e8       ?textures@aMaterial@@3V?$map@HPAUTextureType@aMaterial@@U?$less@H@std@@V?$allocator@U?$pair@$$CBHPAUTextureType@aMaterial@@@std@@@4@@std@@A 100864e8     aMaterial.obj
 0003:0000a4f4       ?ignoreAlways@?2???0BinClass@Data@@QAE@I@Z@4_NA 100864f4     aMaterial.obj
 0003:0000a4f5       ?ignoreAlways@?2??GetData@BinClass@Data@@QAEPAEI@Z@4_NA 100864f5     aMaterial.obj
 0003:0000a4f6       ?ignoreAlways@?9??Open@FileClass@File@@QAEHPBDI@Z@4_NA 100864f6     aMaterial.obj
 0003:0000a4f7       ?ignoreAlways@?2??Open@FileClass@File@@QAEHPBDI@Z@4_NA 100864f7     aMaterial.obj
 0003:0000a4f8       ?ignoreAlways@?2??Close@FileClass@File@@QAEXXZ@4_NA 100864f8     aMaterial.obj
 0003:0000a4f9       ?ignoreAlways@?M@??ReadBinFile@FileClass@File@@QAEHPAVBinClass@Data@@@Z@4_NA 100864f9     aMaterial.obj
 0003:0000a4fa       ?ignoreAlways@?2??ReadBinFile@FileClass@File@@QAEHPAVBinClass@Data@@@Z@4_NA 100864fa     aMaterial.obj
 0003:0000a4fb       ?ignoreAlways@?BB@??AddData@PackClass@Packet@@QAEIPAXI@Z@4_NA 100864fb     aMaterial.obj
 0003:0000a4fc       ?ignoreAlways@?9??AddData@PackClass@Packet@@QAEIPAXI@Z@4_NA 100864fc     aMaterial.obj
 0003:0000a4fd       ?ignoreAlways@?2??AddData@PackClass@Packet@@QAEIPAXI@Z@4_NA 100864fd     aMaterial.obj
 0003:0000ac94       ___fastflag                10086c94     LIBCD:fpinit.obj
 0003:0000ac98       __adjust_fdiv              10086c98     LIBCD:fpinit.obj
 0003:0000aca4       __aenvptr                  10086ca4     LIBCD:dllcrt0.obj
 0003:0000aca8       __wenvptr                  10086ca8     LIBCD:dllcrt0.obj
 0003:0000acac       ___error_mode              10086cac     LIBCD:dllcrt0.obj
 0003:0000acb0       ___app_type                10086cb0     LIBCD:dllcrt0.obj
 0003:0000acb4       _errno                     10086cb4     LIBCD:crt0dat.obj
 0003:0000acb8       __doserrno                 10086cb8     LIBCD:crt0dat.obj
 0003:0000acbc       __umaskval                 10086cbc     LIBCD:crt0dat.obj
 0003:0000acc0       __osplatform               10086cc0     LIBCD:crt0dat.obj
 0003:0000acc4       __osver                    10086cc4     LIBCD:crt0dat.obj
 0003:0000acc8       __winver                   10086cc8     LIBCD:crt0dat.obj
 0003:0000accc       __winmajor                 10086ccc     LIBCD:crt0dat.obj
 0003:0000acd0       __winminor                 10086cd0     LIBCD:crt0dat.obj
 0003:0000acd4       ___argc                    10086cd4     LIBCD:crt0dat.obj
 0003:0000acd8       ___argv                    10086cd8     LIBCD:crt0dat.obj
 0003:0000acdc       ___wargv                   10086cdc     LIBCD:crt0dat.obj
 0003:0000ace0       __environ                  10086ce0     LIBCD:crt0dat.obj
 0003:0000ace4       ___initenv                 10086ce4     LIBCD:crt0dat.obj
 0003:0000ace8       __wenviron                 10086ce8     LIBCD:crt0dat.obj
 0003:0000acec       ___winitenv                10086cec     LIBCD:crt0dat.obj
 0003:0000acf0       __pgmptr                   10086cf0     LIBCD:crt0dat.obj
 0003:0000acf4       __wpgmptr                  10086cf4     LIBCD:crt0dat.obj
 0003:0000acf8       __exitflag                 10086cf8     LIBCD:crt0dat.obj
 0003:0000acfc       __C_Termination_Done       10086cfc     LIBCD:crt0dat.obj
 0003:0000ad00       __C_Exit_Done              10086d00     LIBCD:crt0dat.obj
 0003:0000ad3c       ?_pnhHeap@@3P6AHI@ZA       10086d3c     LIBCD:handler.obj
 0003:0000ad44       ?_pCurrentException@@3PAUEHExceptionRecord@@A 10086d44     LIBCD:frame.obj
 0003:0000ad48       ?_pCurrentExContext@@3PAU_CONTEXT@@A 10086d48     LIBCD:frame.obj
 0003:0000ad4c       ?__ProcessingThrow@@3HA    10086d4c     LIBCD:frame.obj
 0003:0000ad50       ?__pSETranslator@@3P6AXIPAU_EXCEPTION_POINTERS@@@ZA 10086d50     LIBCD:hooks.obj
 0003:0000ad54       ?__pTerminate@@3P6AXXZA    10086d54     LIBCD:hooks.obj
 0003:0000ad74       ___lc_handle               10086d74     LIBCD:nlsdata2.obj
 0003:0000ad8c       ___lc_codepage             10086d8c     LIBCD:nlsdata2.obj
 0003:0000ad90       ___lc_collate_cp           10086d90     LIBCD:nlsdata2.obj
 0003:0000aea4       __pxcptinfoptrs            10086ea4     LIBCD:winxfltr.obj
 0003:0000aea8       __adbgmsg                  10086ea8     LIBCD:crt0msg.obj
 0003:0000aeac       __newmode                  10086eac     LIBCD:_newmode.obj
 0003:0000af54       __cflush                   10086f54     LIBCD:_file.obj
 0003:0000afa8       __commode                  10086fa8     LIBCD:ncommode.obj
 0003:0000afb4       __fmode                    10086fb4     LIBCD:txtmode.obj
 0003:0000afc0       ?fvecf0pt5@?1??rsqrt_nr@@YA?AVF32vec4@@ABV2@@Z@4V2@B 10086fc0     <common>
 0003:0000afd0       ?fvecf3pt0@?1??rsqrt_nr@@YA?AVF32vec4@@ABV2@@Z@4V2@B 10086fd0     <common>
 0003:0000afe0       ??_B?1??rsqrt_nr@@YA?AVF32vec4@@ABV1@@Z@51 10086fe0     <common>
 0003:0000aff0       ?fvecf0pt5@?1??rsqrt_nr@@YA?AVF32vec1@@ABV2@@Z@4V2@B 10086ff0     <common>
 0003:0000b000       ?fvecf3pt0@?1??rsqrt_nr@@YA?AVF32vec1@@ABV2@@Z@4V2@B 10087000     <common>
 0003:0000b010       ??_B?1??rsqrt_nr@@YA?AVF32vec1@@ABV1@@Z@51 10087010     <common>
 0003:0000b014       ___mblcid                  10087014     <common>
 0003:0000b018       ___ismbcodepage            10087018     <common>
 0003:0000b020       __mbctype                  10087020     <common>
 0003:0000b124       ___mbcodepage              10087124     <common>
 0003:0000b130       ___mbulinfo                10087130     <common>
 0003:0000b140       __mbcasemap                10087140     <common>
 0003:0000b240       ___piob                    10087240     <common>
 0003:0000b260       __bufin                    10087260     <common>
 0003:0000c260       __nstream                  10088260     <common>
 0003:0000c264       ___sbh_initialized         10088264     <common>
 0003:0000c268       ___sbh_pHeaderDefer        10088268     <common>
 0003:0000c26c       ___sbh_cntHeaderList       1008826c     <common>
 0003:0000c270       ___sbh_pHeaderList         10088270     <common>
 0003:0000c274       ___sbh_threshold           10088274     <common>
 0003:0000c278       ___sbh_pHeaderScan         10088278     <common>
 0003:0000c27c       ___sbh_sizeHeaderList      1008827c     <common>
 0003:0000c280       ___sbh_indGroupDefer       10088280     <common>
 0003:0000c284       ___use_sse2_mathfcns       10088284     <common>
 0003:0000c288       ___sse2_available          10088288     <common>
 0003:0000c28c       __crtheap                  1008828c     <common>
 0003:0000c290       ___active_heap             10088290     <common>
 0003:0000c294       __nhandle                  10088294     <common>
 0003:0000c2a0       ___pioinfo                 100882a0     <common>
 0003:0000c3a0       __pfnReportHook            100883a0     <common>
 0003:0000c3a4       __pReportHookList          100883a4     <common>
 0003:0000c3a8       __pfnDumpClient            100883a8     <common>
 0003:0000c3ac       ___env_initialized         100883ac     <common>
 0003:0000c3b0       ___onexitend               100883b0     <common>
 0003:0000c3b4       ___onexitbegin             100883b4     <common>
 0003:0000c3b8       ___mbctype_initialized     100883b8     <common>
 0003:0000c3bc       __setjmpexused             100883bc     <common>
 0003:0000c3c0       __acmdln                   100883c0     <common>
 0003:0000c3c4       __pRawDllMain              100883c4     <common>

 entry point at        0001:000521d0

 Static symbols

 0001:fffff000       __ehhandler$?_Copy@?$basic_string@DU?$char_traits@D@std@@V?$allocator@D@2@@std@@IAEXII@Z 10000000 f   libcpd:string.obj
 0001:fffff000       __unwindfunclet$??1PackClass@Packet@@QAE@XZ$0 10000000 f   System:Error_types.obj
 0001:fffff000       __unwindfunclet$??0PackClass@Packet@@QAE@XZ$0 10000000 f   System:Error_types.obj
 0001:fffff000       $L12126                    10000000 f   libcpd:string.obj
 0001:fffff000       __unwindfunclet$??0ModIdClass@CRC@@QAE@XZ$0 10000000 f   System:Error_types.obj
 0001:fffff000       $L12140                    10000000 f   libcpd:string.obj
 0001:fffff000       $L12158                    10000000 f   libcpd:string.obj
 0001:fffff000       __unwindfunclet$??0StringClass@CRC@@QAE@XZ$0 10000000 f   System:Error_types.obj
 0001:fffff000       __unwindfunclet$??1ModIdClass@CRC@@QAE@XZ$0 10000000 f   System:Error_types.obj
 0001:fffff008       __ehhandler$??0logic_error@std@@QAE@ABV?$basic_string@DU?$char_traits@D@std@@V?$allocator@D@2@@1@@Z 10000008 f   libcpd:string.obj
 0001:fffff008       __unwindfunclet$??0ModIdClass@CRC@@QAE@XZ$1 10000008 f   System:Error_types.obj
 0001:fffff008       __unwindfunclet$??1ModIdClass@CRC@@QAE@XZ$1 10000008 f   System:Error_types.obj
 0001:fffff008       __ehhandler$??1logic_error@std@@UAE@XZ 10000008 f   libcpd:string.obj
 0001:fffff008       __ehhandler$??0logic_error@std@@QAE@ABV01@@Z 10000008 f   libcpd:string.obj
 0001:fffff00b       __ehhandler$??0StringClass@CRC@@QAE@XZ 1000000b f   System:Error_types.obj
 0001:fffff00e       __unwindfunclet$??1PackClass@Packet@@QAE@XZ$1 1000000e f   System:Error_types.obj
 0001:fffff00e       __unwindfunclet$??0PackClass@Packet@@QAE@XZ$1 1000000e f   System:Error_types.obj
 0001:fffff016       __unwindfunclet$??1ModIdClass@CRC@@QAE@XZ$2 10000016 f   System:Error_types.obj
 0001:fffff016       __unwindfunclet$??0ModIdClass@CRC@@QAE@XZ$2 10000016 f   System:Error_types.obj
 0001:fffff01c       __ehhandler$??1PackClass@Packet@@QAE@XZ 1000001c f   System:Error_types.obj
 0001:fffff01c       __unwindfunclet$??0PackClass@Packet@@QAE@XZ$2 1000001c f   System:Error_types.obj
 0001:fffff024       __ehhandler$??0ModIdClass@CRC@@QAE@XZ 10000024 f   System:Error_types.obj
 0001:fffff024       __ehhandler$??1ModIdClass@CRC@@QAE@XZ 10000024 f   System:Error_types.obj
 0001:fffff02a       __ehhandler$??0PackClass@Packet@@QAE@XZ 1000002a f   System:Error_types.obj
 0001:fffff0a7       $L12248                    100000a7 f   libcpd:string.obj
 0001:fffff0ce       $L12250                    100000ce f   libcpd:string.obj
 0001:00006117       __catch$?_Insert_n@?$vector@IV?$allocator@I@std@@@std@@IAEXViterator@12@IABI@Z$0 10007117 f i aMaterial.obj
 0001:0000621f       __catch$?_Insert_n@?$vector@IV?$allocator@I@std@@@std@@IAEXViterator@12@IABI@Z$2 1000721f f i aMaterial.obj
 0001:000088a4       __catch$?_Copy@?$basic_string@DU?$char_traits@D@std@@V?$allocator@D@2@@std@@IAEXII@Z$0 100098a4 f i aMaterial.obj
 0001:000088d1       __catch$?_Copy@?$basic_string@DU?$char_traits@D@std@@V?$allocator@D@2@@std@@IAEXII@Z$1 100098d1 f i aMaterial.obj
 0001:0000a093       __catch$?_Buynode@?$_Tree@V?$_Tmap_traits@HPAUTextureType@aMaterial@@U?$less@H@std@@V?$allocator@U?$pair@$$CBHPAUTextureType@aMaterial@@@std@@@4@$0A@@std@@@std@@IAEPAU_Node@?$_Tree_nod@V?$_Tmap_traits@HPAUTextureType@aMaterial@@U?$less@H@std@@V?$allocator@U?$pair@$$CBHPAUTextureType@aMaterial@@@std@@@4@$0A@@std@@@2@PAU342@00ABU?$pair@$$CBHPAUTextureType@aMaterial@@@2@D@Z$0 1000b093 f i aMaterial.obj
 0001:0000a923       __catch$?_Buynode@?$_Tree@V?$_Tmap_traits@HPAUMaterialType@aMaterial@@U?$less@H@std@@V?$allocator@U?$pair@$$CBHPAUMaterialType@aMaterial@@@std@@@4@$0A@@std@@@std@@IAEPAU_Node@?$_Tree_nod@V?$_Tmap_traits@HPAUMaterialType@aMaterial@@U?$less@H@std@@V?$allocator@U?$pair@$$CBHPAUMaterialType@aMaterial@@@std@@@4@$0A@@std@@@2@PAU342@00ABU?$pair@$$CBHPAUMaterialType@aMaterial@@@2@D@Z$0 1000b923 f i aMaterial.obj
 0001:0000c663       __catch$?_Buynode@?$_Tree@V?$_Tmap_traits@IPAUFunction@@UFcmp@@V?$allocator@U?$pair@$$CBIPAUFunction@@@std@@@std@@$0A@@std@@@std@@IAEPAU_Node@?$_Tree_nod@V?$_Tmap_traits@IPAUFunction@@UFcmp@@V?$allocator@U?$pair@$$CBIPAUFunction@@@std@@@std@@$0A@@std@@@2@PAU342@00ABU?$pair@$$CBIPAUFunction@@@2@D@Z$0 1000d663 f i aMaterial.obj
 0001:0000f484       __catch$?_Buynode@?$_Tree@V?$_Tmap_traits@IPAUFunction@@UFcmp@@V?$allocator@U?$pair@$$CBIPAUFunction@@@std@@@std@@$0A@@std@@@std@@IAEPAU_Node@?$_Tree_nod@V?$_Tmap_traits@IPAUFunction@@UFcmp@@V?$allocator@U?$pair@$$CBIPAUFunction@@@std@@@std@@$0A@@std@@@2@XZ$0 10010484 f i aMaterial.obj
 0001:0000f6e4       __catch$?_Buynode@?$_Tree@V?$_Tmap_traits@IPAXUVcmp@@V?$allocator@U?$pair@$$CBIPAX@std@@@std@@$0A@@std@@@std@@IAEPAU_Node@?$_Tree_nod@V?$_Tmap_traits@IPAXUVcmp@@V?$allocator@U?$pair@$$CBIPAX@std@@@std@@$0A@@std@@@2@XZ$0 100106e4 f i aMaterial.obj
 0001:00012074       __catch$?_Buynode@?$_Tree@V?$_Tmap_traits@HPAUTextureType@aMaterial@@U?$less@H@std@@V?$allocator@U?$pair@$$CBHPAUTextureType@aMaterial@@@std@@@4@$0A@@std@@@std@@IAEPAU_Node@?$_Tree_nod@V?$_Tmap_traits@HPAUTextureType@aMaterial@@U?$less@H@std@@V?$allocator@U?$pair@$$CBHPAUTextureType@aMaterial@@@std@@@4@$0A@@std@@@2@XZ$0 10013074 f i aMaterial.obj
 0001:000126e4       __catch$?_Buynode@?$_Tree@V?$_Tmap_traits@HPAUMaterialType@aMaterial@@U?$less@H@std@@V?$allocator@U?$pair@$$CBHPAUMaterialType@aMaterial@@@std@@@4@$0A@@std@@@std@@IAEPAU_Node@?$_Tree_nod@V?$_Tmap_traits@HPAUMaterialType@aMaterial@@U?$less@H@std@@V?$allocator@U?$pair@$$CBHPAUMaterialType@aMaterial@@@std@@@4@$0A@@std@@@2@XZ$0 100136e4 f i aMaterial.obj
 0001:00013e23       ?D3DXScoreFormat@@YAIPBU_D3DXFORMAT_INFO@@0@Z 10014e23 f   D3dx8:d3dx8tex.obj
 0001:00014140       ?SaveSurfaceToFile@@YAJPBXW4_D3DXIMAGE_FILEFORMAT@@PAUIDirect3DSurface8@@PBUtagPALETTEENTRY@@PBUtagRECT@@H@Z 10015140 f   D3dx8:d3dx8tex.obj
 0001:0001431f       ?SaveVolumeToFile@@YAJPBXW4_D3DXIMAGE_FILEFORMAT@@PAUIDirect3DVolume8@@PBUtagPALETTEENTRY@@PBU_D3DBOX@@H@Z 1001531f f   D3dx8:d3dx8tex.obj
 0001:0001440f       ?CheckTextureRequirements@@YAJPAUIDirect3DDevice8@@PAI111KPAW4_D3DFORMAT@@W4_D3DPOOL@@W4_D3DRESOURCETYPE@@@Z 1001540f f   D3dx8:d3dx8tex.obj
 0001:00015309       ?EvalColor@@YAMPAUD3DXCOLOR@@K@Z 10016309 f   D3dx8:d3dx8tex.obj
 0001:00015ff6       ?SaveTextureToFile@@YAJPBXW4_D3DXIMAGE_FILEFORMAT@@PAUIDirect3DBaseTexture8@@PBUtagPALETTEENTRY@@H@Z 10016ff6 f   D3dx8:d3dx8tex.obj
 0001:00016b83       ?CreateTextureFromFileInMemoryEx@@YAJPAUIDirect3DDevice8@@PBXIIIIIKW4_D3DFORMAT@@W4_D3DPOOL@@KKKPAU_D3DXIMAGE_INFO@@PAUtagPALETTEENTRY@@W4_D3DRESOURCETYPE@@PAPAUIDirect3DBaseTexture8@@@Z 10017b83 f   D3dx8:d3dx8tex.obj
 0001:000185b7       ?d3dx_jpeg_error_exit@@YAXPAUjpeg_common_struct@D3DX@@@Z 100195b7 f   D3dx8:cd3dximage.obj
 0001:000185d3       ?d3dx_jpeg_ignore_message@@YAXPAUjpeg_common_struct@D3DX@@@Z 100195d3 f   D3dx8:cd3dximage.obj
 0001:000185d4       ?d3dx_jpeg_output_message@@YAXPAUjpeg_common_struct@D3DX@@@Z 100195d4 f   D3dx8:cd3dximage.obj
 0001:000185f1       ?d3dx_jpeg_init_source@@YAXPAUjpeg_decompress_struct@D3DX@@@Z 100195f1 f   D3dx8:cd3dximage.obj
 0001:000185f2       ?d3dx_jpeg_fill_input_buffer@@YAEPAUjpeg_decompress_struct@D3DX@@@Z 100195f2 f   D3dx8:cd3dximage.obj
 0001:00018607       ?d3dx_jpeg_skip_input_data@@YAXPAUjpeg_decompress_struct@D3DX@@J@Z 10019607 f   D3dx8:cd3dximage.obj
 0001:00018618       ?d3dx_jpeg_term_source@@YAXPAUjpeg_decompress_struct@D3DX@@@Z 10019618 f   D3dx8:cd3dximage.obj
 0001:00018fb6       ?d3dx_png_read_fn@@YAXPAUpng_struct_def@D3DX@@PAEI@Z 10019fb6 f   D3dx8:cd3dximage.obj
 0001:00018ff9       ?d3dx_png_error_fn@@YAXPAUpng_struct_def@D3DX@@PBD@Z 10019ff9 f   D3dx8:cd3dximage.obj
 0001:00019005       ?d3dx_png_warning_fn@@YAXPAUpng_struct_def@D3DX@@PBD@Z 1001a005 f   D3dx8:cd3dximage.obj
 0001:0001a0a2       ?TF_SetupTriangle@@YAPAEIIH@Z 1001b0a2 f   D3dx8:cd3dxblt.obj
 0001:0001ba0c       ?F2IBegin@@YAXXZ           1001ca0c f   D3dx8:cd3dxblt.obj
 0001:0001ba2f       ?F2I@@YAHM@Z               1001ca2f f   D3dx8:cd3dxblt.obj
 0001:0001ba3e       ?F2IEnd@@YAXXZ             1001ca3e f   D3dx8:cd3dxblt.obj
 0001:0001c932       ?LF_SetupLinear@@YAPAEIIH@Z 1001d932 f   D3dx8:cd3dxblt.obj
 0001:0001ea7e       ?F2IBegin@@YAXXZ           1001fa7e f   D3dx8:cd3dxcodec.obj
 0001:0001eaa1       ?F2I@@YAHM@Z               1001faa1 f   D3dx8:cd3dxcodec.obj
 0001:0001eab0       ?F2IEnd@@YAXXZ             1001fab0 f   D3dx8:cd3dxcodec.obj
 0001:00023b3e       ?WithinEpsilon@@YAHMM@Z    10024b3e f   D3dx8:d3dxmath.obj
 0001:00023b6b       ?sincosf@@YAXMPAM0@Z       10024b6b f   D3dx8:d3dxmath.obj
 0001:00027034       ?_D3DX_SQR@@YAMM@Z         10028034 f   D3dx8:d3dxmath.obj
 0001:000284b8       ?default_decompress_parms@D3DX@@YAXPAUjpeg_decompress_struct@1@@Z 100294b8 f   D3dx8:jdapimin.obj
 0001:0002883f       ?output_pass_setup@D3DX@@YAEPAUjpeg_decompress_struct@1@@Z 1002983f f   D3dx8:jdapistd.obj
 0001:00028ba1       ?GetD3DRegValue@@YAHKPADPAXK@Z 10029ba1 f   D3dx8:cpudetect.obj
 0001:00028cbb       ?isX3Dprocessor@@YAHXZ     10029cbb f   D3dx8:cpudetect.obj
 0001:00028cf3       ?IsIntelSSEProcessor@@YAKXZ 10029cf3 f   D3dx8:cpudetect.obj
 0001:00028d98       ?D3DXIsProcessorFeaturePresent@@YAHI@Z 10029d98 f   D3dx8:cpudetect.obj
 0001:00028f29       ?get_soi@D3DX@@YAEPAUjpeg_decompress_struct@1@@Z 10029f29 f   D3dx8:jdmarker.obj
 0001:00028fb7       ?get_sof@D3DX@@YAEPAUjpeg_decompress_struct@1@EE@Z 10029fb7 f   D3dx8:jdmarker.obj
 0001:000292b2       ?get_sos@D3DX@@YAEPAUjpeg_decompress_struct@1@@Z 1002a2b2 f   D3dx8:jdmarker.obj
 0001:00029564       ?get_app0@D3DX@@YAEPAUjpeg_decompress_struct@1@@Z 1002a564 f   D3dx8:jdmarker.obj
 0001:000297a0       ?get_app14@D3DX@@YAEPAUjpeg_decompress_struct@1@@Z 1002a7a0 f   D3dx8:jdmarker.obj
 0001:0002991a       ?get_dac@D3DX@@YAEPAUjpeg_decompress_struct@1@@Z 1002a91a f   D3dx8:jdmarker.obj
 0001:00029a71       ?get_dht@D3DX@@YAEPAUjpeg_decompress_struct@1@@Z 1002aa71 f   D3dx8:jdmarker.obj
 0001:00029d05       ?get_dqt@D3DX@@YAEPAUjpeg_decompress_struct@1@@Z 1002ad05 f   D3dx8:jdmarker.obj
 0001:00029f2e       ?get_dri@D3DX@@YAEPAUjpeg_decompress_struct@1@@Z 1002af2e f   D3dx8:jdmarker.obj
 0001:0002a005       ?skip_variable@D3DX@@YAEPAUjpeg_decompress_struct@1@@Z 1002b005 f   D3dx8:jdmarker.obj
 0001:0002a0a1       ?next_marker@D3DX@@YAEPAUjpeg_decompress_struct@1@@Z 1002b0a1 f   D3dx8:jdmarker.obj
 0001:0002a178       ?first_marker@D3DX@@YAEPAUjpeg_decompress_struct@1@@Z 1002b178 f   D3dx8:jdmarker.obj
 0001:0002a20f       ?read_markers@D3DX@@YAHPAUjpeg_decompress_struct@1@@Z 1002b20f f   D3dx8:jdmarker.obj
 0001:0002a3fc       ?read_restart_marker@D3DX@@YAEPAUjpeg_decompress_struct@1@@Z 1002b3fc f   D3dx8:jdmarker.obj
 0001:0002a569       ?reset_marker_reader@D3DX@@YAXPAUjpeg_decompress_struct@1@@Z 1002b569 f   D3dx8:jdmarker.obj
 0001:0002a610       ?error_exit@D3DX@@YAXPAUjpeg_common_struct@1@@Z 1002b610 f   D3dx8:jerror.obj
 0001:0002a62b       ?output_message@D3DX@@YAXPAUjpeg_common_struct@1@@Z 1002b62b f   D3dx8:jerror.obj
 0001:0002a648       ?emit_message@D3DX@@YAXPAUjpeg_common_struct@1@H@Z 1002b648 f   D3dx8:jerror.obj
 0001:0002a679       ?format_message@D3DX@@YAXPAUjpeg_common_struct@1@PAD@Z 1002b679 f   D3dx8:jerror.obj
 0001:0002a710       ?reset_error_mgr@D3DX@@YAXPAUjpeg_common_struct@1@@Z 1002b710 f   D3dx8:jerror.obj
 0001:0002a76d       ?png_format_buffer@D3DX@@YAXPAUpng_struct_def@1@PADPBD@Z 1002b76d f   D3dx8:pngerror.obj
 0001:0002a7f4       ?png_default_error@D3DX@@YAXPAUpng_struct_def@1@PBD@Z 1002b7f4 f   D3dx8:pngerror.obj
 0001:0002a800       ?png_default_warning@D3DX@@YAXPAUpng_struct_def@1@PBD@Z 1002b800 f   D3dx8:pngerror.obj
 0001:0002d79e       ?Decode565@@YAXPAUD3DXCOLOR@@G@Z 1002e79e f   D3dx8:dxtn.obj
 0001:0002d7ea       ?DecodePremult@@YAJPAUD3DXCOLOR@@@Z 1002e7ea f   D3dx8:dxtn.obj
 0001:0002d868       ?EncodePremult@@YAJPAUD3DXCOLOR@@PBU1@@Z 1002e868 f   D3dx8:dxtn.obj
 0001:0002d8de       ?F2IBegin@@YAXXZ           1002e8de f   D3dx8:dxtn.obj
 0001:0002d901       ?F2I@@YAHM@Z               1002e901 f   D3dx8:dxtn.obj
 0001:0002d910       ?F2IEnd@@YAXXZ             1002e910 f   D3dx8:dxtn.obj
 0001:0002d920       ?Encode565@@YAGPBUD3DXCOLOR@@@Z 1002e920 f   D3dx8:dxtn.obj
 0001:0002da1a       ?OptimizeAlpha@@YAXPAM0PBMI@Z 1002ea1a f   D3dx8:dxtn.obj
 0001:0002dd1f       ?OptimizeRGB@@YAXPAUD3DXCOLOR@@0PBU1@I@Z 1002ed1f f   D3dx8:dxtn.obj
 0001:0002e28a       ?EncodeDXT1@@YAJPAEPBUD3DXCOLOR@@H@Z 1002f28a f   D3dx8:dxtn.obj
 0001:0002f495       ?initial_setup@D3DX@@YAXPAUjpeg_decompress_struct@1@@Z 10030495 f   D3dx8:jdinput.obj
 0001:0002f650       ?per_scan_setup@D3DX@@YAXPAUjpeg_decompress_struct@1@@Z 10030650 f   D3dx8:jdinput.obj
 0001:0002f7c6       ?latch_quant_tables@D3DX@@YAXPAUjpeg_decompress_struct@1@@Z 100307c6 f   D3dx8:jdinput.obj
 0001:0002f858       ?start_input_pass@D3DX@@YAXPAUjpeg_decompress_struct@1@@Z 10030858 f   D3dx8:jdinput.obj
 0001:0002f892       ?consume_markers@D3DX@@YAHPAUjpeg_decompress_struct@1@@Z 10030892 f   D3dx8:jdinput.obj
 0001:0002f925       ?reset_input_controller@D3DX@@YAXPAUjpeg_decompress_struct@1@@Z 10030925 f   D3dx8:jdinput.obj
 0001:0002f95c       ?finish_input_pass@D3DX@@YAXPAUjpeg_decompress_struct@1@@Z 1003095c f   D3dx8:jdinput.obj
 0001:0002f9ae       ?out_of_memory@D3DX@@YAXPAUjpeg_common_struct@1@H@Z 100309ae f   D3dx8:jmemmgr.obj
 0001:0002f9c3       ?alloc_small@D3DX@@YAPAXPAUjpeg_common_struct@1@HI@Z 100309c3 f   D3dx8:jmemmgr.obj
 0001:0002fabf       ?alloc_large@D3DX@@YAPAXPAUjpeg_common_struct@1@HI@Z 10030abf f   D3dx8:jmemmgr.obj
 0001:0002fb4d       ?alloc_sarray@D3DX@@YAPAPAEPAUjpeg_common_struct@1@HII@Z 10030b4d f   D3dx8:jmemmgr.obj
 0001:0002fbdf       ?alloc_barray@D3DX@@YAPAPAY0EA@FPAUjpeg_common_struct@1@HII@Z 10030bdf f   D3dx8:jmemmgr.obj
 0001:0002fc7d       ?request_virt_sarray@D3DX@@YAPAUjvirt_sarray_control@1@PAUjpeg_common_struct@1@HEIII@Z 10030c7d f   D3dx8:jmemmgr.obj
 0001:0002fcde       ?request_virt_barray@D3DX@@YAPAUjvirt_barray_control@1@PAUjpeg_common_struct@1@HEIII@Z 10030cde f   D3dx8:jmemmgr.obj
 0001:0002fd3f       ?realize_virt_arrays@D3DX@@YAXPAUjpeg_common_struct@1@@Z 10030d3f f   D3dx8:jmemmgr.obj
 0001:0002febe       ?do_sarray_io@D3DX@@YAXPAUjpeg_common_struct@1@PAUjvirt_sarray_control@1@E@Z 10030ebe f   D3dx8:jmemmgr.obj
 0001:0002ff46       ?do_barray_io@D3DX@@YAXPAUjpeg_common_struct@1@PAUjvirt_barray_control@1@E@Z 10030f46 f   D3dx8:jmemmgr.obj
 0001:0002ffd1       ?access_virt_sarray@D3DX@@YAPAPAEPAUjpeg_common_struct@1@PAUjvirt_sarray_control@1@IIE@Z 10030fd1 f   D3dx8:jmemmgr.obj
 0001:000300ef       ?access_virt_barray@D3DX@@YAPAPAY0EA@FPAUjpeg_common_struct@1@PAUjvirt_barray_control@1@IIE@Z 100310ef f   D3dx8:jmemmgr.obj
 0001:00030212       ?free_pool@D3DX@@YAXPAUjpeg_common_struct@1@H@Z 10031212 f   D3dx8:jmemmgr.obj
 0001:000302f3       ?self_destruct@D3DX@@YAXPAUjpeg_common_struct@1@@Z 100312f3 f   D3dx8:jmemmgr.obj
 0001:0003044c       ?use_merged_upsample@D3DX@@YAEPAUjpeg_decompress_struct@1@@Z 1003144c f   D3dx8:jdmaster.obj
 0001:000306ac       ?prepare_range_limit_table@D3DX@@YAXPAUjpeg_decompress_struct@1@@Z 100316ac f   D3dx8:jdmaster.obj
 0001:0003071b       ?master_selection@D3DX@@YAXPAUjpeg_decompress_struct@1@@Z 1003171b f   D3dx8:jdmaster.obj
 0001:000308c8       ?prepare_for_output_pass@D3DX@@YAXPAUjpeg_decompress_struct@1@@Z 100318c8 f   D3dx8:jdmaster.obj
 0001:000309f5       ?finish_output_pass@D3DX@@YAXPAUjpeg_decompress_struct@1@@Z 100319f5 f   D3dx8:jdmaster.obj
 0001:00033036       ?alloc_funny_pointers@D3DX@@YAXPAUjpeg_decompress_struct@1@@Z 10034036 f   D3dx8:jdmainct.obj
 0001:000330de       ?make_funny_pointers@D3DX@@YAXPAUjpeg_decompress_struct@1@@Z 100340de f   D3dx8:jdmainct.obj
 0001:0003320f       ?set_wraparound_pointers@D3DX@@YAXPAUjpeg_decompress_struct@1@@Z 1003420f f   D3dx8:jdmainct.obj
 0001:000332e3       ?set_bottom_pointers@D3DX@@YAXPAUjpeg_decompress_struct@1@@Z 100342e3 f   D3dx8:jdmainct.obj
 0001:00033379       ?process_data_simple_main@D3DX@@YAXPAUjpeg_decompress_struct@1@PAPAEPAII@Z 10034379 f   D3dx8:jdmainct.obj
 0001:000333e1       ?process_data_context_main@D3DX@@YAXPAUjpeg_decompress_struct@1@PAPAEPAII@Z 100343e1 f   D3dx8:jdmainct.obj
 0001:000334e9       ?process_data_crank_post@D3DX@@YAXPAUjpeg_decompress_struct@1@PAPAEPAII@Z 100344e9 f   D3dx8:jdmainct.obj
 0001:0003350c       ?start_pass_main@D3DX@@YAXPAUjpeg_decompress_struct@1@W4J_BUF_MODE@1@@Z 1003450c f   D3dx8:jdmainct.obj
 0001:00033647       ?start_iMCU_row@D3DX@@YAXPAUjpeg_decompress_struct@1@@Z 10034647 f   D3dx8:jdcoefct.obj
 0001:00033686       ?start_input_pass@D3DX@@YAXPAUjpeg_decompress_struct@1@@Z 10034686 f   D3dx8:jdcoefct.obj
 0001:00033696       ?decompress_onepass@D3DX@@YAHPAUjpeg_decompress_struct@1@PAPAPAE@Z 10034696 f   D3dx8:jdcoefct.obj
 0001:00033870       ?dummy_consume_data@D3DX@@YAHPAUjpeg_decompress_struct@1@@Z 10034870 f   D3dx8:jdcoefct.obj
 0001:00033873       ?consume_data@D3DX@@YAHPAUjpeg_decompress_struct@1@@Z 10034873 f   D3dx8:jdcoefct.obj
 0001:00033a12       ?decompress_data@D3DX@@YAHPAUjpeg_decompress_struct@1@PAPAPAE@Z 10034a12 f   D3dx8:jdcoefct.obj
 0001:00033b78       ?smoothing_ok@D3DX@@YAEPAUjpeg_decompress_struct@1@@Z 10034b78 f   D3dx8:jdcoefct.obj
 0001:00033c5b       ?decompress_smooth_data@D3DX@@YAHPAUjpeg_decompress_struct@1@PAPAPAE@Z 10034c5b f   D3dx8:jdcoefct.obj
 0001:00034178       ?start_output_pass@D3DX@@YAXPAUjpeg_decompress_struct@1@@Z 10035178 f   D3dx8:jdcoefct.obj
 0001:00034629       ?process_restart@D3DX@@YAEPAUjpeg_decompress_struct@1@@Z 10035629 f   D3dx8:jdhuff.obj
 0001:00034687       ?decode_mcu@D3DX@@YAEPAUjpeg_decompress_struct@1@PAPAY0EA@F@Z 10035687 f   D3dx8:jdhuff.obj
 0001:00034a54       ?start_pass_huff_decoder@D3DX@@YAXPAUjpeg_decompress_struct@1@@Z 10035a54 f   D3dx8:jdhuff.obj
 0001:00034bbd       ?process_restart@D3DX@@YAEPAUjpeg_decompress_struct@1@@Z 10035bbd f   D3dx8:jdphuff.obj
 0001:00034c18       ?decode_mcu_DC_first@D3DX@@YAEPAUjpeg_decompress_struct@1@PAPAY0EA@F@Z 10035c18 f   D3dx8:jdphuff.obj
 0001:00034e15       ?decode_mcu_AC_first@D3DX@@YAEPAUjpeg_decompress_struct@1@PAPAY0EA@F@Z 10035e15 f   D3dx8:jdphuff.obj
 0001:0003503e       ?decode_mcu_DC_refine@D3DX@@YAEPAUjpeg_decompress_struct@1@PAPAY0EA@F@Z 1003603e f   D3dx8:jdphuff.obj
 0001:00035120       ?decode_mcu_AC_refine@D3DX@@YAEPAUjpeg_decompress_struct@1@PAPAY0EA@F@Z 10036120 f   D3dx8:jdphuff.obj
 0001:0003548e       ?start_pass_phuff_decoder@D3DX@@YAXPAUjpeg_decompress_struct@1@@Z 1003648e f   D3dx8:jdphuff.obj
 0001:00035792       ?start_pass@D3DX@@YAXPAUjpeg_decompress_struct@1@@Z 10036792 f   D3dx8:jddctmgr.obj
 0001:000359bd       ?post_process_1pass@D3DX@@YAXPAUjpeg_decompress_struct@1@PAPAPAEPAIIPAPAE2I@Z 100369bd f   D3dx8:jdpostct.obj
 0001:00035a22       ?post_process_prepass@D3DX@@YAXPAUjpeg_decompress_struct@1@PAPAPAEPAIIPAPAE2I@Z 10036a22 f   D3dx8:jdpostct.obj
 0001:00035ab2       ?post_process_2pass@D3DX@@YAXPAUjpeg_decompress_struct@1@PAPAPAEPAIIPAPAE2I@Z 10036ab2 f   D3dx8:jdpostct.obj
 0001:00035b3e       ?start_pass_dpost@D3DX@@YAXPAUjpeg_decompress_struct@1@W4J_BUF_MODE@1@@Z 10036b3e f   D3dx8:jdpostct.obj
 0001:00035c67       ?start_pass_upsample@D3DX@@YAXPAUjpeg_decompress_struct@1@@Z 10036c67 f   D3dx8:jdsample.obj
 0001:00035c81       ?sep_upsample@D3DX@@YAXPAUjpeg_decompress_struct@1@PAPAPAEPAIIPAPAE2I@Z 10036c81 f   D3dx8:jdsample.obj
 0001:00035d47       ?fullsize_upsample@D3DX@@YAXPAUjpeg_decompress_struct@1@PAUjpeg_component_info@1@PAPAEPAPAPAE@Z 10036d47 f   D3dx8:jdsample.obj
 0001:00035d52       ?noop_upsample@D3DX@@YAXPAUjpeg_decompress_struct@1@PAUjpeg_component_info@1@PAPAEPAPAPAE@Z 10036d52 f   D3dx8:jdsample.obj
 0001:00035d5a       ?int_upsample@D3DX@@YAXPAUjpeg_decompress_struct@1@PAUjpeg_component_info@1@PAPAEPAPAPAE@Z 10036d5a f   D3dx8:jdsample.obj
 0001:00035e37       ?h2v1_upsample@D3DX@@YAXPAUjpeg_decompress_struct@1@PAUjpeg_component_info@1@PAPAEPAPAPAE@Z 10036e37 f   D3dx8:jdsample.obj
 0001:00035e8e       ?h2v2_upsample@D3DX@@YAXPAUjpeg_decompress_struct@1@PAUjpeg_component_info@1@PAPAEPAPAPAE@Z 10036e8e f   D3dx8:jdsample.obj
 0001:00035ef8       ?h2v1_fancy_upsample@D3DX@@YAXPAUjpeg_decompress_struct@1@PAUjpeg_component_info@1@PAPAEPAPAPAE@Z 10036ef8 f   D3dx8:jdsample.obj
 0001:00035f9c       ?h2v2_fancy_upsample@D3DX@@YAXPAUjpeg_decompress_struct@1@PAUjpeg_component_info@1@PAPAEPAPAPAE@Z 10036f9c f   D3dx8:jdsample.obj
 0001:00036264       ?build_ycc_rgb_table@D3DX@@YAXPAUjpeg_decompress_struct@1@@Z 10037264 f   D3dx8:jdcolor.obj
 0001:00036314       ?null_convert@D3DX@@YAXPAUjpeg_decompress_struct@1@PAPAPAEIPAPAEH@Z 10037314 f   D3dx8:jdcolor.obj
 0001:0003637f       ?grayscale_convert@D3DX@@YAXPAUjpeg_decompress_struct@1@PAPAPAEIPAPAEH@Z 1003737f f   D3dx8:jdcolor.obj
 0001:000363a2       ?ycck_cmyk_convert@D3DX@@YAXPAUjpeg_decompress_struct@1@PAPAPAEIPAPAEH@Z 100373a2 f   D3dx8:jdcolor.obj
 0001:000364d4       ?start_pass_dcolor@D3DX@@YAXPAUjpeg_decompress_struct@1@@Z 100374d4 f   D3dx8:jdcolor.obj
 0001:0003687b       ?ycc_rgb_convert@D3DX@@YAXPAUjpeg_decompress_struct@1@PAPAPAEIPAPAEH@Z 1003787b f   D3dx8:jdcolor.obj
 0001:00036bba       ?build_ycc_rgb_table@D3DX@@YAXPAUjpeg_decompress_struct@1@@Z 10037bba f   D3dx8:jdmerge.obj
 0001:00036c6a       ?start_pass_merged_upsample@D3DX@@YAXPAUjpeg_decompress_struct@1@@Z 10037c6a f   D3dx8:jdmerge.obj
 0001:00036c7f       ?merged_2v_upsample@D3DX@@YAXPAUjpeg_decompress_struct@1@PAPAPAEPAIIPAPAE2I@Z 10037c7f f   D3dx8:jdmerge.obj
 0001:00036d25       ?merged_1v_upsample@D3DX@@YAXPAUjpeg_decompress_struct@1@PAPAPAEPAIIPAPAE2I@Z 10037d25 f   D3dx8:jdmerge.obj
 0001:00036d56       ?h2v1_merged_upsample@D3DX@@YAXPAUjpeg_decompress_struct@1@PAPAPAEIPAPAE@Z 10037d56 f   D3dx8:jdmerge.obj
 0001:00036eac       ?h2v2_merged_upsample@D3DX@@YAXPAUjpeg_decompress_struct@1@PAPAPAEIPAPAE@Z 10037eac f   D3dx8:jdmerge.obj
 0001:00037107       ?prescan_quantize@D3DX@@YAXPAUjpeg_decompress_struct@1@PAPAE1H@Z 10038107 f   D3dx8:jquant2.obj
 0001:00037173       ?find_biggest_color_pop@D3DX@@YAPAUbox@1@PAU21@H@Z 10038173 f   D3dx8:jquant2.obj
 0001:0003719c       ?find_biggest_volume@D3DX@@YAPAUbox@1@PAU21@H@Z 1003819c f   D3dx8:jquant2.obj
 0001:000371bf       ?update_box@D3DX@@YAXPAUjpeg_decompress_struct@1@PAUbox@1@@Z 100381bf f   D3dx8:jquant2.obj
 0001:000374f7       ?median_cut@D3DX@@YAHPAUjpeg_decompress_struct@1@PAUbox@1@HH@Z 100384f7 f   D3dx8:jquant2.obj
 0001:0003764a       ?compute_color@D3DX@@YAXPAUjpeg_decompress_struct@1@PAUbox@1@H@Z 1003864a f   D3dx8:jquant2.obj
 0001:00037782       ?select_colors@D3DX@@YAXPAUjpeg_decompress_struct@1@H@Z 10038782 f   D3dx8:jquant2.obj
 0001:0003780f       ?find_nearby_colors@D3DX@@YAHPAUjpeg_decompress_struct@1@HHHQAE@Z 1003880f f   D3dx8:jquant2.obj
 0001:0003798f       ?find_best_colors@D3DX@@YAXPAUjpeg_decompress_struct@1@HHHHQAE1@Z 1003898f f   D3dx8:jquant2.obj
 0001:00037aa9       ?fill_inverse_cmap@D3DX@@YAXPAUjpeg_decompress_struct@1@HHH@Z 10038aa9 f   D3dx8:jquant2.obj
 0001:00037b79       ?pass2_no_dither@D3DX@@YAXPAUjpeg_decompress_struct@1@PAPAE1H@Z 10038b79 f   D3dx8:jquant2.obj
 0001:00037c22       ?pass2_fs_dither@D3DX@@YAXPAUjpeg_decompress_struct@1@PAPAE1H@Z 10038c22 f   D3dx8:jquant2.obj
 0001:00037e90       ?init_error_limit@D3DX@@YAXPAUjpeg_decompress_struct@1@@Z 10038e90 f   D3dx8:jquant2.obj
 0001:00037f20       ?finish_pass1@D3DX@@YAXPAUjpeg_decompress_struct@1@@Z 10038f20 f   D3dx8:jquant2.obj
 0001:00037f42       ?finish_pass2@D3DX@@YAXPAUjpeg_decompress_struct@1@@Z 10038f42 f   D3dx8:jquant2.obj
 0001:00037f43       ?start_pass_2_quant@D3DX@@YAXPAUjpeg_decompress_struct@1@E@Z 10038f43 f   D3dx8:jquant2.obj
 0001:00038045       ?new_color_map_2_quant@D3DX@@YAXPAUjpeg_decompress_struct@1@@Z 10039045 f   D3dx8:jquant2.obj
 0001:00038167       ?select_ncolors@D3DX@@YAHPAUjpeg_decompress_struct@1@QAH@Z 10039167 f   D3dx8:jquant1.obj
 0001:00038232       ?output_value@D3DX@@YAHPAUjpeg_decompress_struct@1@HHH@Z 10039232 f   D3dx8:jquant1.obj
 0001:0003824b       ?largest_input_value@D3DX@@YAHPAUjpeg_decompress_struct@1@HHH@Z 1003924b f   D3dx8:jquant1.obj
 0001:0003825e       ?create_colormap@D3DX@@YAXPAUjpeg_decompress_struct@1@@Z 1003925e f   D3dx8:jquant1.obj
 0001:0003838b       ?create_colorindex@D3DX@@YAXPAUjpeg_decompress_struct@1@@Z 1003938b f   D3dx8:jquant1.obj
 0001:000384b6       ?make_odither_array@D3DX@@YAPAY0BA@HPAUjpeg_decompress_struct@1@H@Z 100394b6 f   D3dx8:jquant1.obj
 0001:00038518       ?create_odither_tables@D3DX@@YAXPAUjpeg_decompress_struct@1@@Z 10039518 f   D3dx8:jquant1.obj
 0001:000385dd       ?color_quantize@D3DX@@YAXPAUjpeg_decompress_struct@1@PAPAE1H@Z 100395dd f   D3dx8:jquant1.obj
 0001:00038665       ?color_quantize3@D3DX@@YAXPAUjpeg_decompress_struct@1@PAPAE1H@Z 10039665 f   D3dx8:jquant1.obj
 0001:000386f2       ?quantize_ord_dither@D3DX@@YAXPAUjpeg_decompress_struct@1@PAPAE1H@Z 100396f2 f   D3dx8:jquant1.obj
 0001:000387dd       ?quantize3_ord_dither@D3DX@@YAXPAUjpeg_decompress_struct@1@PAPAE1H@Z 100397dd f   D3dx8:jquant1.obj
 0001:000388dc       ?quantize_fs_dither@D3DX@@YAXPAUjpeg_decompress_struct@1@PAPAE1H@Z 100398dc f   D3dx8:jquant1.obj
 0001:00038a60       ?alloc_fs_workspace@D3DX@@YAXPAUjpeg_decompress_struct@1@@Z 10039a60 f   D3dx8:jquant1.obj
 0001:00038a96       ?start_pass_1_quant@D3DX@@YAXPAUjpeg_decompress_struct@1@E@Z 10039a96 f   D3dx8:jquant1.obj
 0001:00038b60       ?finish_pass_1_quant@D3DX@@YAXPAUjpeg_decompress_struct@1@@Z 10039b60 f   D3dx8:jquant1.obj
 0001:00038b61       ?new_color_map_1_quant@D3DX@@YAXPAUjpeg_decompress_struct@1@@Z 10039b61 f   D3dx8:jquant1.obj
 0001:00038cee       ?sse_D3DXVec3TransformNormal$$1@@YGPAUD3DXVECTOR3@@PAU1@PBU1@PBUD3DXMATRIX@@@Z 10039cee f   D3dx8:d3dxmathsse.obj
 0001:00038dae       ?sse_D3DXVec3Transform$$1@@YGPAUD3DXVECTOR4@@PAU1@PBUD3DXVECTOR3@@PBUD3DXMATRIX@@@Z 10039dae f   D3dx8:d3dxmathsse.obj
 0001:00038e6e       ?sse_D3DXVec3TransformCoord$$1@@YGPAUD3DXVECTOR3@@PAU1@PBU1@PBUD3DXMATRIX@@@Z 10039e6e f   D3dx8:d3dxmathsse.obj
 0001:00038f6e       ?sse_D3DXVec4Transform$$1@@YGPAUD3DXVECTOR4@@PAU1@PBU1@PBUD3DXMATRIX@@@Z 10039f6e f   D3dx8:d3dxmathsse.obj
 0001:0003902e       ?sse_D3DXMatrixMultiply$$1@@YGPAUD3DXMATRIX@@PAU1@PBU1@1@Z 1003a02e f   D3dx8:d3dxmathsse.obj
 0001:0003917e       ?sse_D3DXVec3Normalize$$1@@YGPAUD3DXVECTOR3@@PAU1@PBU1@@Z 1003a17e f   D3dx8:d3dxmathsse.obj
 0001:0003924e       ?sse_D3DXPlaneNormalize$$1@@YGPAUD3DXPLANE@@PAU1@PBU1@@Z 1003a24e f   D3dx8:d3dxmathsse.obj
 0001:0003932e       ?sse_D3DXVec2Normalize$$1@@YGPAUD3DXVECTOR2@@PAU1@PBU1@@Z 1003a32e f   D3dx8:d3dxmathsse.obj
 0001:000393ce       ?sse_D3DXMatrixInverse$$1@@YGPAUD3DXMATRIX@@PAU1@PAMPBU1@@Z 1003a3ce f   D3dx8:d3dxmathsse.obj
 0001:0003968e       ?sse_D3DXMatrixMultiplyTranspose$$1@@YGPAUD3DXMATRIX@@PAU1@PBU1@1@Z 1003a68e f   D3dx8:d3dxmathsse.obj
 0001:000397ee       ?sse_D3DXVec4Cross$$1@@YGPAUD3DXVECTOR4@@PAU1@PBU1@11@Z 1003a7ee f   D3dx8:d3dxmathsse.obj
 0001:0003993e       ?sse_D3DXMatrixRotationX$$1@@YGPAUD3DXMATRIX@@PAU1@M@Z 1003a93e f   D3dx8:d3dxmathsse.obj
 0001:000399be       ?sse_D3DXMatrixRotationY$$1@@YGPAUD3DXMATRIX@@PAU1@M@Z 1003a9be f   D3dx8:d3dxmathsse.obj
 0001:00039fee       TAG_PACKET_0               1003afee f   D3dx8:d3dxmathsse.obj
 0001:00039ff5       TAG_PACKET_1               1003aff5 f   D3dx8:d3dxmathsse.obj
 0001:0003a00e       ?sse_D3DXColorAdjustSaturation$$1@@YGPAUD3DXCOLOR@@PAU1@PBU1@M@Z 1003b00e f   D3dx8:d3dxmathsse.obj
 0001:0003a09e       ?sse_D3DXMatrixDeterminant$$1@@YGMPBUD3DXMATRIX@@@Z 1003b09e f   D3dx8:d3dxmathsse.obj
 0001:0003a16e       ?sse_D3DXPlaneFromPoints$$1@@YGPAUD3DXPLANE@@PAU1@PBUD3DXVECTOR3@@11@Z 1003b16e f   D3dx8:d3dxmathsse.obj
 0001:0003a25e       ?sse_D3DXMatrixShadow$$1@@YGPAU_D3DMATRIX@@PAU1@PBUD3DXVECTOR4@@PBUD3DXPLANE@@@Z 1003b25e f   D3dx8:d3dxmathsse.obj
 0001:0003a3ee       ?sse_D3DXMatrixReflect$$1@@YGPAUD3DXMATRIX@@PAU1@PBUD3DXPLANE@@@Z 1003b3ee f   D3dx8:d3dxmathsse.obj
 0001:0003a5fe       ?sse_D3DXQuaternionInverse$$1@@YGPAUD3DXQUATERNION@@PAU1@PBU1@@Z 1003b5fe f   D3dx8:d3dxquatsse.obj
 0001:0003a78e       ?sse_D3DXQuaternionRotationYawPitchRoll$$1@@YGPAUD3DXQUATERNION@@PAU1@MMM@Z 1003b78e f   D3dx8:d3dxquatsse.obj
 0001:0003a85e       ?sse2_D3DXVec3TransformNormal$$1@@YGPAUD3DXVECTOR3@@PAU1@PBU1@PBUD3DXMATRIX@@@Z 1003b85e f   D3dx8:d3dxmathsse2.obj
 0001:0003a91e       ?sse2_D3DXVec3Transform$$1@@YGPAUD3DXVECTOR4@@PAU1@PBUD3DXVECTOR3@@PBUD3DXMATRIX@@@Z 1003b91e f   D3dx8:d3dxmathsse2.obj
 0001:0003a9de       ?sse2_D3DXVec3TransformCoord$$1@@YGPAUD3DXVECTOR3@@PAU1@PBU1@PBUD3DXMATRIX@@@Z 1003b9de f   D3dx8:d3dxmathsse2.obj
 0001:0003aade       ?sse2_D3DXVec4Transform$$1@@YGPAUD3DXVECTOR4@@PAU1@PBU1@PBUD3DXMATRIX@@@Z 1003bade f   D3dx8:d3dxmathsse2.obj
 0001:0003ab9e       ?sse2_D3DXMatrixMultiply$$1@@YGPAUD3DXMATRIX@@PAU1@PBU1@1@Z 1003bb9e f   D3dx8:d3dxmathsse2.obj
 0001:0003acee       ?sse2_D3DXVec3Normalize$$1@@YGPAUD3DXVECTOR3@@PAU1@PBU1@@Z 1003bcee f   D3dx8:d3dxmathsse2.obj
 0001:0003adbe       ?sse2_D3DXPlaneNormalize$$1@@YGPAUD3DXPLANE@@PAU1@PBU1@@Z 1003bdbe f   D3dx8:d3dxmathsse2.obj
 0001:0003ae9e       ?sse2_D3DXVec2Normalize$$1@@YGPAUD3DXVECTOR2@@PAU1@PBU1@@Z 1003be9e f   D3dx8:d3dxmathsse2.obj
 0001:0003af3e       ?sse2_D3DXMatrixInverse$$1@@YGPAUD3DXMATRIX@@PAU1@PAMPBU1@@Z 1003bf3e f   D3dx8:d3dxmathsse2.obj
 0001:0003b1fe       ?sse2_D3DXMatrixMultiplyTranspose$$1@@YGPAUD3DXMATRIX@@PAU1@PBU1@1@Z 1003c1fe f   D3dx8:d3dxmathsse2.obj
 0001:0003b35e       ?sse2_D3DXVec4Cross$$1@@YGPAUD3DXVECTOR4@@PAU1@PBU1@11@Z 1003c35e f   D3dx8:d3dxmathsse2.obj
 0001:0003b40e       ?sse2_D3DXMatrixRotationX$$1@@YGPAUD3DXMATRIX@@PAU1@M@Z 1003c40e f   D3dx8:d3dxmathsse2.obj
 0001:0003b48e       ?sse2_D3DXMatrixRotationY$$1@@YGPAUD3DXMATRIX@@PAU1@M@Z 1003c48e f   D3dx8:d3dxmathsse2.obj
 0001:0003b51e       ?sse2_D3DXMatrixDeterminant$$1@@YGMPBUD3DXMATRIX@@@Z 1003c51e f   D3dx8:d3dxmathsse2.obj
 0001:0003b5ee       ?sse2_D3DXPlaneFromPoints$$1@@YGPAUD3DXPLANE@@PAU1@PBUD3DXVECTOR3@@11@Z 1003c5ee f   D3dx8:d3dxmathsse2.obj
 0001:0003b6de       ?sse2_D3DXMatrixShadow$$1@@YGPAU_D3DMATRIX@@PAU1@PBUD3DXVECTOR4@@PBUD3DXPLANE@@@Z 1003c6de f   D3dx8:d3dxmathsse2.obj
 0001:0003b86e       ?sse2_D3DXMatrixReflect$$1@@YGPAUD3DXMATRIX@@PAU1@PBUD3DXPLANE@@@Z 1003c86e f   D3dx8:d3dxmathsse2.obj
 0001:0003b94e       ?sse2_D3DXQuaternionInverse$$1@@YGPAUD3DXQUATERNION@@PAU1@PBU1@@Z 1003c94e f   D3dx8:d3dxquatsse2.obj
 0001:0003b9be       ?sse2_QuaternionSlerp$$1@@YGPAUD3DXQUATERNION@@PAU1@PBU1@1M@Z 1003c9be f   D3dx8:d3dxquatsse2.obj
 0001:0003bc2e       ?sse2_D3DXQuaternionRotationYawPitchRoll$$1@@YGPAUD3DXQUATERNION@@PAU1@MMM@Z 1003cc2e f   D3dx8:d3dxquatsse2.obj
 0001:00043dae       ?vmlsAcos4$$1@@YAXQBMQAM@Z 10044dae f   D3dx8:d3dxtrigsse.obj
 0001:00043fa1       TAG_PACKET_1               10044fa1 f   D3dx8:d3dxtrigsse.obj
 0001:0004400d       TAG_PACKET_0               1004500d f   D3dx8:d3dxtrigsse.obj
 0001:00044053       TAG_PACKET_2               10045053 f   D3dx8:d3dxtrigsse.obj
 0001:000440c4       TAG_PACKET_4               100450c4 f   D3dx8:d3dxtrigsse.obj
 0001:000440f0       TAG_PACKET_3               100450f0 f   D3dx8:d3dxtrigsse.obj
 0001:00044168       TAG_PACKET_6               10045168 f   D3dx8:d3dxtrigsse.obj
 0001:000441d0       TAG_PACKET_5               100451d0 f   D3dx8:d3dxtrigsse.obj
 0001:000441d0       TAG_PACKET_7               100451d0 f   D3dx8:d3dxtrigsse.obj
 0001:00044a17       TAG_PACKET_0               10045a17 f   D3dx8:d3dxtrigsse2.obj
 0001:00044a27       TAG_PACKET_1               10045a27 f   D3dx8:d3dxtrigsse2.obj
 0001:00045f21       ?huft_build@D3DX@@YAHPAIIIPBI1PAPAUinflate_huft_s@1@0PAU21@00@Z 10046f21 f   D3dx8:inftrees.obj
 0001:00050020       ?CatchGuardHandler@@YA?AW4_EXCEPTION_DISPOSITION@@PAUEHExceptionRecord@@PAUCatchGuardRN@@PAX2@Z 10051020 f   LIBCD:trnsctrl.obj
 0001:00050160       ?TranslatorGuardHandler@@YA?AW4_EXCEPTION_DISPOSITION@@PAUEHExceptionRecord@@PAUTranslatorGuardRN@@PAX2@Z 10051160 f   LIBCD:trnsctrl.obj
 0001:00050358       $$$00001                   10051358 f   LIBCD:exsup.obj
 0001:00050378       __unwind_handler           10051378 f   LIBCD:exsup.obj
 0001:00050378       $$$00003                   10051378 f   LIBCD:exsup.obj
 0001:0005039a       $$$00005                   1005139a f   LIBCD:exsup.obj
 0001:00050402       $$$00007                   10051402 f   LIBCD:exsup.obj
 0001:00050446       $$$00011                   10051446 f   LIBCD:exsup.obj
 0001:000524d0       ?ArrayUnwindFilter@@YAHPAU_EXCEPTION_POINTERS@@@Z 100534d0 f   LIBCD:ehvecdtr.obj
 0001:000525a0       $$$00001                   100535a0 f   LIBCD:longjmp.obj
 0001:00052619       $$$00003                   10053619 f   LIBCD:longjmp.obj
 0001:00052697       $$$00002                   10053697 f   LIBCD:setjmp3.obj
 0001:00052aaf       _$$$00002                  10053aaf f   LIBCD:pow.obj
 0001:00053650       _doexit                    10054650 f   LIBCD:crt0dat.obj
 0001:00053780       __initterm                 10054780 f   LIBCD:crt0dat.obj
 0001:000537b0       __initterm_e               100547b0 f   LIBCD:crt0dat.obj
 0001:00053cf0       _realloc_help              10054cf0 f   LIBCD:dbgheap.obj
 0001:00054890       _CheckBytes                10055890 f   LIBCD:dbgheap.obj
 0001:000553d0       __printMemBlockData        100563d0 f   LIBCD:dbgheap.obj
 0001:00055ea0       ?failwithmessage@@YAXPAXHHPBD@Z 10056ea0 f   LIBCD:error.obj
 0001:00055f90       ?DebuggerProbe@@YAHK@Z     10056f90 f   LIBCD:error.obj
 0001:00056010       ?DebuggerRuntime@@YAHKHPAXPB_W@Z 10057010 f   LIBCD:error.obj
 0001:000562a0       ?IntToString@@YAPADH@Z     100572a0 f   LIBCD:error.obj
 0001:00056490       ?_IsDebuggerPresent@@YAHXZ 10057490 f   LIBCD:error.obj
 0001:000564c0       ?Initialize@@YAHXZ         100574c0 f   LIBCD:error.obj
 0001:00056540       ?Win95IsDebuggerPresent@@YGHXZ 10057540 f   LIBCD:error.obj
 0001:00056550       ?WinGetDebugContext@@YAPAXXZ 10057550 f   LIBCD:error.obj
 0001:00056560       ?GetCurrentTib@@YAPAU_TIB@@XZ 10057560 f   LIBCD:error.obj
 0001:000567a0       ?FindHandler@@YAXPAUEHExceptionRecord@@PAUEHRegistrationNode@@PAU_CONTEXT@@PAXPBU_s_FuncInfo@@EH1@Z 100577a0 f   LIBCD:frame.obj
 0001:00056a30       ?FindHandlerForForeignException@@YAXPAUEHExceptionRecord@@PAUEHRegistrationNode@@PAU_CONTEXT@@PAXPBU_s_FuncInfo@@HH1@Z 10057a30 f   LIBCD:frame.obj
 0001:00056b60       ?TypeMatch@@YAHPBU_s_HandlerType@@PBU_s_CatchableType@@PBU_s_ThrowInfo@@@Z 10057b60 f   LIBCD:frame.obj
 0001:00056d40       ?FrameUnwindFilter@@YAHPAU_EXCEPTION_POINTERS@@@Z 10057d40 f   LIBCD:frame.obj
 0001:00056d80       ?CatchIt@@YAXPAUEHExceptionRecord@@PAUEHRegistrationNode@@PAU_CONTEXT@@PAXPBU_s_FuncInfo@@PBU_s_HandlerType@@PBU_s_CatchableType@@PBU_s_TryBlockMapEntry@@H1E@Z 10057d80 f   LIBCD:frame.obj
 0001:00056e40       ?CallCatchBlock@@YAPAXPAUEHExceptionRecord@@PAUEHRegistrationNode@@PAU_CONTEXT@@PBU_s_FuncInfo@@PAXHK@Z 10057e40 f   LIBCD:frame.obj
 0001:00057050       ?ExFilterRethrow@@YAHPAU_EXCEPTION_POINTERS@@@Z 10058050 f   LIBCD:frame.obj
 0001:000570a0       ?BuildCatchObject@@YAXPAUEHExceptionRecord@@PAXPBU_s_HandlerType@@PBU_s_CatchableType@@@Z 100580a0 f   LIBCD:frame.obj
 0001:000573d0       ?AdjustPointer@@YAPAXPAXABUPMD@@@Z 100583d0 f   LIBCD:frame.obj
 0001:00058160       __cftoe_g                  10059160 f   LIBCD:cvt.obj
 0001:000581a0       __cftof_g                  100591a0 f   LIBCD:cvt.obj
 0001:00058230       __shift                    10059230 f   LIBCD:cvt.obj
 0001:00058940       _CrtMessageWindow          10059940 f   LIBCD:dbgrpt.obj
 0001:00059c70       _write_char                1005ac70 f   LIBCD:output.obj
 0001:00059d10       _write_multi_char          1005ad10 f   LIBCD:output.obj
 0001:00059d50       _write_string              1005ad50 f   LIBCD:output.obj
 0001:00059dc0       _get_int_arg               1005adc0 f   LIBCD:output.obj
 0001:00059de0       _get_int64_arg             1005ade0 f   LIBCD:output.obj
 0001:00059e00       _get_short_arg             1005ae00 f   LIBCD:output.obj
 0001:0005b370       __hextodec                 1005c370 f   LIBCD:input.obj
 0001:0005b3d0       __inc                      1005c3d0 f   LIBCD:input.obj
 0001:0005b430       __un_inc                   1005c430 f   LIBCD:input.obj
 0001:0005b450       __whiteout                 1005c450 f   LIBCD:input.obj
 0001:0005bc70       _strncnt                   1005cc70 f   LIBCD:a_map.obj
 0001:0005bdbd       $$$00003                   1005cdbd f   LIBCD:exsup3.obj
 0001:0005bdd0       _report_failure            1005cdd0 f   LIBCD:secchk.obj
 0001:0005c570       _flsall                    1005d570 f   LIBCD:fflush.obj
 0001:0005d350       _parse_cmdline             1005e350 f   LIBCD:stdargv.obj
 0001:0005dd20       _xcptlookup                1005ed20 f   LIBCD:winxfltr.obj
 0001:0005e310       _has_osfxsr_set            1005f310 f   LIBCD:cpu_disp.obj
 0001:0005eef0       _$$$00001                  1005fef0 f   LIBCD:87tran.obj
 0001:0005f1f3       _$$$00003                  100601f3 f   LIBCD:87disp.obj
 0001:00061360       __get_fname                10062360 f   LIBCD:fpexcept.obj
 0001:000638e0       ?GetImageInfo@@YAPAUImageInfo@@K@Z 100648e0 f   LIBCD:pdblkup.obj
 0001:00063ca0       ?GetPdbDll@@YAPAUHINSTANCE__@@XZ 10064ca0 f   LIBCD:pdblkup.obj
 0001:00063f90       __abstract_cw              10064f90 f   LIBCD:ieee87.obj
 0001:000640e0       __hw_cw                    100650e0 f   LIBCD:ieee87.obj
 0001:00064240       __abstract_sw              10065240 f   LIBCD:ieee87.obj
 0001:00064f40       _xtoa                      10065f40 f   LIBCD:xtoa.obj
 0001:000650c0       _x64toa@20                 100660c0 f   LIBCD:xtoa.obj
 0001:00065470       _ctrlevent_capture@4       10066470 f   LIBCD:winsig.obj
 0001:00065690       _siglookup                 10066690 f   LIBCD:winsig.obj
 0001:00067ae0       _getSystemCP               10068ae0 f   LIBCD:mbctype.obj
 0001:00067b40       _CPtoLCID                  10068b40 f   LIBCD:mbctype.obj
 0001:00067bc0       _setSBCS                   10068bc0 f   LIBCD:mbctype.obj
 0001:00067c40       _setSBUpLow                10068c40 f   LIBCD:mbctype.obj
 0001:0006b380       __unwindfunclet$?Init@aMaterial@@YGXPAVPackClass@Packet@@@Z$0 1006c380 f   aMaterial.obj
 0001:0006b38e       __unwindfunclet$?Init@aMaterial@@YGXPAVPackClass@Packet@@@Z$1 1006c38e f   aMaterial.obj
 0001:0006b39c       __ehhandler$?Init@aMaterial@@YGXPAVPackClass@Packet@@@Z 1006c39c f   aMaterial.obj
 0001:0006b3b0       __unwindfunclet$?SetDefaultValues@aMaterial@@YGXH@Z$0 1006c3b0 f   aMaterial.obj
 0001:0006b3bb       __ehhandler$?SetDefaultValues@aMaterial@@YGXH@Z 1006c3bb f   aMaterial.obj
 0001:0006b3d0       __unwindfunclet$?CreateMaterial@aMaterial@@YGHXZ$0 1006c3d0 f   aMaterial.obj
 0001:0006b3de       __unwindfunclet$?CreateMaterial@aMaterial@@YGHXZ$1 1006c3de f   aMaterial.obj
 0001:0006b3ec       __ehhandler$?CreateMaterial@aMaterial@@YGHXZ 1006c3ec f   aMaterial.obj
 0001:0006b400       __unwindfunclet$??0MaterialType@aMaterial@@QAE@XZ$0 1006c400 f   aMaterial.obj
 0001:0006b408       __ehhandler$??0MaterialType@aMaterial@@QAE@XZ 1006c408 f   aMaterial.obj
 0001:0006b420       __unwindfunclet$??0GenMaterial@aMaterial@@QAE@XZ$0 1006c420 f   aMaterial.obj
 0001:0006b428       __unwindfunclet$??0GenMaterial@aMaterial@@QAE@XZ$1 1006c428 f   aMaterial.obj
 0001:0006b433       __unwindfunclet$??0GenMaterial@aMaterial@@QAE@XZ$2 1006c433 f   aMaterial.obj
 0001:0006b43e       __ehhandler$??0GenMaterial@aMaterial@@QAE@XZ 1006c43e f   aMaterial.obj
 0001:0006b450       __unwindfunclet$??1MaterialType@aMaterial@@QAE@XZ$0 1006c450 f   aMaterial.obj
 0001:0006b458       __ehhandler$??1MaterialType@aMaterial@@QAE@XZ 1006c458 f   aMaterial.obj
 0001:0006b470       __unwindfunclet$??1GenMaterial@aMaterial@@QAE@XZ$0 1006c470 f   aMaterial.obj
 0001:0006b478       __unwindfunclet$??1GenMaterial@aMaterial@@QAE@XZ$1 1006c478 f   aMaterial.obj
 0001:0006b483       __unwindfunclet$??1GenMaterial@aMaterial@@QAE@XZ$2 1006c483 f   aMaterial.obj
 0001:0006b48e       __ehhandler$??1GenMaterial@aMaterial@@QAE@XZ 1006c48e f   aMaterial.obj
 0001:0006b4a0       __unwindfunclet$?RemoveMaterial@aMaterial@@YGXPAVPackClass@Packet@@@Z$0 1006c4a0 f   aMaterial.obj
 0001:0006b4ae       __ehhandler$?RemoveMaterial@aMaterial@@YGXPAVPackClass@Packet@@@Z 1006c4ae f   aMaterial.obj
 0001:0006b4c0       __unwindfunclet$?CreateMaterial@aMaterial@@YGXPAVPackClass@Packet@@@Z$0 1006c4c0 f   aMaterial.obj
 0001:0006b4ce       __ehhandler$?CreateMaterial@aMaterial@@YGXPAVPackClass@Packet@@@Z 1006c4ce f   aMaterial.obj
 0001:0006b4e0       __unwindfunclet$?AddRAWTexture@aMaterial@@YGHPBDAAVBinClass@Data@@HH@Z$0 1006c4e0 f   aMaterial.obj
 0001:0006b4ee       __unwindfunclet$?AddRAWTexture@aMaterial@@YGHPBDAAVBinClass@Data@@HH@Z$1 1006c4ee f   aMaterial.obj
 0001:0006b4f9       __ehhandler$?AddRAWTexture@aMaterial@@YGHPBDAAVBinClass@Data@@HH@Z 1006c4f9 f   aMaterial.obj
 0001:0006b510       __unwindfunclet$?AddPPMTexture@aMaterial@@YGHPBDAAVBinClass@Data@@@Z$0 1006c510 f   aMaterial.obj
 0001:0006b51e       __unwindfunclet$?AddPPMTexture@aMaterial@@YGHPBDAAVBinClass@Data@@@Z$1 1006c51e f   aMaterial.obj
 0001:0006b529       __ehhandler$?AddPPMTexture@aMaterial@@YGHPBDAAVBinClass@Data@@@Z 1006c529 f   aMaterial.obj
 0001:0006b540       __unwindfunclet$?AddTGATexture@aMaterial@@YGHPBDAAVBinClass@Data@@@Z$0 1006c540 f   aMaterial.obj
 0001:0006b54e       __unwindfunclet$?AddTGATexture@aMaterial@@YGHPBDAAVBinClass@Data@@@Z$1 1006c54e f   aMaterial.obj
 0001:0006b559       __ehhandler$?AddTGATexture@aMaterial@@YGHPBDAAVBinClass@Data@@@Z 1006c559 f   aMaterial.obj
 0001:0006b570       __unwindfunclet$?AddBMPTexture@aMaterial@@YGHPBDAAVBinClass@Data@@@Z$0 1006c570 f   aMaterial.obj
 0001:0006b57e       __unwindfunclet$?AddBMPTexture@aMaterial@@YGHPBDAAVBinClass@Data@@@Z$1 1006c57e f   aMaterial.obj
 0001:0006b58c       __unwindfunclet$?AddBMPTexture@aMaterial@@YGHPBDAAVBinClass@Data@@@Z$2 1006c58c f   aMaterial.obj
 0001:0006b59a       __unwindfunclet$?AddBMPTexture@aMaterial@@YGHPBDAAVBinClass@Data@@@Z$3 1006c59a f   aMaterial.obj
 0001:0006b5a8       __unwindfunclet$?AddBMPTexture@aMaterial@@YGHPBDAAVBinClass@Data@@@Z$4 1006c5a8 f   aMaterial.obj
 0001:0006b5b3       __ehhandler$?AddBMPTexture@aMaterial@@YGHPBDAAVBinClass@Data@@@Z 1006c5b3 f   aMaterial.obj
 0001:0006b5c0       __unwindfunclet$?LoadFontMaterial@aMaterial@@YGXPAVPackClass@Packet@@@Z$0 1006c5c0 f   aMaterial.obj
 0001:0006b5cb       __ehhandler$?LoadFontMaterial@aMaterial@@YGXPAVPackClass@Packet@@@Z 1006c5cb f   aMaterial.obj
 0001:0006b5e0       __unwindfunclet$?LoadTexture@aMaterial@@YGXPAVPackClass@Packet@@@Z$0 1006c5e0 f   aMaterial.obj
 0001:0006b5e8       __unwindfunclet$?LoadTexture@aMaterial@@YGXPAVPackClass@Packet@@@Z$1 1006c5e8 f   aMaterial.obj
 0001:0006b5f3       __unwindfunclet$?LoadTexture@aMaterial@@YGXPAVPackClass@Packet@@@Z$2 1006c5f3 f   aMaterial.obj
 0001:0006b5fe       __unwindfunclet$?LoadTexture@aMaterial@@YGXPAVPackClass@Packet@@@Z$3 1006c5fe f   aMaterial.obj
 0001:0006b609       __unwindfunclet$?LoadTexture@aMaterial@@YGXPAVPackClass@Packet@@@Z$4 1006c609 f   aMaterial.obj
 0001:0006b617       __unwindfunclet$?LoadTexture@aMaterial@@YGXPAVPackClass@Packet@@@Z$5 1006c617 f   aMaterial.obj
 0001:0006b625       __unwindfunclet$?LoadTexture@aMaterial@@YGXPAVPackClass@Packet@@@Z$6 1006c625 f   aMaterial.obj
 0001:0006b633       __unwindfunclet$?LoadTexture@aMaterial@@YGXPAVPackClass@Packet@@@Z$7 1006c633 f   aMaterial.obj
 0001:0006b63e       __unwindfunclet$?LoadTexture@aMaterial@@YGXPAVPackClass@Packet@@@Z$8 1006c63e f   aMaterial.obj
 0001:0006b649       __unwindfunclet$?LoadTexture@aMaterial@@YGXPAVPackClass@Packet@@@Z$9 1006c649 f   aMaterial.obj
 0001:0006b657       __unwindfunclet$?LoadTexture@aMaterial@@YGXPAVPackClass@Packet@@@Z$10 1006c657 f   aMaterial.obj
 0001:0006b665       __unwindfunclet$?LoadTexture@aMaterial@@YGXPAVPackClass@Packet@@@Z$11 1006c665 f   aMaterial.obj
 0001:0006b673       __ehhandler$?LoadTexture@aMaterial@@YGXPAVPackClass@Packet@@@Z 1006c673 f   aMaterial.obj
 0001:0006b680       __ehhandler$?_Insert_n@?$vector@IV?$allocator@I@std@@@std@@IAEXViterator@12@IABI@Z 1006c680 f   aMaterial.obj
 0001:0006b690       __unwindfunclet$?_Xlen@?$vector@IV?$allocator@I@std@@@std@@IBEXXZ$0 1006c690 f   aMaterial.obj
 0001:0006b69b       __ehhandler$?_Xlen@?$vector@IV?$allocator@I@std@@@std@@IBEXXZ 1006c69b f   aMaterial.obj
 0001:0006b6b0       __unwindfunclet$??0logic_error@std@@QAE@ABV?$basic_string@DU?$char_traits@D@std@@V?$allocator@D@2@@1@@Z$0 1006c6b0 f   aMaterial.obj
 0001:0006b6b8       __ehhandler$??0logic_error@std@@QAE@ABV?$basic_string@DU?$char_traits@D@std@@V?$allocator@D@2@@1@@Z 1006c6b8 f   aMaterial.obj
 0001:0006b6d0       __unwindfunclet$??1logic_error@std@@UAE@XZ$0 1006c6d0 f   aMaterial.obj
 0001:0006b6d8       __ehhandler$??1logic_error@std@@UAE@XZ 1006c6d8 f   aMaterial.obj
 0001:0006b6f0       __unwindfunclet$?_Insert@?$_Tree@V?$_Tmap_traits@HPAUTextureType@aMaterial@@U?$less@H@std@@V?$allocator@U?$pair@$$CBHPAUTextureType@aMaterial@@@std@@@4@$0A@@std@@@std@@IAE?AViterator@12@_NPAU_Node@?$_Tree_nod@V?$_Tmap_traits@HPAUTextureType@aMaterial@@U?$less@H@std@@V?$allocator@U?$pair@$$CBHPAUTextureType@aMaterial@@@std@@@4@$0A@@std@@@2@ABU?$pair@$$CBHPAUTextureType@aMaterial@@@2@@Z$0 1006c6f0 f   aMaterial.obj
 0001:0006b6fb       __ehhandler$?_Insert@?$_Tree@V?$_Tmap_traits@HPAUTextureType@aMaterial@@U?$less@H@std@@V?$allocator@U?$pair@$$CBHPAUTextureType@aMaterial@@@std@@@4@$0A@@std@@@std@@IAE?AViterator@12@_NPAU_Node@?$_Tree_nod@V?$_Tmap_traits@HPAUTextureType@aMaterial@@U?$less@H@std@@V?$allocator@U?$pair@$$CBHPAUTextureType@aMaterial@@@std@@@4@$0A@@std@@@2@ABU?$pair@$$CBHPAUTextureType@aMaterial@@@2@@Z 1006c6fb f   aMaterial.obj
 0001:0006b710       __unwindfunclet$?_Insert@?$_Tree@V?$_Tmap_traits@HPAUMaterialType@aMaterial@@U?$less@H@std@@V?$allocator@U?$pair@$$CBHPAUMaterialType@aMaterial@@@std@@@4@$0A@@std@@@std@@IAE?AViterator@12@_NPAU_Node@?$_Tree_nod@V?$_Tmap_traits@HPAUMaterialType@aMaterial@@U?$less@H@std@@V?$allocator@U?$pair@$$CBHPAUMaterialType@aMaterial@@@std@@@4@$0A@@std@@@2@ABU?$pair@$$CBHPAUMaterialType@aMaterial@@@2@@Z$0 1006c710 f   aMaterial.obj
 0001:0006b71b       __ehhandler$?_Insert@?$_Tree@V?$_Tmap_traits@HPAUMaterialType@aMaterial@@U?$less@H@std@@V?$allocator@U?$pair@$$CBHPAUMaterialType@aMaterial@@@std@@@4@$0A@@std@@@std@@IAE?AViterator@12@_NPAU_Node@?$_Tree_nod@V?$_Tmap_traits@HPAUMaterialType@aMaterial@@U?$less@H@std@@V?$allocator@U?$pair@$$CBHPAUMaterialType@aMaterial@@@std@@@4@$0A@@std@@@2@ABU?$pair@$$CBHPAUMaterialType@aMaterial@@@2@@Z 1006c71b f   aMaterial.obj
 0001:0006b730       __unwindfunclet$??0StringClass@CRC@@QAE@XZ$0 1006c730 f   aMaterial.obj
 0001:0006b73b       __ehhandler$??0StringClass@CRC@@QAE@XZ 1006c73b f   aMaterial.obj
 0001:0006b750       __unwindfunclet$??0logic_error@std@@QAE@ABV01@@Z$0 1006c750 f   aMaterial.obj
 0001:0006b758       __ehhandler$??0logic_error@std@@QAE@ABV01@@Z 1006c758 f   aMaterial.obj
 0001:0006b770       __unwindfunclet$??0StringClass@CRC@@QAE@PAD@Z$0 1006c770 f   aMaterial.obj
 0001:0006b77b       __ehhandler$??0StringClass@CRC@@QAE@PAD@Z 1006c77b f   aMaterial.obj
 0001:0006b790       __ehhandler$?_Copy@?$basic_string@DU?$char_traits@D@std@@V?$allocator@D@2@@std@@IAEXII@Z 1006c790 f   aMaterial.obj
 0001:0006b7a0       __unwindfunclet$??6StringClass@CRC@@QAEXV0Data@@@Z$0 1006c7a0 f   aMaterial.obj
 0001:0006b7a8       __ehhandler$??6StringClass@CRC@@QAEXV0Data@@@Z 1006c7a8 f   aMaterial.obj
 0001:0006b7c0       __unwindfunclet$??0PackClass@Packet@@QAE@XZ$0 1006c7c0 f   aMaterial.obj
 0001:0006b7ce       __unwindfunclet$??0PackClass@Packet@@QAE@XZ$1 1006c7ce f   aMaterial.obj
 0001:0006b7dc       __unwindfunclet$??0PackClass@Packet@@QAE@XZ$2 1006c7dc f   aMaterial.obj
 0001:0006b7ea       __ehhandler$??0PackClass@Packet@@QAE@XZ 1006c7ea f   aMaterial.obj
 0001:0006b800       __unwindfunclet$??0ModIdClass@CRC@@QAE@XZ$0 1006c800 f   aMaterial.obj
 0001:0006b808       __unwindfunclet$??0ModIdClass@CRC@@QAE@XZ$1 1006c808 f   aMaterial.obj
 0001:0006b816       __unwindfunclet$??0ModIdClass@CRC@@QAE@XZ$2 1006c816 f   aMaterial.obj
 0001:0006b824       __ehhandler$??0ModIdClass@CRC@@QAE@XZ 1006c824 f   aMaterial.obj
 0001:0006b830       __unwindfunclet$??1ModIdClass@CRC@@QAE@XZ$0 1006c830 f   aMaterial.obj
 0001:0006b838       __unwindfunclet$??1ModIdClass@CRC@@QAE@XZ$1 1006c838 f   aMaterial.obj
 0001:0006b846       __unwindfunclet$??1ModIdClass@CRC@@QAE@XZ$2 1006c846 f   aMaterial.obj
 0001:0006b854       __ehhandler$??1ModIdClass@CRC@@QAE@XZ 1006c854 f   aMaterial.obj
 0001:0006b860       __unwindfunclet$??1PackClass@Packet@@QAE@XZ$0 1006c860 f   aMaterial.obj
 0001:0006b86e       __unwindfunclet$??1PackClass@Packet@@QAE@XZ$1 1006c86e f   aMaterial.obj
 0001:0006b87c       __ehhandler$??1PackClass@Packet@@QAE@XZ 1006c87c f   aMaterial.obj
 0001:0006b890       __unwindfunclet$??0FileClass@File@@QAE@XZ$0 1006c890 f   aMaterial.obj
 0001:0006b89b       __unwindfunclet$??0FileClass@File@@QAE@XZ$1 1006c89b f   aMaterial.obj
 0001:0006b8a9       __ehhandler$??0FileClass@File@@QAE@XZ 1006c8a9 f   aMaterial.obj
 0001:0006b8c0       __unwindfunclet$??1FileClass@File@@QAE@XZ$0 1006c8c0 f   aMaterial.obj
 0001:0006b8cb       __unwindfunclet$??1FileClass@File@@QAE@XZ$1 1006c8cb f   aMaterial.obj
 0001:0006b8d9       __unwindfunclet$??1FileClass@File@@QAE@XZ$2 1006c8d9 f   aMaterial.obj
 0001:0006b8e7       __ehhandler$??1FileClass@File@@QAE@XZ 1006c8e7 f   aMaterial.obj
 0001:0006b900       __unwindfunclet$?_Buynode@?$_Tree@V?$_Tmap_traits@HPAUTextureType@aMaterial@@U?$less@H@std@@V?$allocator@U?$pair@$$CBHPAUTextureType@aMaterial@@@std@@@4@$0A@@std@@@std@@IAEPAU_Node@?$_Tree_nod@V?$_Tmap_traits@HPAUTextureType@aMaterial@@U?$less@H@std@@V?$allocator@U?$pair@$$CBHPAUTextureType@aMaterial@@@std@@@4@$0A@@std@@@2@PAU342@00ABU?$pair@$$CBHPAUTextureType@aMaterial@@@2@D@Z$2 1006c900 f   aMaterial.obj
 0001:0006b914       __ehhandler$?_Buynode@?$_Tree@V?$_Tmap_traits@HPAUTextureType@aMaterial@@U?$less@H@std@@V?$allocator@U?$pair@$$CBHPAUTextureType@aMaterial@@@std@@@4@$0A@@std@@@std@@IAEPAU_Node@?$_Tree_nod@V?$_Tmap_traits@HPAUTextureType@aMaterial@@U?$less@H@std@@V?$allocator@U?$pair@$$CBHPAUTextureType@aMaterial@@@std@@@4@$0A@@std@@@2@PAU342@00ABU?$pair@$$CBHPAUTextureType@aMaterial@@@2@D@Z 1006c914 f   aMaterial.obj
 0001:0006b920       __unwindfunclet$?_Buynode@?$_Tree@V?$_Tmap_traits@HPAUMaterialType@aMaterial@@U?$less@H@std@@V?$allocator@U?$pair@$$CBHPAUMaterialType@aMaterial@@@std@@@4@$0A@@std@@@std@@IAEPAU_Node@?$_Tree_nod@V?$_Tmap_traits@HPAUMaterialType@aMaterial@@U?$less@H@std@@V?$allocator@U?$pair@$$CBHPAUMaterialType@aMaterial@@@std@@@4@$0A@@std@@@2@PAU342@00ABU?$pair@$$CBHPAUMaterialType@aMaterial@@@2@D@Z$2 1006c920 f   aMaterial.obj
 0001:0006b934       __ehhandler$?_Buynode@?$_Tree@V?$_Tmap_traits@HPAUMaterialType@aMaterial@@U?$less@H@std@@V?$allocator@U?$pair@$$CBHPAUMaterialType@aMaterial@@@std@@@4@$0A@@std@@@std@@IAEPAU_Node@?$_Tree_nod@V?$_Tmap_traits@HPAUMaterialType@aMaterial@@U?$less@H@std@@V?$allocator@U?$pair@$$CBHPAUMaterialType@aMaterial@@@std@@@4@$0A@@std@@@2@PAU342@00ABU?$pair@$$CBHPAUMaterialType@aMaterial@@@2@D@Z 1006c934 f   aMaterial.obj
 0001:0006b940       __unwindfunclet$?SubmitFunction@BaseClass@Comm@@QAEXP6GXPAVPackClass@Packet@@@ZPBD@Z$0 1006c940 f   aMaterial.obj
 0001:0006b94e       __ehhandler$?SubmitFunction@BaseClass@Comm@@QAEXP6GXPAVPackClass@Packet@@@ZPBD@Z 1006c94e f   aMaterial.obj
 0001:0006b960       __unwindfunclet$?_Insert@?$_Tree@V?$_Tmap_traits@IPAUFunction@@UFcmp@@V?$allocator@U?$pair@$$CBIPAUFunction@@@std@@@std@@$0A@@std@@@std@@IAE?AViterator@12@_NPAU_Node@?$_Tree_nod@V?$_Tmap_traits@IPAUFunction@@UFcmp@@V?$allocator@U?$pair@$$CBIPAUFunction@@@std@@@std@@$0A@@std@@@2@ABU?$pair@$$CBIPAUFunction@@@2@@Z$0 1006c960 f   aMaterial.obj
 0001:0006b96b       __ehhandler$?_Insert@?$_Tree@V?$_Tmap_traits@IPAUFunction@@UFcmp@@V?$allocator@U?$pair@$$CBIPAUFunction@@@std@@@std@@$0A@@std@@@std@@IAE?AViterator@12@_NPAU_Node@?$_Tree_nod@V?$_Tmap_traits@IPAUFunction@@UFcmp@@V?$allocator@U?$pair@$$CBIPAUFunction@@@std@@@std@@$0A@@std@@@2@ABU?$pair@$$CBIPAUFunction@@@2@@Z 1006c96b f   aMaterial.obj
 0001:0006b980       __unwindfunclet$?_Buynode@?$_Tree@V?$_Tmap_traits@IPAUFunction@@UFcmp@@V?$allocator@U?$pair@$$CBIPAUFunction@@@std@@@std@@$0A@@std@@@std@@IAEPAU_Node@?$_Tree_nod@V?$_Tmap_traits@IPAUFunction@@UFcmp@@V?$allocator@U?$pair@$$CBIPAUFunction@@@std@@@std@@$0A@@std@@@2@PAU342@00ABU?$pair@$$CBIPAUFunction@@@2@D@Z$2 1006c980 f   aMaterial.obj
 0001:0006b994       __ehhandler$?_Buynode@?$_Tree@V?$_Tmap_traits@IPAUFunction@@UFcmp@@V?$allocator@U?$pair@$$CBIPAUFunction@@@std@@@std@@$0A@@std@@@std@@IAEPAU_Node@?$_Tree_nod@V?$_Tmap_traits@IPAUFunction@@UFcmp@@V?$allocator@U?$pair@$$CBIPAUFunction@@@std@@@std@@$0A@@std@@@2@PAU342@00ABU?$pair@$$CBIPAUFunction@@@2@D@Z 1006c994 f   aMaterial.obj
 0001:0006b9a0       __unwindfunclet$??0ApolloClass@@QAE@XZ$0 1006c9a0 f   aMaterial.obj
 0001:0006b9a8       __unwindfunclet$??0ApolloClass@@QAE@XZ$1 1006c9a8 f   aMaterial.obj
 0001:0006b9b6       __unwindfunclet$??0ApolloClass@@QAE@XZ$2 1006c9b6 f   aMaterial.obj
 0001:0006b9c4       __ehhandler$??0ApolloClass@@QAE@XZ 1006c9c4 f   aMaterial.obj
 0001:0006b9d0       __unwindfunclet$??0BaseClass@Comm@@QAE@XZ$0 1006c9d0 f   aMaterial.obj
 0001:0006b9d8       __unwindfunclet$??0BaseClass@Comm@@QAE@XZ$1 1006c9d8 f   aMaterial.obj
 0001:0006b9e3       __ehhandler$??0BaseClass@Comm@@QAE@XZ 1006c9e3 f   aMaterial.obj
 0001:0006b9f0       __ehhandler$?_Buynode@?$_Tree@V?$_Tmap_traits@IPAUFunction@@UFcmp@@V?$allocator@U?$pair@$$CBIPAUFunction@@@std@@@std@@$0A@@std@@@std@@IAEPAU_Node@?$_Tree_nod@V?$_Tmap_traits@IPAUFunction@@UFcmp@@V?$allocator@U?$pair@$$CBIPAUFunction@@@std@@@std@@$0A@@std@@@2@XZ 1006c9f0 f   aMaterial.obj
 0001:0006ba00       __ehhandler$?_Buynode@?$_Tree@V?$_Tmap_traits@IPAXUVcmp@@V?$allocator@U?$pair@$$CBIPAX@std@@@std@@$0A@@std@@@std@@IAEPAU_Node@?$_Tree_nod@V?$_Tmap_traits@IPAXUVcmp@@V?$allocator@U?$pair@$$CBIPAX@std@@@std@@$0A@@std@@@2@XZ 1006ca00 f   aMaterial.obj
 0001:0006ba10       __unwindfunclet$??1BaseClass@Comm@@QAE@XZ$0 1006ca10 f   aMaterial.obj
 0001:0006ba18       __unwindfunclet$??1BaseClass@Comm@@QAE@XZ$1 1006ca18 f   aMaterial.obj
 0001:0006ba23       __unwindfunclet$??1BaseClass@Comm@@QAE@XZ$2 1006ca23 f   aMaterial.obj
 0001:0006ba2e       __ehhandler$??1BaseClass@Comm@@QAE@XZ 1006ca2e f   aMaterial.obj
 0001:0006ba40       __unwindfunclet$?erase@?$_Tree@V?$_Tmap_traits@IPAUFunction@@UFcmp@@V?$allocator@U?$pair@$$CBIPAUFunction@@@std@@@std@@$0A@@std@@@std@@QAE?AViterator@12@V312@@Z$0 1006ca40 f   aMaterial.obj
 0001:0006ba4b       __ehhandler$?erase@?$_Tree@V?$_Tmap_traits@IPAUFunction@@UFcmp@@V?$allocator@U?$pair@$$CBIPAUFunction@@@std@@@std@@$0A@@std@@@std@@QAE?AViterator@12@V312@@Z 1006ca4b f   aMaterial.obj
 0001:0006ba60       __unwindfunclet$?erase@?$_Tree@V?$_Tmap_traits@IPAXUVcmp@@V?$allocator@U?$pair@$$CBIPAX@std@@@std@@$0A@@std@@@std@@QAE?AViterator@12@V312@@Z$0 1006ca60 f   aMaterial.obj
 0001:0006ba6b       __ehhandler$?erase@?$_Tree@V?$_Tmap_traits@IPAXUVcmp@@V?$allocator@U?$pair@$$CBIPAX@std@@@std@@$0A@@std@@@std@@QAE?AViterator@12@V312@@Z 1006ca6b f   aMaterial.obj
 0001:0006ba80       __ehhandler$?_Buynode@?$_Tree@V?$_Tmap_traits@HPAUTextureType@aMaterial@@U?$less@H@std@@V?$allocator@U?$pair@$$CBHPAUTextureType@aMaterial@@@std@@@4@$0A@@std@@@std@@IAEPAU_Node@?$_Tree_nod@V?$_Tmap_traits@HPAUTextureType@aMaterial@@U?$less@H@std@@V?$allocator@U?$pair@$$CBHPAUTextureType@aMaterial@@@std@@@4@$0A@@std@@@2@XZ 1006ca80 f   aMaterial.obj
 0001:0006ba90       __ehhandler$?_Buynode@?$_Tree@V?$_Tmap_traits@HPAUMaterialType@aMaterial@@U?$less@H@std@@V?$allocator@U?$pair@$$CBHPAUMaterialType@aMaterial@@@std@@@4@$0A@@std@@@std@@IAEPAU_Node@?$_Tree_nod@V?$_Tmap_traits@HPAUMaterialType@aMaterial@@U?$less@H@std@@V?$allocator@U?$pair@$$CBHPAUMaterialType@aMaterial@@@std@@@4@$0A@@std@@@2@XZ 1006ca90 f   aMaterial.obj
 0001:0006baa0       __unwindfunclet$??1ApolloClass@@QAE@XZ$0 1006caa0 f   aMaterial.obj
 0001:0006baa8       __unwindfunclet$??1ApolloClass@@QAE@XZ$1 1006caa8 f   aMaterial.obj
 0001:0006bab6       __unwindfunclet$??1ApolloClass@@QAE@XZ$2 1006cab6 f   aMaterial.obj
 0001:0006bac4       __ehhandler$??1ApolloClass@@QAE@XZ 1006cac4 f   aMaterial.obj
 0001:0006bad0       __unwindfunclet$?erase@?$_Tree@V?$_Tmap_traits@HPAUTextureType@aMaterial@@U?$less@H@std@@V?$allocator@U?$pair@$$CBHPAUTextureType@aMaterial@@@std@@@4@$0A@@std@@@std@@QAE?AViterator@12@V312@@Z$0 1006cad0 f   aMaterial.obj
 0001:0006badb       __ehhandler$?erase@?$_Tree@V?$_Tmap_traits@HPAUTextureType@aMaterial@@U?$less@H@std@@V?$allocator@U?$pair@$$CBHPAUTextureType@aMaterial@@@std@@@4@$0A@@std@@@std@@QAE?AViterator@12@V312@@Z 1006cadb f   aMaterial.obj
 0001:0006baf0       __unwindfunclet$?erase@?$_Tree@V?$_Tmap_traits@HPAUMaterialType@aMaterial@@U?$less@H@std@@V?$allocator@U?$pair@$$CBHPAUMaterialType@aMaterial@@@std@@@4@$0A@@std@@@std@@QAE?AViterator@12@V312@@Z$0 1006caf0 f   aMaterial.obj
 0001:0006bafb       __ehhandler$?erase@?$_Tree@V?$_Tmap_traits@HPAUMaterialType@aMaterial@@U?$less@H@std@@V?$allocator@U?$pair@$$CBHPAUMaterialType@aMaterial@@@std@@@4@$0A@@std@@@std@@QAE?AViterator@12@V312@@Z 1006cafb f   aMaterial.obj
 0001:0006bb10       __unwindfunclet$??4StringClass@CRC@@QAEXV01@@Z$0 1006cb10 f   Main.obj
 0001:0006bb18       __ehhandler$??4StringClass@CRC@@QAEXV01@@Z 1006cb18 f   Main.obj
 0001:0006bef0       __unwindfunclet$?CustomPrintfFunc@Error@@YAXPADZZ$0 1006cef0 f   System:Error_types.obj
 0001:0006befe       __ehhandler$?CustomPrintfFunc@Error@@YAXPADZZ 1006cefe f   System:Error_types.obj
 0001:0006bf10       __unwindfunclet$??DMatrix44@@QBE?AUVector4@@ABU1@@Z$0 1006cf10 f   System:Matrix.obj
 0001:0006bf18       __unwindfunclet$??DMatrix44@@QBE?AUVector4@@ABU1@@Z$1 1006cf18 f   System:Matrix.obj
 0001:0006bf20       __unwindfunclet$??DMatrix44@@QBE?AUVector4@@ABU1@@Z$2 1006cf20 f   System:Matrix.obj
 0001:0006bf2b       __unwindfunclet$??DMatrix44@@QBE?AUVector4@@ABU1@@Z$3 1006cf2b f   System:Matrix.obj
 0001:0006bf4d       __ehhandler$??DMatrix44@@QBE?AUVector4@@ABU1@@Z 1006cf4d f   System:Matrix.obj
 0001:0006bf60       __unwindfunclet$??DMatrix44@@QBE?AU0@ABU0@@Z$0 1006cf60 f   System:Matrix.obj
 0001:0006bf68       __unwindfunclet$??DMatrix44@@QBE?AU0@ABU0@@Z$1 1006cf68 f   System:Matrix.obj
 0001:0006bf73       __unwindfunclet$??DMatrix44@@QBE?AU0@ABU0@@Z$2 1006cf73 f   System:Matrix.obj
 0001:0006bf7e       __unwindfunclet$??DMatrix44@@QBE?AU0@ABU0@@Z$3 1006cf7e f   System:Matrix.obj
 0001:0006bfa0       __ehhandler$??DMatrix44@@QBE?AU0@ABU0@@Z 1006cfa0 f   System:Matrix.obj
 0001:0006bfb0       __unwindfunclet$??YVector2@@QAEXABU0@@Z$0 1006cfb0 f   System:Matrix.obj
 0001:0006bfbb       __ehhandler$??YVector2@@QAEXABU0@@Z 1006cfbb f   System:Matrix.obj
 0001:0006bfd0       __unwindfunclet$??ZVector2@@QAEXABU0@@Z$0 1006cfd0 f   System:Matrix.obj
 0001:0006bfdb       __ehhandler$??ZVector2@@QAEXABU0@@Z 1006cfdb f   System:Matrix.obj
 0001:0006bff0       __unwindfunclet$??XVector2@@QAEXM@Z$0 1006cff0 f   System:Matrix.obj
 0001:0006bffb       __ehhandler$??XVector2@@QAEXM@Z 1006cffb f   System:Matrix.obj
 0001:0006c010       __unwindfunclet$??XVector2@@QAEXABU0@@Z$0 1006d010 f   System:Matrix.obj
 0001:0006c01b       __ehhandler$??XVector2@@QAEXABU0@@Z 1006d01b f   System:Matrix.obj
 0001:0006c030       __unwindfunclet$??_0Vector2@@QAEXM@Z$0 1006d030 f   System:Matrix.obj
 0001:0006c03b       __ehhandler$??_0Vector2@@QAEXM@Z 1006d03b f   System:Matrix.obj
 0001:0006c050       __unwindfunclet$??YVector3@@QAEXABU0@@Z$0 1006d050 f   System:Matrix.obj
 0001:0006c05b       __ehhandler$??YVector3@@QAEXABU0@@Z 1006d05b f   System:Matrix.obj
 0001:0006c070       __unwindfunclet$??ZVector3@@QAEXABU0@@Z$0 1006d070 f   System:Matrix.obj
 0001:0006c07b       __ehhandler$??ZVector3@@QAEXABU0@@Z 1006d07b f   System:Matrix.obj
 0001:0006c090       __unwindfunclet$??XVector3@@QAEXM@Z$0 1006d090 f   System:Matrix.obj
 0001:0006c09b       __ehhandler$??XVector3@@QAEXM@Z 1006d09b f   System:Matrix.obj
 0001:0006c0b0       __unwindfunclet$??XVector3@@QAEXABU0@@Z$0 1006d0b0 f   System:Matrix.obj
 0001:0006c0bb       __ehhandler$??XVector3@@QAEXABU0@@Z 1006d0bb f   System:Matrix.obj
 0001:0006c0d0       __unwindfunclet$??_0Vector3@@QAEXM@Z$0 1006d0d0 f   System:Matrix.obj
 0001:0006c0db       __ehhandler$??_0Vector3@@QAEXM@Z 1006d0db f   System:Matrix.obj
 0001:0006c0f0       __unwindfunclet$?Distance@Vector3@@QBEMABU1@@Z$0 1006d0f0 f   System:Matrix.obj
 0001:0006c0f8       __ehhandler$?Distance@Vector3@@QBEMABU1@@Z 1006d0f8 f   System:Matrix.obj
 0001:0006c110       __unwindfunclet$??1Matrix44@@QAE@XZ$0 1006d110 f   System:Matrix.obj
 0001:0006c118       __unwindfunclet$??1Matrix44@@QAE@XZ$1 1006d118 f   System:Matrix.obj
 0001:0006c123       __unwindfunclet$??1Matrix44@@QAE@XZ$2 1006d123 f   System:Matrix.obj
 0001:0006c12e       __ehhandler$??1Matrix44@@QAE@XZ 1006d12e f   System:Matrix.obj
 0001:0006c140       __unwindfunclet$?Distance2@Vector3@@QBEMABU1@@Z$0 1006d140 f   System:Matrix.obj
 0001:0006c148       __ehhandler$?Distance2@Vector3@@QBEMABU1@@Z 1006d148 f   System:Matrix.obj
 0001:0006c160       __unwindfunclet$??YVector4@@QAEXABU0@@Z$0 1006d160 f   System:Matrix.obj
 0001:0006c16b       __ehhandler$??YVector4@@QAEXABU0@@Z 1006d16b f   System:Matrix.obj
 0001:0006c180       __unwindfunclet$??ZVector4@@QAEXABU0@@Z$0 1006d180 f   System:Matrix.obj
 0001:0006c18b       __ehhandler$??ZVector4@@QAEXABU0@@Z 1006d18b f   System:Matrix.obj
 0001:0006c1a0       __unwindfunclet$??XVector4@@QAEXM@Z$0 1006d1a0 f   System:Matrix.obj
 0001:0006c1ab       __ehhandler$??XVector4@@QAEXM@Z 1006d1ab f   System:Matrix.obj
 0001:0006c1c0       __unwindfunclet$??XVector4@@QAEXABU0@@Z$0 1006d1c0 f   System:Matrix.obj
 0001:0006c1cb       __ehhandler$??XVector4@@QAEXABU0@@Z 1006d1cb f   System:Matrix.obj
 0001:0006c1e0       __unwindfunclet$??_0Vector4@@QAEXM@Z$0 1006d1e0 f   System:Matrix.obj
 0001:0006c1eb       __ehhandler$??_0Vector4@@QAEXM@Z 1006d1eb f   System:Matrix.obj
 0001:0006c200       __unwindfunclet$?Lerp@Vector4@@QAEXABU1@0M@Z$0 1006d200 f   System:Matrix.obj
 0001:0006c208       __unwindfunclet$?Lerp@Vector4@@QAEXABU1@0M@Z$1 1006d208 f   System:Matrix.obj
 0001:0006c213       __unwindfunclet$?Lerp@Vector4@@QAEXABU1@0M@Z$2 1006d213 f   System:Matrix.obj
 0001:0006c21e       __ehhandler$?Lerp@Vector4@@QAEXABU1@0M@Z 1006d21e f   System:Matrix.obj
 0001:0006c230       __unwindfunclet$??0Matrix44@@QAE@XZ$0 1006d230 f   System:Matrix.obj
 0001:0006c238       __unwindfunclet$??0Matrix44@@QAE@XZ$1 1006d238 f   System:Matrix.obj
 0001:0006c243       __unwindfunclet$??0Matrix44@@QAE@XZ$2 1006d243 f   System:Matrix.obj
 0001:0006c24e       __unwindfunclet$??0Matrix44@@QAE@XZ$3 1006d24e f   System:Matrix.obj
 0001:0006c259       __ehhandler$??0Matrix44@@QAE@XZ 1006d259 f   System:Matrix.obj
 0001:0006c270       __unwindfunclet$??0Matrix44@@QAE@UVector4@@000@Z$0 1006d270 f   System:Matrix.obj
 0001:0006c278       __unwindfunclet$??0Matrix44@@QAE@UVector4@@000@Z$1 1006d278 f   System:Matrix.obj
 0001:0006c280       __unwindfunclet$??0Matrix44@@QAE@UVector4@@000@Z$2 1006d280 f   System:Matrix.obj
 0001:0006c288       __unwindfunclet$??0Matrix44@@QAE@UVector4@@000@Z$3 1006d288 f   System:Matrix.obj
 0001:0006c290       __unwindfunclet$??0Matrix44@@QAE@UVector4@@000@Z$4 1006d290 f   System:Matrix.obj
 0001:0006c298       __unwindfunclet$??0Matrix44@@QAE@UVector4@@000@Z$5 1006d298 f   System:Matrix.obj
 0001:0006c2a3       __unwindfunclet$??0Matrix44@@QAE@UVector4@@000@Z$6 1006d2a3 f   System:Matrix.obj
 0001:0006c2ae       __unwindfunclet$??0Matrix44@@QAE@UVector4@@000@Z$7 1006d2ae f   System:Matrix.obj
 0001:0006c2b9       __ehhandler$??0Matrix44@@QAE@UVector4@@000@Z 1006d2b9 f   System:Matrix.obj
 0001:0006c2d0       __unwindfunclet$??0Matrix44@@QAE@ABU0@@Z$0 1006d2d0 f   System:Matrix.obj
 0001:0006c2d8       __unwindfunclet$??0Matrix44@@QAE@ABU0@@Z$1 1006d2d8 f   System:Matrix.obj
 0001:0006c2e3       __unwindfunclet$??0Matrix44@@QAE@ABU0@@Z$2 1006d2e3 f   System:Matrix.obj
 0001:0006c2ee       __unwindfunclet$??0Matrix44@@QAE@ABU0@@Z$3 1006d2ee f   System:Matrix.obj
 0001:0006c2f9       __ehhandler$??0Matrix44@@QAE@ABU0@@Z 1006d2f9 f   System:Matrix.obj
 0001:0006c310       __unwindfunclet$??GMatrix44@@QBE?AU0@XZ$0 1006d310 f   System:Matrix.obj
 0001:0006c31b       __unwindfunclet$??GMatrix44@@QBE?AU0@XZ$1 1006d31b f   System:Matrix.obj
 0001:0006c326       __unwindfunclet$??GMatrix44@@QBE?AU0@XZ$2 1006d326 f   System:Matrix.obj
 0001:0006c331       __unwindfunclet$??GMatrix44@@QBE?AU0@XZ$4 1006d331 f   System:Matrix.obj
 0001:0006c33c       __unwindfunclet$??GMatrix44@@QBE?AU0@XZ$5 1006d33c f   System:Matrix.obj
 0001:0006c35b       __ehhandler$??GMatrix44@@QBE?AU0@XZ 1006d35b f   System:Matrix.obj
 0001:0006c370       __unwindfunclet$??HMatrix44@@QBE?AU0@ABU0@@Z$0 1006d370 f   System:Matrix.obj
 0001:0006c37b       __unwindfunclet$??HMatrix44@@QBE?AU0@ABU0@@Z$1 1006d37b f   System:Matrix.obj
 0001:0006c386       __unwindfunclet$??HMatrix44@@QBE?AU0@ABU0@@Z$2 1006d386 f   System:Matrix.obj
 0001:0006c391       __unwindfunclet$??HMatrix44@@QBE?AU0@ABU0@@Z$4 1006d391 f   System:Matrix.obj
 0001:0006c39c       __unwindfunclet$??HMatrix44@@QBE?AU0@ABU0@@Z$5 1006d39c f   System:Matrix.obj
 0001:0006c3bb       __ehhandler$??HMatrix44@@QBE?AU0@ABU0@@Z 1006d3bb f   System:Matrix.obj
 0001:0006c3d0       __unwindfunclet$??GMatrix44@@QBE?AU0@ABU0@@Z$0 1006d3d0 f   System:Matrix.obj
 0001:0006c3db       __unwindfunclet$??GMatrix44@@QBE?AU0@ABU0@@Z$1 1006d3db f   System:Matrix.obj
 0001:0006c3e6       __unwindfunclet$??GMatrix44@@QBE?AU0@ABU0@@Z$2 1006d3e6 f   System:Matrix.obj
 0001:0006c3f1       __unwindfunclet$??GMatrix44@@QBE?AU0@ABU0@@Z$4 1006d3f1 f   System:Matrix.obj
 0001:0006c3fc       __unwindfunclet$??GMatrix44@@QBE?AU0@ABU0@@Z$5 1006d3fc f   System:Matrix.obj
 0001:0006c41b       __ehhandler$??GMatrix44@@QBE?AU0@ABU0@@Z 1006d41b f   System:Matrix.obj
 0001:0006c430       __unwindfunclet$??KMatrix44@@QBE?AU0@M@Z$0 1006d430 f   System:Matrix.obj
 0001:0006c43b       __unwindfunclet$??KMatrix44@@QBE?AU0@M@Z$1 1006d43b f   System:Matrix.obj
 0001:0006c446       __unwindfunclet$??KMatrix44@@QBE?AU0@M@Z$2 1006d446 f   System:Matrix.obj
 0001:0006c451       __unwindfunclet$??KMatrix44@@QBE?AU0@M@Z$4 1006d451 f   System:Matrix.obj
 0001:0006c45c       __unwindfunclet$??KMatrix44@@QBE?AU0@M@Z$5 1006d45c f   System:Matrix.obj
 0001:0006c47b       __ehhandler$??KMatrix44@@QBE?AU0@M@Z 1006d47b f   System:Matrix.obj
 0001:0006c490       __unwindfunclet$??DMatrix44@@QBE?AU0@M@Z$0 1006d490 f   System:Matrix.obj
 0001:0006c49b       __unwindfunclet$??DMatrix44@@QBE?AU0@M@Z$1 1006d49b f   System:Matrix.obj
 0001:0006c4a6       __unwindfunclet$??DMatrix44@@QBE?AU0@M@Z$2 1006d4a6 f   System:Matrix.obj
 0001:0006c4b1       __unwindfunclet$??DMatrix44@@QBE?AU0@M@Z$4 1006d4b1 f   System:Matrix.obj
 0001:0006c4bc       __unwindfunclet$??DMatrix44@@QBE?AU0@M@Z$5 1006d4bc f   System:Matrix.obj
 0001:0006c4db       __ehhandler$??DMatrix44@@QBE?AU0@M@Z 1006d4db f   System:Matrix.obj
 0001:0006c4f0       __unwindfunclet$??YMatrix44@@QAEXABU0@@Z$0 1006d4f0 f   System:Matrix.obj
 0001:0006c4fb       __ehhandler$??YMatrix44@@QAEXABU0@@Z 1006d4fb f   System:Matrix.obj
 0001:0006c510       __unwindfunclet$??ZMatrix44@@QAEXABU0@@Z$0 1006d510 f   System:Matrix.obj
 0001:0006c51b       __ehhandler$??ZMatrix44@@QAEXABU0@@Z 1006d51b f   System:Matrix.obj
 0001:0006c530       __unwindfunclet$??XMatrix44@@QAEXM@Z$0 1006d530 f   System:Matrix.obj
 0001:0006c53b       __ehhandler$??XMatrix44@@QAEXM@Z 1006d53b f   System:Matrix.obj
 0001:0006c550       __unwindfunclet$??XMatrix44@@QAEXABU0@@Z$0 1006d550 f   System:Matrix.obj
 0001:0006c55b       __ehhandler$??XMatrix44@@QAEXABU0@@Z 1006d55b f   System:Matrix.obj
 0001:0006c570       __unwindfunclet$??_0Matrix44@@QAEXM@Z$0 1006d570 f   System:Matrix.obj
 0001:0006c57b       __ehhandler$??_0Matrix44@@QAEXM@Z 1006d57b f   System:Matrix.obj
 0001:0006c590       __unwindfunclet$?Set@Matrix44@@QAEXUVector4@@000@Z$0 1006d590 f   System:Matrix.obj
 0001:0006c598       __unwindfunclet$?Set@Matrix44@@QAEXUVector4@@000@Z$1 1006d598 f   System:Matrix.obj
 0001:0006c5a0       __unwindfunclet$?Set@Matrix44@@QAEXUVector4@@000@Z$2 1006d5a0 f   System:Matrix.obj
 0001:0006c5a8       __unwindfunclet$?Set@Matrix44@@QAEXUVector4@@000@Z$3 1006d5a8 f   System:Matrix.obj
 0001:0006c5b0       __ehhandler$?Set@Matrix44@@QAEXUVector4@@000@Z 1006d5b0 f   System:Matrix.obj
 0001:0006c5c0       __unwindfunclet$?Lerp@Matrix44@@QAEXABU1@0M@Z$0 1006d5c0 f   System:Matrix.obj
 0001:0006c5c8       __unwindfunclet$?Lerp@Matrix44@@QAEXABU1@0M@Z$1 1006d5c8 f   System:Matrix.obj
 0001:0006c5d3       __unwindfunclet$?Lerp@Matrix44@@QAEXABU1@0M@Z$2 1006d5d3 f   System:Matrix.obj
 0001:0006c5de       __unwindfunclet$?Lerp@Matrix44@@QAEXABU1@0M@Z$3 1006d5de f   System:Matrix.obj
 0001:0006c5e9       __unwindfunclet$?Lerp@Matrix44@@QAEXABU1@0M@Z$4 1006d5e9 f   System:Matrix.obj
 0001:0006c5f4       __ehhandler$?Lerp@Matrix44@@QAEXABU1@0M@Z 1006d5f4 f   System:Matrix.obj
 0001:0006c600       __unwindfunclet$?Transform@Matrix44@@QAEXUVector4@@AAU2@@Z$0 1006d600 f   System:Matrix.obj
 0001:0006c608       __unwindfunclet$?Transform@Matrix44@@QAEXUVector4@@AAU2@@Z$1 1006d608 f   System:Matrix.obj
 0001:0006c613       __ehhandler$?Transform@Matrix44@@QAEXUVector4@@AAU2@@Z 1006d613 f   System:Matrix.obj
 0001:0006c620       __unwindfunclet$?RotationHPR@Matrix44@@QAEXMMM@Z$0 1006d620 f   System:Matrix.obj
 0001:0006c628       __unwindfunclet$?RotationHPR@Matrix44@@QAEXMMM@Z$1 1006d628 f   System:Matrix.obj
 0001:0006c630       __unwindfunclet$?RotationHPR@Matrix44@@QAEXMMM@Z$2 1006d630 f   System:Matrix.obj
 0001:0006c638       __unwindfunclet$?RotationHPR@Matrix44@@QAEXMMM@Z$3 1006d638 f   System:Matrix.obj
 0001:0006c640       __unwindfunclet$?RotationHPR@Matrix44@@QAEXMMM@Z$4 1006d640 f   System:Matrix.obj
 0001:0006c64b       __unwindfunclet$?RotationHPR@Matrix44@@QAEXMMM@Z$5 1006d64b f   System:Matrix.obj
 0001:0006c656       __unwindfunclet$?RotationHPR@Matrix44@@QAEXMMM@Z$6 1006d656 f   System:Matrix.obj
 0001:0006c661       __unwindfunclet$?RotationHPR@Matrix44@@QAEXMMM@Z$8 1006d661 f   System:Matrix.obj
 0001:0006c66c       __unwindfunclet$?RotationHPR@Matrix44@@QAEXMMM@Z$9 1006d66c f   System:Matrix.obj
 0001:0006c677       __unwindfunclet$?RotationHPR@Matrix44@@QAEXMMM@Z$10 1006d677 f   System:Matrix.obj
 0001:0006c682       __unwindfunclet$?RotationHPR@Matrix44@@QAEXMMM@Z$11 1006d682 f   System:Matrix.obj
 0001:0006c68d       __unwindfunclet$?RotationHPR@Matrix44@@QAEXMMM@Z$12 1006d68d f   System:Matrix.obj
 0001:0006c698       __unwindfunclet$?RotationHPR@Matrix44@@QAEXMMM@Z$13 1006d698 f   System:Matrix.obj
 0001:0006c6a3       __unwindfunclet$?RotationHPR@Matrix44@@QAEXMMM@Z$14 1006d6a3 f   System:Matrix.obj
 0001:0006c6ae       __unwindfunclet$?RotationHPR@Matrix44@@QAEXMMM@Z$15 1006d6ae f   System:Matrix.obj
 0001:0006c6b9       __unwindfunclet$?RotationHPR@Matrix44@@QAEXMMM@Z$17 1006d6b9 f   System:Matrix.obj
 0001:0006c6c4       __unwindfunclet$?RotationHPR@Matrix44@@QAEXMMM@Z$18 1006d6c4 f   System:Matrix.obj
 0001:0006c6cf       __unwindfunclet$?RotationHPR@Matrix44@@QAEXMMM@Z$19 1006d6cf f   System:Matrix.obj
 0001:0006c6da       __unwindfunclet$?RotationHPR@Matrix44@@QAEXMMM@Z$20 1006d6da f   System:Matrix.obj
 0001:0006c6e5       __unwindfunclet$?RotationHPR@Matrix44@@QAEXMMM@Z$21 1006d6e5 f   System:Matrix.obj
 0001:0006c6f0       __unwindfunclet$?RotationHPR@Matrix44@@QAEXMMM@Z$22 1006d6f0 f   System:Matrix.obj
 0001:0006c6fb       __unwindfunclet$?RotationHPR@Matrix44@@QAEXMMM@Z$23 1006d6fb f   System:Matrix.obj
 0001:0006c706       __unwindfunclet$?RotationHPR@Matrix44@@QAEXMMM@Z$24 1006d706 f   System:Matrix.obj
 0001:0006c711       __unwindfunclet$?RotationHPR@Matrix44@@QAEXMMM@Z$26 1006d711 f   System:Matrix.obj
 0001:0006c71c       __unwindfunclet$?RotationHPR@Matrix44@@QAEXMMM@Z$27 1006d71c f   System:Matrix.obj
 0001:0006c727       __unwindfunclet$?RotationHPR@Matrix44@@QAEXMMM@Z$28 1006d727 f   System:Matrix.obj
 0001:0006c732       __unwindfunclet$?RotationHPR@Matrix44@@QAEXMMM@Z$29 1006d732 f   System:Matrix.obj
 0001:0006c73d       __ehhandler$?RotationHPR@Matrix44@@QAEXMMM@Z 1006d73d f   System:Matrix.obj
 0001:0006c750       __unwindfunclet$?RotateHPR@Matrix44@@QAEXMMM@Z$0 1006d750 f   System:Matrix.obj
 0001:0006c758       __unwindfunclet$?RotateHPR@Matrix44@@QAEXMMM@Z$1 1006d758 f   System:Matrix.obj
 0001:0006c760       __unwindfunclet$?RotateHPR@Matrix44@@QAEXMMM@Z$2 1006d760 f   System:Matrix.obj
 0001:0006c768       __unwindfunclet$?RotateHPR@Matrix44@@QAEXMMM@Z$3 1006d768 f   System:Matrix.obj
 0001:0006c770       __unwindfunclet$?RotateHPR@Matrix44@@QAEXMMM@Z$4 1006d770 f   System:Matrix.obj
 0001:0006c77b       __unwindfunclet$?RotateHPR@Matrix44@@QAEXMMM@Z$5 1006d77b f   System:Matrix.obj
 0001:0006c786       __unwindfunclet$?RotateHPR@Matrix44@@QAEXMMM@Z$6 1006d786 f   System:Matrix.obj
 0001:0006c791       __unwindfunclet$?RotateHPR@Matrix44@@QAEXMMM@Z$7 1006d791 f   System:Matrix.obj
 0001:0006c79c       __unwindfunclet$?RotateHPR@Matrix44@@QAEXMMM@Z$8 1006d79c f   System:Matrix.obj
 0001:0006c7a7       __unwindfunclet$?RotateHPR@Matrix44@@QAEXMMM@Z$9 1006d7a7 f   System:Matrix.obj
 0001:0006c7b2       __unwindfunclet$?RotateHPR@Matrix44@@QAEXMMM@Z$10 1006d7b2 f   System:Matrix.obj
 0001:0006c7bd       __unwindfunclet$?RotateHPR@Matrix44@@QAEXMMM@Z$11 1006d7bd f   System:Matrix.obj
 0001:0006c7c8       __unwindfunclet$?RotateHPR@Matrix44@@QAEXMMM@Z$13 1006d7c8 f   System:Matrix.obj
 0001:0006c7d3       __unwindfunclet$?RotateHPR@Matrix44@@QAEXMMM@Z$14 1006d7d3 f   System:Matrix.obj
 0001:0006c7de       __unwindfunclet$?RotateHPR@Matrix44@@QAEXMMM@Z$15 1006d7de f   System:Matrix.obj
 0001:0006c7e9       __unwindfunclet$?RotateHPR@Matrix44@@QAEXMMM@Z$16 1006d7e9 f   System:Matrix.obj
 0001:0006c7f4       __unwindfunclet$?RotateHPR@Matrix44@@QAEXMMM@Z$17 1006d7f4 f   System:Matrix.obj
 0001:0006c7ff       __unwindfunclet$?RotateHPR@Matrix44@@QAEXMMM@Z$18 1006d7ff f   System:Matrix.obj
 0001:0006c80a       __unwindfunclet$?RotateHPR@Matrix44@@QAEXMMM@Z$19 1006d80a f   System:Matrix.obj
 0001:0006c815       __unwindfunclet$?RotateHPR@Matrix44@@QAEXMMM@Z$20 1006d815 f   System:Matrix.obj
 0001:0006c820       __unwindfunclet$?RotateHPR@Matrix44@@QAEXMMM@Z$22 1006d820 f   System:Matrix.obj
 0001:0006c82b       __unwindfunclet$?RotateHPR@Matrix44@@QAEXMMM@Z$23 1006d82b f   System:Matrix.obj
 0001:0006c836       __unwindfunclet$?RotateHPR@Matrix44@@QAEXMMM@Z$24 1006d836 f   System:Matrix.obj
 0001:0006c841       __unwindfunclet$?RotateHPR@Matrix44@@QAEXMMM@Z$25 1006d841 f   System:Matrix.obj
 0001:0006c84c       __unwindfunclet$?RotateHPR@Matrix44@@QAEXMMM@Z$26 1006d84c f   System:Matrix.obj
 0001:0006c857       __unwindfunclet$?RotateHPR@Matrix44@@QAEXMMM@Z$27 1006d857 f   System:Matrix.obj
 0001:0006c862       __unwindfunclet$?RotateHPR@Matrix44@@QAEXMMM@Z$28 1006d862 f   System:Matrix.obj
 0001:0006c86d       __unwindfunclet$?RotateHPR@Matrix44@@QAEXMMM@Z$29 1006d86d f   System:Matrix.obj
 0001:0006c878       __unwindfunclet$?RotateHPR@Matrix44@@QAEXMMM@Z$31 1006d878 f   System:Matrix.obj
 0001:0006c883       __unwindfunclet$?RotateHPR@Matrix44@@QAEXMMM@Z$32 1006d883 f   System:Matrix.obj
 0001:0006c88e       __ehhandler$?RotateHPR@Matrix44@@QAEXMMM@Z 1006d88e f   System:Matrix.obj
 0001:0006c8a0       __unwindfunclet$?RotationXYZ@Matrix44@@QAEXMMM@Z$0 1006d8a0 f   System:Matrix.obj
 0001:0006c8a8       __unwindfunclet$?RotationXYZ@Matrix44@@QAEXMMM@Z$1 1006d8a8 f   System:Matrix.obj
 0001:0006c8b0       __unwindfunclet$?RotationXYZ@Matrix44@@QAEXMMM@Z$2 1006d8b0 f   System:Matrix.obj
 0001:0006c8b8       __unwindfunclet$?RotationXYZ@Matrix44@@QAEXMMM@Z$3 1006d8b8 f   System:Matrix.obj
 0001:0006c8c0       __unwindfunclet$?RotationXYZ@Matrix44@@QAEXMMM@Z$4 1006d8c0 f   System:Matrix.obj
 0001:0006c8cb       __unwindfunclet$?RotationXYZ@Matrix44@@QAEXMMM@Z$5 1006d8cb f   System:Matrix.obj
 0001:0006c8d6       __unwindfunclet$?RotationXYZ@Matrix44@@QAEXMMM@Z$6 1006d8d6 f   System:Matrix.obj
 0001:0006c8e1       __unwindfunclet$?RotationXYZ@Matrix44@@QAEXMMM@Z$8 1006d8e1 f   System:Matrix.obj
 0001:0006c8ec       __unwindfunclet$?RotationXYZ@Matrix44@@QAEXMMM@Z$9 1006d8ec f   System:Matrix.obj
 0001:0006c8f7       __unwindfunclet$?RotationXYZ@Matrix44@@QAEXMMM@Z$10 1006d8f7 f   System:Matrix.obj
 0001:0006c902       __unwindfunclet$?RotationXYZ@Matrix44@@QAEXMMM@Z$11 1006d902 f   System:Matrix.obj
 0001:0006c90d       __unwindfunclet$?RotationXYZ@Matrix44@@QAEXMMM@Z$12 1006d90d f   System:Matrix.obj
 0001:0006c918       __unwindfunclet$?RotationXYZ@Matrix44@@QAEXMMM@Z$13 1006d918 f   System:Matrix.obj
 0001:0006c923       __unwindfunclet$?RotationXYZ@Matrix44@@QAEXMMM@Z$14 1006d923 f   System:Matrix.obj
 0001:0006c92e       __unwindfunclet$?RotationXYZ@Matrix44@@QAEXMMM@Z$15 1006d92e f   System:Matrix.obj
 0001:0006c939       __unwindfunclet$?RotationXYZ@Matrix44@@QAEXMMM@Z$17 1006d939 f   System:Matrix.obj
 0001:0006c944       __unwindfunclet$?RotationXYZ@Matrix44@@QAEXMMM@Z$18 1006d944 f   System:Matrix.obj
 0001:0006c94f       __unwindfunclet$?RotationXYZ@Matrix44@@QAEXMMM@Z$19 1006d94f f   System:Matrix.obj
 0001:0006c95a       __unwindfunclet$?RotationXYZ@Matrix44@@QAEXMMM@Z$20 1006d95a f   System:Matrix.obj
 0001:0006c965       __unwindfunclet$?RotationXYZ@Matrix44@@QAEXMMM@Z$21 1006d965 f   System:Matrix.obj
 0001:0006c970       __unwindfunclet$?RotationXYZ@Matrix44@@QAEXMMM@Z$22 1006d970 f   System:Matrix.obj
 0001:0006c97b       __unwindfunclet$?RotationXYZ@Matrix44@@QAEXMMM@Z$23 1006d97b f   System:Matrix.obj
 0001:0006c986       __unwindfunclet$?RotationXYZ@Matrix44@@QAEXMMM@Z$24 1006d986 f   System:Matrix.obj
 0001:0006c991       __unwindfunclet$?RotationXYZ@Matrix44@@QAEXMMM@Z$26 1006d991 f   System:Matrix.obj
 0001:0006c99c       __unwindfunclet$?RotationXYZ@Matrix44@@QAEXMMM@Z$27 1006d99c f   System:Matrix.obj
 0001:0006c9a7       __unwindfunclet$?RotationXYZ@Matrix44@@QAEXMMM@Z$28 1006d9a7 f   System:Matrix.obj
 0001:0006c9b2       __unwindfunclet$?RotationXYZ@Matrix44@@QAEXMMM@Z$29 1006d9b2 f   System:Matrix.obj
 0001:0006c9bd       __ehhandler$?RotationXYZ@Matrix44@@QAEXMMM@Z 1006d9bd f   System:Matrix.obj
 0001:0006c9d0       __unwindfunclet$?RotateXYZ@Matrix44@@QAEXMMM@Z$0 1006d9d0 f   System:Matrix.obj
 0001:0006c9d8       __unwindfunclet$?RotateXYZ@Matrix44@@QAEXMMM@Z$1 1006d9d8 f   System:Matrix.obj
 0001:0006c9e0       __unwindfunclet$?RotateXYZ@Matrix44@@QAEXMMM@Z$2 1006d9e0 f   System:Matrix.obj
 0001:0006c9e8       __unwindfunclet$?RotateXYZ@Matrix44@@QAEXMMM@Z$3 1006d9e8 f   System:Matrix.obj
 0001:0006c9f0       __unwindfunclet$?RotateXYZ@Matrix44@@QAEXMMM@Z$4 1006d9f0 f   System:Matrix.obj
 0001:0006c9fb       __unwindfunclet$?RotateXYZ@Matrix44@@QAEXMMM@Z$5 1006d9fb f   System:Matrix.obj
 0001:0006ca06       __unwindfunclet$?RotateXYZ@Matrix44@@QAEXMMM@Z$6 1006da06 f   System:Matrix.obj
 0001:0006ca11       __unwindfunclet$?RotateXYZ@Matrix44@@QAEXMMM@Z$7 1006da11 f   System:Matrix.obj
 0001:0006ca1c       __unwindfunclet$?RotateXYZ@Matrix44@@QAEXMMM@Z$8 1006da1c f   System:Matrix.obj
 0001:0006ca27       __unwindfunclet$?RotateXYZ@Matrix44@@QAEXMMM@Z$9 1006da27 f   System:Matrix.obj
 0001:0006ca32       __unwindfunclet$?RotateXYZ@Matrix44@@QAEXMMM@Z$10 1006da32 f   System:Matrix.obj
 0001:0006ca3d       __unwindfunclet$?RotateXYZ@Matrix44@@QAEXMMM@Z$12 1006da3d f   System:Matrix.obj
 0001:0006ca48       __unwindfunclet$?RotateXYZ@Matrix44@@QAEXMMM@Z$13 1006da48 f   System:Matrix.obj
 0001:0006ca53       __unwindfunclet$?RotateXYZ@Matrix44@@QAEXMMM@Z$14 1006da53 f   System:Matrix.obj
 0001:0006ca5e       __unwindfunclet$?RotateXYZ@Matrix44@@QAEXMMM@Z$15 1006da5e f   System:Matrix.obj
 0001:0006ca69       __unwindfunclet$?RotateXYZ@Matrix44@@QAEXMMM@Z$16 1006da69 f   System:Matrix.obj
 0001:0006ca74       __unwindfunclet$?RotateXYZ@Matrix44@@QAEXMMM@Z$17 1006da74 f   System:Matrix.obj
 0001:0006ca7f       __unwindfunclet$?RotateXYZ@Matrix44@@QAEXMMM@Z$18 1006da7f f   System:Matrix.obj
 0001:0006ca8a       __unwindfunclet$?RotateXYZ@Matrix44@@QAEXMMM@Z$19 1006da8a f   System:Matrix.obj
 0001:0006ca95       __unwindfunclet$?RotateXYZ@Matrix44@@QAEXMMM@Z$21 1006da95 f   System:Matrix.obj
 0001:0006caa0       __unwindfunclet$?RotateXYZ@Matrix44@@QAEXMMM@Z$22 1006daa0 f   System:Matrix.obj
 0001:0006caab       __unwindfunclet$?RotateXYZ@Matrix44@@QAEXMMM@Z$23 1006daab f   System:Matrix.obj
 0001:0006cab6       __unwindfunclet$?RotateXYZ@Matrix44@@QAEXMMM@Z$24 1006dab6 f   System:Matrix.obj
 0001:0006cac1       __unwindfunclet$?RotateXYZ@Matrix44@@QAEXMMM@Z$25 1006dac1 f   System:Matrix.obj
 0001:0006cacc       __unwindfunclet$?RotateXYZ@Matrix44@@QAEXMMM@Z$26 1006dacc f   System:Matrix.obj
 0001:0006cad7       __unwindfunclet$?RotateXYZ@Matrix44@@QAEXMMM@Z$27 1006dad7 f   System:Matrix.obj
 0001:0006cae2       __unwindfunclet$?RotateXYZ@Matrix44@@QAEXMMM@Z$28 1006dae2 f   System:Matrix.obj
 0001:0006caed       __unwindfunclet$?RotateXYZ@Matrix44@@QAEXMMM@Z$30 1006daed f   System:Matrix.obj
 0001:0006caf8       __unwindfunclet$?RotateXYZ@Matrix44@@QAEXMMM@Z$31 1006daf8 f   System:Matrix.obj
 0001:0006cb03       __ehhandler$?RotateXYZ@Matrix44@@QAEXMMM@Z 1006db03 f   System:Matrix.obj
 0001:0006cb10       __unwindfunclet$?Inverse@Matrix44@@QAEXXZ$0 1006db10 f   System:Matrix.obj
 0001:0006cb1b       __ehhandler$?Inverse@Matrix44@@QAEXXZ 1006db1b f   System:Matrix.obj
 0001:0006cb30       __unwindfunclet$?LookAt@Matrix44@@QAEXMMM@Z$0 1006db30 f   System:Matrix.obj
 0001:0006cb38       __unwindfunclet$?LookAt@Matrix44@@QAEXMMM@Z$1 1006db38 f   System:Matrix.obj
 0001:0006cb40       __unwindfunclet$?LookAt@Matrix44@@QAEXMMM@Z$2 1006db40 f   System:Matrix.obj
 0001:0006cb48       __unwindfunclet$?LookAt@Matrix44@@QAEXMMM@Z$3 1006db48 f   System:Matrix.obj
 0001:0006cb50       __unwindfunclet$?LookAt@Matrix44@@QAEXMMM@Z$4 1006db50 f   System:Matrix.obj
 0001:0006cb5b       __unwindfunclet$?LookAt@Matrix44@@QAEXMMM@Z$5 1006db5b f   System:Matrix.obj
 0001:0006cb66       __ehhandler$?LookAt@Matrix44@@QAEXMMM@Z 1006db66 f   System:Matrix.obj
 0001:0006cb70       $L12110                    1006db70 f   libcpd:string.obj
 0001:0006cb78       __ehhandler$?_Xlen@_String_base@std@@QBEXXZ 1006db78 f   libcpd:string.obj
 0001:0006cb90       $L12170                    1006db90 f   libcpd:string.obj
 0001:0006cb98       __ehhandler$?_Xran@_String_base@std@@QBEXXZ 1006db98 f   libcpd:string.obj
 0001:0006cbb0       _$E2                       1006dbb0 f   aMaterial.obj
 0001:0006cc00       _$E5                       1006dc00 f   aMaterial.obj
 0001:0006cc50       _$E8                       1006dc50 f   aMaterial.obj
 0001:0006cca0       _$E3                       1006dca0 f   aMaterial.obj
 0001:0006cce0       _$E6                       1006dce0 f   aMaterial.obj
 0001:0006cd20       _$E9                       1006dd20 f   aMaterial.obj
 0001:0006cd60       _$E13                      1006dd60 f   aMaterial.obj
 0001:0006cda0       _$E12                      1006dda0 f   aMaterial.obj
 0001:0006cde0       _$E15                      1006dde0 f   aMaterial.obj
 0001:0006ce20       _$E17                      1006de20 f   aMaterial.obj
 0001:0006ce60       _$E21                      1006de60 f   aMaterial.obj
 0001:0006cea0       _$E20                      1006dea0 f   aMaterial.obj
 0001:0006cee0       _$E19                      1006dee0 f   aMaterial.obj
 0001:0006cf20       _$E28                      1006df20 f   aMaterial.obj
 0001:0006cf60       _$E27                      1006df60 f   aMaterial.obj
 0001:0006cfa0       _$E26                      1006dfa0 f   aMaterial.obj
 0001:0006cfe0       _$E25                      1006dfe0 f   aMaterial.obj
 0001:0006d020       _$E24                      1006e020 f   aMaterial.obj
 0001:0006d060       _$E23                      1006e060 f   aMaterial.obj
 0001:0006d0a0       _$E3                       1006e0a0 f   System:Error_types.obj
 0001:0006d0e0       _$E2                       1006e0e0 f   libcpd:nomemory.obj
